TN:
SF:/home/tistrauss/.conan/data/asio/1.13.0/_/_/package/5ab84d6acfe1f23c4fae0ab88f26e3a396351ac9/include/asio/associated_allocator.hpp
FN:38,_ZN4asio6detail25associated_allocator_implIZN9SimpleWeb16SocketClientBaseINS_19basic_stream_socketINS_2ip3tcpENS_8executorEEEE7upgradeERKSt10shared_ptrINS9_10ConnectionEEEUlRKSt10error_codemE_SaIvEvE3getERKSI_RKSJ_
FN:38,_ZN4asio6detail25associated_allocator_implIZN9SimpleWeb16SocketClientBaseINS_19basic_stream_socketINS_2ip3tcpENS_8executorEEEE10Connection15send_from_queueEvEUlRKSt10error_codemE_SaIvEvE3getERKSE_RKSF_
FN:38,_ZN4asio6detail25associated_allocator_implIZN9SimpleWeb16SocketClientBaseINS_19basic_stream_socketINS_2ip3tcpENS_8executorEEEE20read_message_contentERKSt10shared_ptrINS9_10ConnectionEEmEUlRKSt10error_codemE_SaIvEvE3getERKSI_RKSJ_
FN:38,_ZN4asio6detail25associated_allocator_implIZN9SimpleWeb16SocketClientBaseINS_19basic_stream_socketINS_2ip3tcpENS_8executorEEEE10Connection11set_timeoutElEUlRKSt10error_codeE_SaIvEvE3getERKSE_RKSF_
FN:38,_ZN4asio6detail25associated_allocator_implIZN9SimpleWeb16SocketClientBaseINS_19basic_stream_socketINS_2ip3tcpENS_8executorEEEE12read_messageERKSt10shared_ptrINS9_10ConnectionEEmEUlRKSt10error_codemE_SaIvEvE3getERKSI_RKSJ_
FN:38,_ZN4asio6detail25associated_allocator_implIZN9SimpleWeb12SocketClientINS_19basic_stream_socketINS_2ip3tcpENS_8executorEEEE7connectEvEUlRKSt10error_codeNS5_22basic_resolver_resultsIS6_EEE_SaIvEvE3getERKSF_RKSG_
FN:38,_ZN4asio6detail25associated_allocator_implIZZN9SimpleWeb16SocketClientBaseINS_19basic_stream_socketINS_2ip3tcpENS_8executorEEEE12read_messageERKSt10shared_ptrINS9_10ConnectionEEmENKUlRKSt10error_codemE_clESH_mEUlSH_mE0_SaIvEvE3getERKSJ_RKSK_
FN:38,_ZN4asio6detail25associated_allocator_implIZZN9SimpleWeb12SocketClientINS_19basic_stream_socketINS_2ip3tcpENS_8executorEEEE7connectEvENKUlRKSt10error_codeNS5_22basic_resolver_resultsIS6_EEE_clESC_SE_EUlSC_NS5_14basic_endpointIS6_EEE_SaIvEvE3getERKSI_RKSJ_
FN:38,_ZN4asio6detail25associated_allocator_implIZZN9SimpleWeb16SocketClientBaseINS_19basic_stream_socketINS_2ip3tcpENS_8executorEEEE7upgradeERKSt10shared_ptrINS9_10ConnectionEEENKUlRKSt10error_codemE_clESH_mEUlSH_mE_SaIvEvE3getERKSJ_RKSK_
FN:38,_ZN4asio6detail25associated_allocator_implIZZN9SimpleWeb16SocketClientBaseINS_19basic_stream_socketINS_2ip3tcpENS_8executorEEEE12read_messageERKSt10shared_ptrINS9_10ConnectionEEmENKUlRKSt10error_codemE_clESH_mEUlSH_mE_SaIvEvE3getERKSJ_RKSK_
FN:90,_ZN4asio20associated_allocatorIZZN9SimpleWeb12SocketClientINS_19basic_stream_socketINS_2ip3tcpENS_8executorEEEE7connectEvENKUlRKSt10error_codeNS4_22basic_resolver_resultsIS5_EEE_clESB_SD_EUlSB_NS4_14basic_endpointIS5_EEE_SaIvEE3getERKSH_RKSI_
FN:90,_ZN4asio20associated_allocatorIZN9SimpleWeb16SocketClientBaseINS_19basic_stream_socketINS_2ip3tcpENS_8executorEEEE10Connection11set_timeoutElEUlRKSt10error_codeE_SaIvEE3getERKSD_RKSE_
FN:90,_ZN4asio20associated_allocatorIZZN9SimpleWeb16SocketClientBaseINS_19basic_stream_socketINS_2ip3tcpENS_8executorEEEE7upgradeERKSt10shared_ptrINS8_10ConnectionEEENKUlRKSt10error_codemE_clESG_mEUlSG_mE_SaIvEE3getERKSI_RKSJ_
FN:90,_ZN4asio20associated_allocatorIZN9SimpleWeb16SocketClientBaseINS_19basic_stream_socketINS_2ip3tcpENS_8executorEEEE10Connection15send_from_queueEvEUlRKSt10error_codemE_SaIvEE3getERKSD_RKSE_
FN:90,_ZN4asio20associated_allocatorIZN9SimpleWeb12SocketClientINS_19basic_stream_socketINS_2ip3tcpENS_8executorEEEE7connectEvEUlRKSt10error_codeNS4_22basic_resolver_resultsIS5_EEE_SaIvEE3getERKSE_RKSF_
FN:90,_ZN4asio20associated_allocatorIZN9SimpleWeb16SocketClientBaseINS_19basic_stream_socketINS_2ip3tcpENS_8executorEEEE20read_message_contentERKSt10shared_ptrINS8_10ConnectionEEmEUlRKSt10error_codemE_SaIvEE3getERKSH_RKSI_
FN:90,_ZN4asio20associated_allocatorIZZN9SimpleWeb16SocketClientBaseINS_19basic_stream_socketINS_2ip3tcpENS_8executorEEEE12read_messageERKSt10shared_ptrINS8_10ConnectionEEmENKUlRKSt10error_codemE_clESG_mEUlSG_mE0_SaIvEE3getERKSI_RKSJ_
FN:90,_ZN4asio20associated_allocatorIZN9SimpleWeb16SocketClientBaseINS_19basic_stream_socketINS_2ip3tcpENS_8executorEEEE12read_messageERKSt10shared_ptrINS8_10ConnectionEEmEUlRKSt10error_codemE_SaIvEE3getERKSH_RKSI_
FN:90,_ZN4asio20associated_allocatorIZZN9SimpleWeb16SocketClientBaseINS_19basic_stream_socketINS_2ip3tcpENS_8executorEEEE12read_messageERKSt10shared_ptrINS8_10ConnectionEEmENKUlRKSt10error_codemE_clESG_mEUlSG_mE_SaIvEE3getERKSI_RKSJ_
FN:90,_ZN4asio20associated_allocatorIZN9SimpleWeb16SocketClientBaseINS_19basic_stream_socketINS_2ip3tcpENS_8executorEEEE7upgradeERKSt10shared_ptrINS8_10ConnectionEEEUlRKSt10error_codemE_SaIvEE3getERKSH_RKSI_
FN:103,_ZN4asio24get_associated_allocatorIZN9SimpleWeb16SocketClientBaseINS_19basic_stream_socketINS_2ip3tcpENS_8executorEEEE10Connection11set_timeoutElEUlRKSt10error_codeE_EENS_20associated_allocatorIT_SaIvEE4typeERKSF_
FN:103,_ZN4asio24get_associated_allocatorINS_6detail17read_dynbuf_v1_opINS_19basic_stream_socketINS_2ip3tcpENS_8executorEEENS_19basic_streambuf_refISaIcEEENS1_18transfer_exactly_tEZN9SimpleWeb16SocketClientBaseIS7_E12read_messageERKSt10shared_ptrINSE_10ConnectionEEmEUlRKSt10error_codemE_EEEENS_20associated_allocatorIT_SaIvEE4typeERKSQ_
FN:103,_ZN4asio24get_associated_allocatorINS_6detail8write_opINS_19basic_stream_socketINS_2ip3tcpENS_8executorEEENS_15const_buffers_1EPKNS_12const_bufferENS1_14transfer_all_tENS1_18write_dynbuf_v1_opIS7_NS_19basic_streambuf_refISaIcEEESC_ZN9SimpleWeb16SocketClientBaseIS7_E7upgradeERKSt10shared_ptrINSJ_10ConnectionEEEUlRKSt10error_codemE_EEEEEENS_20associated_allocatorIT_SaIvEE4typeERKSW_
FN:103,_ZN4asio24get_associated_allocatorINS_6detail7binder1INS1_16range_connect_opINS_2ip3tcpENS_8executorENS4_22basic_resolver_resultsIS5_EENS1_25default_connect_conditionEZZN9SimpleWeb12SocketClientINS_19basic_stream_socketIS5_S6_EEE7connectEvENKUlRKSt10error_codeS8_E_clESH_S8_EUlSH_NS4_14basic_endpointIS5_EEE_EESF_EEEENS_20associated_allocatorIT_SaIvEE4typeERKSP_
FN:103,_ZN4asio24get_associated_allocatorIZN9SimpleWeb12SocketClientINS_19basic_stream_socketINS_2ip3tcpENS_8executorEEEE7connectEvEUlRKSt10error_codeNS4_22basic_resolver_resultsIS5_EEE_EENS_20associated_allocatorIT_SaIvEE4typeERKSG_
FN:103,_ZN4asio24get_associated_allocatorINS_6detail17read_dynbuf_v1_opINS_19basic_stream_socketINS_2ip3tcpENS_8executorEEENS_19basic_streambuf_refISaIcEEENS1_18transfer_exactly_tEZZN9SimpleWeb16SocketClientBaseIS7_E12read_messageERKSt10shared_ptrINSE_10ConnectionEEmENKUlRKSt10error_codemE_clESM_mEUlSM_mE0_EEEENS_20associated_allocatorIT_SaIvEE4typeERKSR_
FN:103,_ZN4asio24get_associated_allocatorINS_6detail29read_until_delim_string_op_v1INS_19basic_stream_socketINS_2ip3tcpENS_8executorEEENS_19basic_streambuf_refISaIcEEEZZN9SimpleWeb16SocketClientBaseIS7_E7upgradeERKSt10shared_ptrINSD_10ConnectionEEENKUlRKSt10error_codemE_clESL_mEUlSL_mE_EEEENS_20associated_allocatorIT_SaIvEE4typeERKSQ_
FN:103,_ZN4asio24get_associated_allocatorINS_6detail16range_connect_opINS_2ip3tcpENS_8executorENS3_22basic_resolver_resultsIS4_EENS1_25default_connect_conditionEZZN9SimpleWeb12SocketClientINS_19basic_stream_socketIS4_S5_EEE7connectEvENKUlRKSt10error_codeS7_E_clESG_S7_EUlSG_NS3_14basic_endpointIS4_EEE_EEEENS_20associated_allocatorIT_SaIvEE4typeERKSN_
FN:103,_ZN4asio24get_associated_allocatorINS_6detail17read_dynbuf_v1_opINS_19basic_stream_socketINS_2ip3tcpENS_8executorEEENS_19basic_streambuf_refISaIcEEENS1_18transfer_exactly_tEZZN9SimpleWeb16SocketClientBaseIS7_E12read_messageERKSt10shared_ptrINSE_10ConnectionEEmENKUlRKSt10error_codemE_clESM_mEUlSM_mE_EEEENS_20associated_allocatorIT_SaIvEE4typeERKSR_
FN:103,_ZN4asio24get_associated_allocatorINS_6detail17read_dynbuf_v1_opINS_19basic_stream_socketINS_2ip3tcpENS_8executorEEENS_19basic_streambuf_refISaIcEEENS1_18transfer_exactly_tEZN9SimpleWeb16SocketClientBaseIS7_E20read_message_contentERKSt10shared_ptrINSE_10ConnectionEEmEUlRKSt10error_codemE_EEEENS_20associated_allocatorIT_SaIvEE4typeERKSQ_
FN:103,_ZN4asio24get_associated_allocatorINS_6detail8write_opINS_19basic_stream_socketINS_2ip3tcpENS_8executorEEENS_15const_buffers_1EPKNS_12const_bufferENS1_14transfer_all_tENS1_18write_dynbuf_v1_opIS7_NS_19basic_streambuf_refISaIcEEESC_ZN9SimpleWeb16SocketClientBaseIS7_E10Connection15send_from_queueEvEUlRKSt10error_codemE_EEEEEENS_20associated_allocatorIT_SaIvEE4typeERKSS_
FNDA:0,_ZN4asio6detail25associated_allocator_implIZN9SimpleWeb16SocketClientBaseINS_19basic_stream_socketINS_2ip3tcpENS_8executorEEEE10Connection15send_from_queueEvEUlRKSt10error_codemE_SaIvEvE3getERKSE_RKSF_
FNDA:0,_ZN4asio6detail25associated_allocator_implIZN9SimpleWeb16SocketClientBaseINS_19basic_stream_socketINS_2ip3tcpENS_8executorEEEE7upgradeERKSt10shared_ptrINS9_10ConnectionEEEUlRKSt10error_codemE_SaIvEvE3getERKSI_RKSJ_
FNDA:0,_ZN4asio6detail25associated_allocator_implIZN9SimpleWeb16SocketClientBaseINS_19basic_stream_socketINS_2ip3tcpENS_8executorEEEE20read_message_contentERKSt10shared_ptrINS9_10ConnectionEEmEUlRKSt10error_codemE_SaIvEvE3getERKSI_RKSJ_
FNDA:0,_ZN4asio6detail25associated_allocator_implIZN9SimpleWeb16SocketClientBaseINS_19basic_stream_socketINS_2ip3tcpENS_8executorEEEE12read_messageERKSt10shared_ptrINS9_10ConnectionEEmEUlRKSt10error_codemE_SaIvEvE3getERKSI_RKSJ_
FNDA:0,_ZN4asio6detail25associated_allocator_implIZZN9SimpleWeb16SocketClientBaseINS_19basic_stream_socketINS_2ip3tcpENS_8executorEEEE12read_messageERKSt10shared_ptrINS9_10ConnectionEEmENKUlRKSt10error_codemE_clESH_mEUlSH_mE0_SaIvEvE3getERKSJ_RKSK_
FNDA:0,_ZN4asio6detail25associated_allocator_implIZZN9SimpleWeb16SocketClientBaseINS_19basic_stream_socketINS_2ip3tcpENS_8executorEEEE12read_messageERKSt10shared_ptrINS9_10ConnectionEEmENKUlRKSt10error_codemE_clESH_mEUlSH_mE_SaIvEvE3getERKSJ_RKSK_
FNDA:0,_ZN4asio6detail25associated_allocator_implIZZN9SimpleWeb16SocketClientBaseINS_19basic_stream_socketINS_2ip3tcpENS_8executorEEEE7upgradeERKSt10shared_ptrINS9_10ConnectionEEENKUlRKSt10error_codemE_clESH_mEUlSH_mE_SaIvEvE3getERKSJ_RKSK_
FNDA:0,_ZN4asio6detail25associated_allocator_implIZZN9SimpleWeb12SocketClientINS_19basic_stream_socketINS_2ip3tcpENS_8executorEEEE7connectEvENKUlRKSt10error_codeNS5_22basic_resolver_resultsIS6_EEE_clESC_SE_EUlSC_NS5_14basic_endpointIS6_EEE_SaIvEvE3getERKSI_RKSJ_
FNDA:0,_ZN4asio6detail25associated_allocator_implIZN9SimpleWeb12SocketClientINS_19basic_stream_socketINS_2ip3tcpENS_8executorEEEE7connectEvEUlRKSt10error_codeNS5_22basic_resolver_resultsIS6_EEE_SaIvEvE3getERKSF_RKSG_
FNDA:0,_ZN4asio6detail25associated_allocator_implIZN9SimpleWeb16SocketClientBaseINS_19basic_stream_socketINS_2ip3tcpENS_8executorEEEE10Connection11set_timeoutElEUlRKSt10error_codeE_SaIvEvE3getERKSE_RKSF_
FNDA:0,_ZN4asio20associated_allocatorIZN9SimpleWeb16SocketClientBaseINS_19basic_stream_socketINS_2ip3tcpENS_8executorEEEE10Connection15send_from_queueEvEUlRKSt10error_codemE_SaIvEE3getERKSD_RKSE_
FNDA:0,_ZN4asio20associated_allocatorIZN9SimpleWeb16SocketClientBaseINS_19basic_stream_socketINS_2ip3tcpENS_8executorEEEE7upgradeERKSt10shared_ptrINS8_10ConnectionEEEUlRKSt10error_codemE_SaIvEE3getERKSH_RKSI_
FNDA:0,_ZN4asio20associated_allocatorIZN9SimpleWeb16SocketClientBaseINS_19basic_stream_socketINS_2ip3tcpENS_8executorEEEE20read_message_contentERKSt10shared_ptrINS8_10ConnectionEEmEUlRKSt10error_codemE_SaIvEE3getERKSH_RKSI_
FNDA:0,_ZN4asio20associated_allocatorIZN9SimpleWeb16SocketClientBaseINS_19basic_stream_socketINS_2ip3tcpENS_8executorEEEE12read_messageERKSt10shared_ptrINS8_10ConnectionEEmEUlRKSt10error_codemE_SaIvEE3getERKSH_RKSI_
FNDA:0,_ZN4asio20associated_allocatorIZZN9SimpleWeb16SocketClientBaseINS_19basic_stream_socketINS_2ip3tcpENS_8executorEEEE12read_messageERKSt10shared_ptrINS8_10ConnectionEEmENKUlRKSt10error_codemE_clESG_mEUlSG_mE0_SaIvEE3getERKSI_RKSJ_
FNDA:0,_ZN4asio20associated_allocatorIZZN9SimpleWeb16SocketClientBaseINS_19basic_stream_socketINS_2ip3tcpENS_8executorEEEE12read_messageERKSt10shared_ptrINS8_10ConnectionEEmENKUlRKSt10error_codemE_clESG_mEUlSG_mE_SaIvEE3getERKSI_RKSJ_
FNDA:0,_ZN4asio20associated_allocatorIZZN9SimpleWeb16SocketClientBaseINS_19basic_stream_socketINS_2ip3tcpENS_8executorEEEE7upgradeERKSt10shared_ptrINS8_10ConnectionEEENKUlRKSt10error_codemE_clESG_mEUlSG_mE_SaIvEE3getERKSI_RKSJ_
FNDA:0,_ZN4asio20associated_allocatorIZZN9SimpleWeb12SocketClientINS_19basic_stream_socketINS_2ip3tcpENS_8executorEEEE7connectEvENKUlRKSt10error_codeNS4_22basic_resolver_resultsIS5_EEE_clESB_SD_EUlSB_NS4_14basic_endpointIS5_EEE_SaIvEE3getERKSH_RKSI_
FNDA:0,_ZN4asio20associated_allocatorIZN9SimpleWeb12SocketClientINS_19basic_stream_socketINS_2ip3tcpENS_8executorEEEE7connectEvEUlRKSt10error_codeNS4_22basic_resolver_resultsIS5_EEE_SaIvEE3getERKSE_RKSF_
FNDA:0,_ZN4asio20associated_allocatorIZN9SimpleWeb16SocketClientBaseINS_19basic_stream_socketINS_2ip3tcpENS_8executorEEEE10Connection11set_timeoutElEUlRKSt10error_codeE_SaIvEE3getERKSD_RKSE_
FNDA:0,_ZN4asio24get_associated_allocatorINS_6detail8write_opINS_19basic_stream_socketINS_2ip3tcpENS_8executorEEENS_15const_buffers_1EPKNS_12const_bufferENS1_14transfer_all_tENS1_18write_dynbuf_v1_opIS7_NS_19basic_streambuf_refISaIcEEESC_ZN9SimpleWeb16SocketClientBaseIS7_E10Connection15send_from_queueEvEUlRKSt10error_codemE_EEEEEENS_20associated_allocatorIT_SaIvEE4typeERKSS_
FNDA:0,_ZN4asio24get_associated_allocatorINS_6detail8write_opINS_19basic_stream_socketINS_2ip3tcpENS_8executorEEENS_15const_buffers_1EPKNS_12const_bufferENS1_14transfer_all_tENS1_18write_dynbuf_v1_opIS7_NS_19basic_streambuf_refISaIcEEESC_ZN9SimpleWeb16SocketClientBaseIS7_E7upgradeERKSt10shared_ptrINSJ_10ConnectionEEEUlRKSt10error_codemE_EEEEEENS_20associated_allocatorIT_SaIvEE4typeERKSW_
FNDA:0,_ZN4asio24get_associated_allocatorINS_6detail17read_dynbuf_v1_opINS_19basic_stream_socketINS_2ip3tcpENS_8executorEEENS_19basic_streambuf_refISaIcEEENS1_18transfer_exactly_tEZN9SimpleWeb16SocketClientBaseIS7_E20read_message_contentERKSt10shared_ptrINSE_10ConnectionEEmEUlRKSt10error_codemE_EEEENS_20associated_allocatorIT_SaIvEE4typeERKSQ_
FNDA:0,_ZN4asio24get_associated_allocatorINS_6detail17read_dynbuf_v1_opINS_19basic_stream_socketINS_2ip3tcpENS_8executorEEENS_19basic_streambuf_refISaIcEEENS1_18transfer_exactly_tEZN9SimpleWeb16SocketClientBaseIS7_E12read_messageERKSt10shared_ptrINSE_10ConnectionEEmEUlRKSt10error_codemE_EEEENS_20associated_allocatorIT_SaIvEE4typeERKSQ_
FNDA:0,_ZN4asio24get_associated_allocatorINS_6detail17read_dynbuf_v1_opINS_19basic_stream_socketINS_2ip3tcpENS_8executorEEENS_19basic_streambuf_refISaIcEEENS1_18transfer_exactly_tEZZN9SimpleWeb16SocketClientBaseIS7_E12read_messageERKSt10shared_ptrINSE_10ConnectionEEmENKUlRKSt10error_codemE_clESM_mEUlSM_mE0_EEEENS_20associated_allocatorIT_SaIvEE4typeERKSR_
FNDA:0,_ZN4asio24get_associated_allocatorINS_6detail17read_dynbuf_v1_opINS_19basic_stream_socketINS_2ip3tcpENS_8executorEEENS_19basic_streambuf_refISaIcEEENS1_18transfer_exactly_tEZZN9SimpleWeb16SocketClientBaseIS7_E12read_messageERKSt10shared_ptrINSE_10ConnectionEEmENKUlRKSt10error_codemE_clESM_mEUlSM_mE_EEEENS_20associated_allocatorIT_SaIvEE4typeERKSR_
FNDA:0,_ZN4asio24get_associated_allocatorINS_6detail29read_until_delim_string_op_v1INS_19basic_stream_socketINS_2ip3tcpENS_8executorEEENS_19basic_streambuf_refISaIcEEEZZN9SimpleWeb16SocketClientBaseIS7_E7upgradeERKSt10shared_ptrINSD_10ConnectionEEENKUlRKSt10error_codemE_clESL_mEUlSL_mE_EEEENS_20associated_allocatorIT_SaIvEE4typeERKSQ_
FNDA:0,_ZN4asio24get_associated_allocatorINS_6detail16range_connect_opINS_2ip3tcpENS_8executorENS3_22basic_resolver_resultsIS4_EENS1_25default_connect_conditionEZZN9SimpleWeb12SocketClientINS_19basic_stream_socketIS4_S5_EEE7connectEvENKUlRKSt10error_codeS7_E_clESG_S7_EUlSG_NS3_14basic_endpointIS4_EEE_EEEENS_20associated_allocatorIT_SaIvEE4typeERKSN_
FNDA:0,_ZN4asio24get_associated_allocatorINS_6detail7binder1INS1_16range_connect_opINS_2ip3tcpENS_8executorENS4_22basic_resolver_resultsIS5_EENS1_25default_connect_conditionEZZN9SimpleWeb12SocketClientINS_19basic_stream_socketIS5_S6_EEE7connectEvENKUlRKSt10error_codeS8_E_clESH_S8_EUlSH_NS4_14basic_endpointIS5_EEE_EESF_EEEENS_20associated_allocatorIT_SaIvEE4typeERKSP_
FNDA:0,_ZN4asio24get_associated_allocatorIZN9SimpleWeb12SocketClientINS_19basic_stream_socketINS_2ip3tcpENS_8executorEEEE7connectEvEUlRKSt10error_codeNS4_22basic_resolver_resultsIS5_EEE_EENS_20associated_allocatorIT_SaIvEE4typeERKSG_
FNDA:0,_ZN4asio24get_associated_allocatorIZN9SimpleWeb16SocketClientBaseINS_19basic_stream_socketINS_2ip3tcpENS_8executorEEEE10Connection11set_timeoutElEUlRKSt10error_codeE_EENS_20associated_allocatorIT_SaIvEE4typeERKSF_
FNF:31
FNH:0
DA:38,0
DA:40,0
DA:90,0
DA:93,0
DA:103,0
DA:105,0
LF:6
LH:0
end_of_record
SF:/home/tistrauss/.conan/data/asio/1.13.0/_/_/package/5ab84d6acfe1f23c4fae0ab88f26e3a396351ac9/include/asio/associated_executor.hpp
FN:39,_ZN4asio6detail24associated_executor_implIZN9SimpleWeb12SocketClientINS_19basic_stream_socketINS_2ip3tcpENS_8executorEEEE7connectEvEUlRKSt10error_codeNS5_22basic_resolver_resultsIS6_EEE_NS0_18io_object_executorIS7_EEvE3getERKSF_RKSH_
FN:39,_ZN4asio6detail24associated_executor_implIZN9SimpleWeb16SocketClientBaseINS_19basic_stream_socketINS_2ip3tcpENS_8executorEEEE10Connection11set_timeoutElEUlRKSt10error_codeE_NS0_18io_object_executorIS7_EEvE3getERKSE_RKSG_
FN:39,_ZN4asio6detail24associated_executor_implIZZN9SimpleWeb16SocketClientBaseINS_19basic_stream_socketINS_2ip3tcpENS_8executorEEEE7upgradeERKSt10shared_ptrINS9_10ConnectionEEENKUlRKSt10error_codemE_clESH_mEUlSH_mE_NS0_18io_object_executorIS7_EEvE3getERKSJ_RKSL_
FN:39,_ZN4asio6detail24associated_executor_implIZZN9SimpleWeb12SocketClientINS_19basic_stream_socketINS_2ip3tcpENS_8executorEEEE7connectEvENKUlRKSt10error_codeNS5_22basic_resolver_resultsIS6_EEE_clESC_SE_EUlSC_NS5_14basic_endpointIS6_EEE_NS0_18io_object_executorIS7_EEvE3getERKSI_RKSK_
FN:39,_ZN4asio6detail24associated_executor_implIZZN9SimpleWeb16SocketClientBaseINS_19basic_stream_socketINS_2ip3tcpENS_8executorEEEE12read_messageERKSt10shared_ptrINS9_10ConnectionEEmENKUlRKSt10error_codemE_clESH_mEUlSH_mE_NS0_18io_object_executorIS7_EEvE3getERKSJ_RKSL_
FN:39,_ZN4asio6detail24associated_executor_implIZN9SimpleWeb16SocketClientBaseINS_19basic_stream_socketINS_2ip3tcpENS_8executorEEEE10Connection15send_from_queueEvEUlRKSt10error_codemE_NS0_18io_object_executorIS7_EEvE3getERKSE_RKSG_
FN:39,_ZN4asio6detail24associated_executor_implIZZN9SimpleWeb12SocketClientINS_19basic_stream_socketINS_2ip3tcpENS_8executorEEEE7connectEvENKUlRKSt10error_codeNS5_22basic_resolver_resultsIS6_EEE_clESC_SE_EUlSC_NS5_14basic_endpointIS6_EEE_NS_15system_executorEvE3getERKSI_RKSJ_
FN:39,_ZN4asio6detail24associated_executor_implIZN9SimpleWeb16SocketClientBaseINS_19basic_stream_socketINS_2ip3tcpENS_8executorEEEE20read_message_contentERKSt10shared_ptrINS9_10ConnectionEEmEUlRKSt10error_codemE_NS0_18io_object_executorIS7_EEvE3getERKSI_RKSK_
FN:39,_ZN4asio6detail24associated_executor_implIZN9SimpleWeb16SocketClientBaseINS_19basic_stream_socketINS_2ip3tcpENS_8executorEEEE7upgradeERKSt10shared_ptrINS9_10ConnectionEEEUlRKSt10error_codemE_NS0_18io_object_executorIS7_EEvE3getERKSI_RKSK_
FN:39,_ZN4asio6detail24associated_executor_implIZN9SimpleWeb16SocketClientBaseINS_19basic_stream_socketINS_2ip3tcpENS_8executorEEEE12read_messageERKSt10shared_ptrINS9_10ConnectionEEmEUlRKSt10error_codemE_NS0_18io_object_executorIS7_EEvE3getERKSI_RKSK_
FN:39,_ZN4asio6detail24associated_executor_implIZZN9SimpleWeb16SocketClientBaseINS_19basic_stream_socketINS_2ip3tcpENS_8executorEEEE12read_messageERKSt10shared_ptrINS9_10ConnectionEEmENKUlRKSt10error_codemE_clESH_mEUlSH_mE0_NS0_18io_object_executorIS7_EEvE3getERKSJ_RKSL_
FN:91,_ZN4asio19associated_executorIZN9SimpleWeb16SocketClientBaseINS_19basic_stream_socketINS_2ip3tcpENS_8executorEEEE10Connection11set_timeoutElEUlRKSt10error_codeE_NS_6detail18io_object_executorIS6_EEE3getERKSD_RKSG_
FN:91,_ZN4asio19associated_executorIZN9SimpleWeb12SocketClientINS_19basic_stream_socketINS_2ip3tcpENS_8executorEEEE7connectEvEUlRKSt10error_codeNS4_22basic_resolver_resultsIS5_EEE_NS_6detail18io_object_executorIS6_EEE3getERKSE_RKSH_
FN:91,_ZN4asio19associated_executorIZN9SimpleWeb16SocketClientBaseINS_19basic_stream_socketINS_2ip3tcpENS_8executorEEEE20read_message_contentERKSt10shared_ptrINS8_10ConnectionEEmEUlRKSt10error_codemE_NS_6detail18io_object_executorIS6_EEE3getERKSH_RKSK_
FN:91,_ZN4asio19associated_executorIZZN9SimpleWeb16SocketClientBaseINS_19basic_stream_socketINS_2ip3tcpENS_8executorEEEE7upgradeERKSt10shared_ptrINS8_10ConnectionEEENKUlRKSt10error_codemE_clESG_mEUlSG_mE_NS_6detail18io_object_executorIS6_EEE3getERKSI_RKSL_
FN:91,_ZN4asio19associated_executorIZN9SimpleWeb16SocketClientBaseINS_19basic_stream_socketINS_2ip3tcpENS_8executorEEEE12read_messageERKSt10shared_ptrINS8_10ConnectionEEmEUlRKSt10error_codemE_NS_6detail18io_object_executorIS6_EEE3getERKSH_RKSK_
FN:91,_ZN4asio19associated_executorIZZN9SimpleWeb12SocketClientINS_19basic_stream_socketINS_2ip3tcpENS_8executorEEEE7connectEvENKUlRKSt10error_codeNS4_22basic_resolver_resultsIS5_EEE_clESB_SD_EUlSB_NS4_14basic_endpointIS5_EEE_NS_15system_executorEE3getERKSH_RKSI_
FN:91,_ZN4asio19associated_executorIZZN9SimpleWeb16SocketClientBaseINS_19basic_stream_socketINS_2ip3tcpENS_8executorEEEE12read_messageERKSt10shared_ptrINS8_10ConnectionEEmENKUlRKSt10error_codemE_clESG_mEUlSG_mE0_NS_6detail18io_object_executorIS6_EEE3getERKSI_RKSL_
FN:91,_ZN4asio19associated_executorIZZN9SimpleWeb12SocketClientINS_19basic_stream_socketINS_2ip3tcpENS_8executorEEEE7connectEvENKUlRKSt10error_codeNS4_22basic_resolver_resultsIS5_EEE_clESB_SD_EUlSB_NS4_14basic_endpointIS5_EEE_NS_6detail18io_object_executorIS6_EEE3getERKSH_RKSK_
FN:91,_ZN4asio19associated_executorIZN9SimpleWeb16SocketClientBaseINS_19basic_stream_socketINS_2ip3tcpENS_8executorEEEE10Connection15send_from_queueEvEUlRKSt10error_codemE_NS_6detail18io_object_executorIS6_EEE3getERKSD_RKSG_
FN:91,_ZN4asio19associated_executorIZZN9SimpleWeb16SocketClientBaseINS_19basic_stream_socketINS_2ip3tcpENS_8executorEEEE12read_messageERKSt10shared_ptrINS8_10ConnectionEEmENKUlRKSt10error_codemE_clESG_mEUlSG_mE_NS_6detail18io_object_executorIS6_EEE3getERKSI_RKSL_
FN:91,_ZN4asio19associated_executorIZN9SimpleWeb16SocketClientBaseINS_19basic_stream_socketINS_2ip3tcpENS_8executorEEEE7upgradeERKSt10shared_ptrINS8_10ConnectionEEEUlRKSt10error_codemE_NS_6detail18io_object_executorIS6_EEE3getERKSH_RKSK_
FN:104,_ZN4asio23get_associated_executorINS_6detail7binder1INS1_16range_connect_opINS_2ip3tcpENS_8executorENS4_22basic_resolver_resultsIS5_EENS1_25default_connect_conditionEZZN9SimpleWeb12SocketClientINS_19basic_stream_socketIS5_S6_EEE7connectEvENKUlRKSt10error_codeS8_E_clESH_S8_EUlSH_NS4_14basic_endpointIS5_EEE_EESF_EEEENS_19associated_executorIT_NS_15system_executorEE4typeERKSP_
FN:115,_ZN4asio23get_associated_executorINS_6detail17read_dynbuf_v1_opINS_19basic_stream_socketINS_2ip3tcpENS_8executorEEENS_19basic_streambuf_refISaIcEEENS1_18transfer_exactly_tEZN9SimpleWeb16SocketClientBaseIS7_E20read_message_contentERKSt10shared_ptrINSE_10ConnectionEEmEUlRKSt10error_codemE_EENS1_18io_object_executorIS6_EEEENS_19associated_executorIT_T0_E4typeERKSS_RKST_PNSt9enable_ifIXsrNS_11is_executorIST_EE5valueEvE4typeE
FN:115,_ZN4asio23get_associated_executorINS_6detail8write_opINS_19basic_stream_socketINS_2ip3tcpENS_8executorEEENS_15const_buffers_1EPKNS_12const_bufferENS1_14transfer_all_tENS1_18write_dynbuf_v1_opIS7_NS_19basic_streambuf_refISaIcEEESC_ZN9SimpleWeb16SocketClientBaseIS7_E7upgradeERKSt10shared_ptrINSJ_10ConnectionEEEUlRKSt10error_codemE_EEEENS1_18io_object_executorIS6_EEEENS_19associated_executorIT_T0_E4typeERKSY_RKSZ_PNSt9enable_ifIXsrNS_11is_executorISZ_EE5valueEvE4typeE
FN:115,_ZN4asio23get_associated_executorINS_6detail16range_connect_opINS_2ip3tcpENS_8executorENS3_22basic_resolver_resultsIS4_EENS1_25default_connect_conditionEZZN9SimpleWeb12SocketClientINS_19basic_stream_socketIS4_S5_EEE7connectEvENKUlRKSt10error_codeS7_E_clESG_S7_EUlSG_NS3_14basic_endpointIS4_EEE_EENS1_18io_object_executorIS5_EEEENS_19associated_executorIT_T0_E4typeERKSP_RKSQ_PNSt9enable_ifIXsrNS_11is_executorISQ_EE5valueEvE4typeE
FN:115,_ZN4asio23get_associated_executorINS_6detail17read_dynbuf_v1_opINS_19basic_stream_socketINS_2ip3tcpENS_8executorEEENS_19basic_streambuf_refISaIcEEENS1_18transfer_exactly_tEZZN9SimpleWeb16SocketClientBaseIS7_E12read_messageERKSt10shared_ptrINSE_10ConnectionEEmENKUlRKSt10error_codemE_clESM_mEUlSM_mE0_EENS1_18io_object_executorIS6_EEEENS_19associated_executorIT_T0_E4typeERKST_RKSU_PNSt9enable_ifIXsrNS_11is_executorISU_EE5valueEvE4typeE
FN:115,_ZN4asio23get_associated_executorIZN9SimpleWeb12SocketClientINS_19basic_stream_socketINS_2ip3tcpENS_8executorEEEE7connectEvEUlRKSt10error_codeNS4_22basic_resolver_resultsIS5_EEE_NS_6detail18io_object_executorIS6_EEEENS_19associated_executorIT_T0_E4typeERKSJ_RKSK_PNSt9enable_ifIXsrNS_11is_executorISK_EE5valueEvE4typeE
FN:115,_ZN4asio23get_associated_executorINS_6detail8write_opINS_19basic_stream_socketINS_2ip3tcpENS_8executorEEENS_15const_buffers_1EPKNS_12const_bufferENS1_14transfer_all_tENS1_18write_dynbuf_v1_opIS7_NS_19basic_streambuf_refISaIcEEESC_ZN9SimpleWeb16SocketClientBaseIS7_E10Connection15send_from_queueEvEUlRKSt10error_codemE_EEEENS1_18io_object_executorIS6_EEEENS_19associated_executorIT_T0_E4typeERKSU_RKSV_PNSt9enable_ifIXsrNS_11is_executorISV_EE5valueEvE4typeE
FN:115,_ZN4asio23get_associated_executorIZN9SimpleWeb16SocketClientBaseINS_19basic_stream_socketINS_2ip3tcpENS_8executorEEEE10Connection11set_timeoutElEUlRKSt10error_codeE_NS_6detail18io_object_executorIS6_EEEENS_19associated_executorIT_T0_E4typeERKSI_RKSJ_PNSt9enable_ifIXsrNS_11is_executorISJ_EE5valueEvE4typeE
FN:115,_ZN4asio23get_associated_executorINS_6detail29read_until_delim_string_op_v1INS_19basic_stream_socketINS_2ip3tcpENS_8executorEEENS_19basic_streambuf_refISaIcEEEZZN9SimpleWeb16SocketClientBaseIS7_E7upgradeERKSt10shared_ptrINSD_10ConnectionEEENKUlRKSt10error_codemE_clESL_mEUlSL_mE_EENS1_18io_object_executorIS6_EEEENS_19associated_executorIT_T0_E4typeERKSS_RKST_PNSt9enable_ifIXsrNS_11is_executorIST_EE5valueEvE4typeE
FN:115,_ZN4asio23get_associated_executorINS_6detail17read_dynbuf_v1_opINS_19basic_stream_socketINS_2ip3tcpENS_8executorEEENS_19basic_streambuf_refISaIcEEENS1_18transfer_exactly_tEZN9SimpleWeb16SocketClientBaseIS7_E12read_messageERKSt10shared_ptrINSE_10ConnectionEEmEUlRKSt10error_codemE_EENS1_18io_object_executorIS6_EEEENS_19associated_executorIT_T0_E4typeERKSS_RKST_PNSt9enable_ifIXsrNS_11is_executorIST_EE5valueEvE4typeE
FN:115,_ZN4asio23get_associated_executorINS_6detail17read_dynbuf_v1_opINS_19basic_stream_socketINS_2ip3tcpENS_8executorEEENS_19basic_streambuf_refISaIcEEENS1_18transfer_exactly_tEZZN9SimpleWeb16SocketClientBaseIS7_E12read_messageERKSt10shared_ptrINSE_10ConnectionEEmENKUlRKSt10error_codemE_clESM_mEUlSM_mE_EENS1_18io_object_executorIS6_EEEENS_19associated_executorIT_T0_E4typeERKST_RKSU_PNSt9enable_ifIXsrNS_11is_executorISU_EE5valueEvE4typeE
FNDA:0,_ZN4asio6detail24associated_executor_implIZN9SimpleWeb16SocketClientBaseINS_19basic_stream_socketINS_2ip3tcpENS_8executorEEEE10Connection15send_from_queueEvEUlRKSt10error_codemE_NS0_18io_object_executorIS7_EEvE3getERKSE_RKSG_
FNDA:0,_ZN4asio6detail24associated_executor_implIZN9SimpleWeb16SocketClientBaseINS_19basic_stream_socketINS_2ip3tcpENS_8executorEEEE7upgradeERKSt10shared_ptrINS9_10ConnectionEEEUlRKSt10error_codemE_NS0_18io_object_executorIS7_EEvE3getERKSI_RKSK_
FNDA:0,_ZN4asio6detail24associated_executor_implIZN9SimpleWeb16SocketClientBaseINS_19basic_stream_socketINS_2ip3tcpENS_8executorEEEE20read_message_contentERKSt10shared_ptrINS9_10ConnectionEEmEUlRKSt10error_codemE_NS0_18io_object_executorIS7_EEvE3getERKSI_RKSK_
FNDA:0,_ZN4asio6detail24associated_executor_implIZN9SimpleWeb16SocketClientBaseINS_19basic_stream_socketINS_2ip3tcpENS_8executorEEEE12read_messageERKSt10shared_ptrINS9_10ConnectionEEmEUlRKSt10error_codemE_NS0_18io_object_executorIS7_EEvE3getERKSI_RKSK_
FNDA:0,_ZN4asio6detail24associated_executor_implIZZN9SimpleWeb16SocketClientBaseINS_19basic_stream_socketINS_2ip3tcpENS_8executorEEEE12read_messageERKSt10shared_ptrINS9_10ConnectionEEmENKUlRKSt10error_codemE_clESH_mEUlSH_mE0_NS0_18io_object_executorIS7_EEvE3getERKSJ_RKSL_
FNDA:0,_ZN4asio6detail24associated_executor_implIZZN9SimpleWeb16SocketClientBaseINS_19basic_stream_socketINS_2ip3tcpENS_8executorEEEE12read_messageERKSt10shared_ptrINS9_10ConnectionEEmENKUlRKSt10error_codemE_clESH_mEUlSH_mE_NS0_18io_object_executorIS7_EEvE3getERKSJ_RKSL_
FNDA:0,_ZN4asio6detail24associated_executor_implIZZN9SimpleWeb16SocketClientBaseINS_19basic_stream_socketINS_2ip3tcpENS_8executorEEEE7upgradeERKSt10shared_ptrINS9_10ConnectionEEENKUlRKSt10error_codemE_clESH_mEUlSH_mE_NS0_18io_object_executorIS7_EEvE3getERKSJ_RKSL_
FNDA:0,_ZN4asio6detail24associated_executor_implIZZN9SimpleWeb12SocketClientINS_19basic_stream_socketINS_2ip3tcpENS_8executorEEEE7connectEvENKUlRKSt10error_codeNS5_22basic_resolver_resultsIS6_EEE_clESC_SE_EUlSC_NS5_14basic_endpointIS6_EEE_NS0_18io_object_executorIS7_EEvE3getERKSI_RKSK_
FNDA:0,_ZN4asio6detail24associated_executor_implIZZN9SimpleWeb12SocketClientINS_19basic_stream_socketINS_2ip3tcpENS_8executorEEEE7connectEvENKUlRKSt10error_codeNS5_22basic_resolver_resultsIS6_EEE_clESC_SE_EUlSC_NS5_14basic_endpointIS6_EEE_NS_15system_executorEvE3getERKSI_RKSJ_
FNDA:0,_ZN4asio6detail24associated_executor_implIZN9SimpleWeb12SocketClientINS_19basic_stream_socketINS_2ip3tcpENS_8executorEEEE7connectEvEUlRKSt10error_codeNS5_22basic_resolver_resultsIS6_EEE_NS0_18io_object_executorIS7_EEvE3getERKSF_RKSH_
FNDA:0,_ZN4asio6detail24associated_executor_implIZN9SimpleWeb16SocketClientBaseINS_19basic_stream_socketINS_2ip3tcpENS_8executorEEEE10Connection11set_timeoutElEUlRKSt10error_codeE_NS0_18io_object_executorIS7_EEvE3getERKSE_RKSG_
FNDA:0,_ZN4asio19associated_executorIZN9SimpleWeb16SocketClientBaseINS_19basic_stream_socketINS_2ip3tcpENS_8executorEEEE10Connection15send_from_queueEvEUlRKSt10error_codemE_NS_6detail18io_object_executorIS6_EEE3getERKSD_RKSG_
FNDA:0,_ZN4asio19associated_executorIZN9SimpleWeb16SocketClientBaseINS_19basic_stream_socketINS_2ip3tcpENS_8executorEEEE7upgradeERKSt10shared_ptrINS8_10ConnectionEEEUlRKSt10error_codemE_NS_6detail18io_object_executorIS6_EEE3getERKSH_RKSK_
FNDA:0,_ZN4asio19associated_executorIZN9SimpleWeb16SocketClientBaseINS_19basic_stream_socketINS_2ip3tcpENS_8executorEEEE20read_message_contentERKSt10shared_ptrINS8_10ConnectionEEmEUlRKSt10error_codemE_NS_6detail18io_object_executorIS6_EEE3getERKSH_RKSK_
FNDA:0,_ZN4asio19associated_executorIZN9SimpleWeb16SocketClientBaseINS_19basic_stream_socketINS_2ip3tcpENS_8executorEEEE12read_messageERKSt10shared_ptrINS8_10ConnectionEEmEUlRKSt10error_codemE_NS_6detail18io_object_executorIS6_EEE3getERKSH_RKSK_
FNDA:0,_ZN4asio19associated_executorIZZN9SimpleWeb16SocketClientBaseINS_19basic_stream_socketINS_2ip3tcpENS_8executorEEEE12read_messageERKSt10shared_ptrINS8_10ConnectionEEmENKUlRKSt10error_codemE_clESG_mEUlSG_mE0_NS_6detail18io_object_executorIS6_EEE3getERKSI_RKSL_
FNDA:0,_ZN4asio19associated_executorIZZN9SimpleWeb16SocketClientBaseINS_19basic_stream_socketINS_2ip3tcpENS_8executorEEEE12read_messageERKSt10shared_ptrINS8_10ConnectionEEmENKUlRKSt10error_codemE_clESG_mEUlSG_mE_NS_6detail18io_object_executorIS6_EEE3getERKSI_RKSL_
FNDA:0,_ZN4asio19associated_executorIZZN9SimpleWeb16SocketClientBaseINS_19basic_stream_socketINS_2ip3tcpENS_8executorEEEE7upgradeERKSt10shared_ptrINS8_10ConnectionEEENKUlRKSt10error_codemE_clESG_mEUlSG_mE_NS_6detail18io_object_executorIS6_EEE3getERKSI_RKSL_
FNDA:0,_ZN4asio19associated_executorIZZN9SimpleWeb12SocketClientINS_19basic_stream_socketINS_2ip3tcpENS_8executorEEEE7connectEvENKUlRKSt10error_codeNS4_22basic_resolver_resultsIS5_EEE_clESB_SD_EUlSB_NS4_14basic_endpointIS5_EEE_NS_6detail18io_object_executorIS6_EEE3getERKSH_RKSK_
FNDA:0,_ZN4asio19associated_executorIZZN9SimpleWeb12SocketClientINS_19basic_stream_socketINS_2ip3tcpENS_8executorEEEE7connectEvENKUlRKSt10error_codeNS4_22basic_resolver_resultsIS5_EEE_clESB_SD_EUlSB_NS4_14basic_endpointIS5_EEE_NS_15system_executorEE3getERKSH_RKSI_
FNDA:0,_ZN4asio19associated_executorIZN9SimpleWeb12SocketClientINS_19basic_stream_socketINS_2ip3tcpENS_8executorEEEE7connectEvEUlRKSt10error_codeNS4_22basic_resolver_resultsIS5_EEE_NS_6detail18io_object_executorIS6_EEE3getERKSE_RKSH_
FNDA:0,_ZN4asio19associated_executorIZN9SimpleWeb16SocketClientBaseINS_19basic_stream_socketINS_2ip3tcpENS_8executorEEEE10Connection11set_timeoutElEUlRKSt10error_codeE_NS_6detail18io_object_executorIS6_EEE3getERKSD_RKSG_
FNDA:0,_ZN4asio23get_associated_executorINS_6detail7binder1INS1_16range_connect_opINS_2ip3tcpENS_8executorENS4_22basic_resolver_resultsIS5_EENS1_25default_connect_conditionEZZN9SimpleWeb12SocketClientINS_19basic_stream_socketIS5_S6_EEE7connectEvENKUlRKSt10error_codeS8_E_clESH_S8_EUlSH_NS4_14basic_endpointIS5_EEE_EESF_EEEENS_19associated_executorIT_NS_15system_executorEE4typeERKSP_
FNDA:0,_ZN4asio23get_associated_executorINS_6detail8write_opINS_19basic_stream_socketINS_2ip3tcpENS_8executorEEENS_15const_buffers_1EPKNS_12const_bufferENS1_14transfer_all_tENS1_18write_dynbuf_v1_opIS7_NS_19basic_streambuf_refISaIcEEESC_ZN9SimpleWeb16SocketClientBaseIS7_E10Connection15send_from_queueEvEUlRKSt10error_codemE_EEEENS1_18io_object_executorIS6_EEEENS_19associated_executorIT_T0_E4typeERKSU_RKSV_PNSt9enable_ifIXsrNS_11is_executorISV_EE5valueEvE4typeE
FNDA:0,_ZN4asio23get_associated_executorINS_6detail8write_opINS_19basic_stream_socketINS_2ip3tcpENS_8executorEEENS_15const_buffers_1EPKNS_12const_bufferENS1_14transfer_all_tENS1_18write_dynbuf_v1_opIS7_NS_19basic_streambuf_refISaIcEEESC_ZN9SimpleWeb16SocketClientBaseIS7_E7upgradeERKSt10shared_ptrINSJ_10ConnectionEEEUlRKSt10error_codemE_EEEENS1_18io_object_executorIS6_EEEENS_19associated_executorIT_T0_E4typeERKSY_RKSZ_PNSt9enable_ifIXsrNS_11is_executorISZ_EE5valueEvE4typeE
FNDA:0,_ZN4asio23get_associated_executorINS_6detail17read_dynbuf_v1_opINS_19basic_stream_socketINS_2ip3tcpENS_8executorEEENS_19basic_streambuf_refISaIcEEENS1_18transfer_exactly_tEZN9SimpleWeb16SocketClientBaseIS7_E20read_message_contentERKSt10shared_ptrINSE_10ConnectionEEmEUlRKSt10error_codemE_EENS1_18io_object_executorIS6_EEEENS_19associated_executorIT_T0_E4typeERKSS_RKST_PNSt9enable_ifIXsrNS_11is_executorIST_EE5valueEvE4typeE
FNDA:0,_ZN4asio23get_associated_executorINS_6detail17read_dynbuf_v1_opINS_19basic_stream_socketINS_2ip3tcpENS_8executorEEENS_19basic_streambuf_refISaIcEEENS1_18transfer_exactly_tEZN9SimpleWeb16SocketClientBaseIS7_E12read_messageERKSt10shared_ptrINSE_10ConnectionEEmEUlRKSt10error_codemE_EENS1_18io_object_executorIS6_EEEENS_19associated_executorIT_T0_E4typeERKSS_RKST_PNSt9enable_ifIXsrNS_11is_executorIST_EE5valueEvE4typeE
FNDA:0,_ZN4asio23get_associated_executorINS_6detail17read_dynbuf_v1_opINS_19basic_stream_socketINS_2ip3tcpENS_8executorEEENS_19basic_streambuf_refISaIcEEENS1_18transfer_exactly_tEZZN9SimpleWeb16SocketClientBaseIS7_E12read_messageERKSt10shared_ptrINSE_10ConnectionEEmENKUlRKSt10error_codemE_clESM_mEUlSM_mE0_EENS1_18io_object_executorIS6_EEEENS_19associated_executorIT_T0_E4typeERKST_RKSU_PNSt9enable_ifIXsrNS_11is_executorISU_EE5valueEvE4typeE
FNDA:0,_ZN4asio23get_associated_executorINS_6detail17read_dynbuf_v1_opINS_19basic_stream_socketINS_2ip3tcpENS_8executorEEENS_19basic_streambuf_refISaIcEEENS1_18transfer_exactly_tEZZN9SimpleWeb16SocketClientBaseIS7_E12read_messageERKSt10shared_ptrINSE_10ConnectionEEmENKUlRKSt10error_codemE_clESM_mEUlSM_mE_EENS1_18io_object_executorIS6_EEEENS_19associated_executorIT_T0_E4typeERKST_RKSU_PNSt9enable_ifIXsrNS_11is_executorISU_EE5valueEvE4typeE
FNDA:0,_ZN4asio23get_associated_executorINS_6detail29read_until_delim_string_op_v1INS_19basic_stream_socketINS_2ip3tcpENS_8executorEEENS_19basic_streambuf_refISaIcEEEZZN9SimpleWeb16SocketClientBaseIS7_E7upgradeERKSt10shared_ptrINSD_10ConnectionEEENKUlRKSt10error_codemE_clESL_mEUlSL_mE_EENS1_18io_object_executorIS6_EEEENS_19associated_executorIT_T0_E4typeERKSS_RKST_PNSt9enable_ifIXsrNS_11is_executorIST_EE5valueEvE4typeE
FNDA:0,_ZN4asio23get_associated_executorINS_6detail16range_connect_opINS_2ip3tcpENS_8executorENS3_22basic_resolver_resultsIS4_EENS1_25default_connect_conditionEZZN9SimpleWeb12SocketClientINS_19basic_stream_socketIS4_S5_EEE7connectEvENKUlRKSt10error_codeS7_E_clESG_S7_EUlSG_NS3_14basic_endpointIS4_EEE_EENS1_18io_object_executorIS5_EEEENS_19associated_executorIT_T0_E4typeERKSP_RKSQ_PNSt9enable_ifIXsrNS_11is_executorISQ_EE5valueEvE4typeE
FNDA:0,_ZN4asio23get_associated_executorIZN9SimpleWeb12SocketClientINS_19basic_stream_socketINS_2ip3tcpENS_8executorEEEE7connectEvEUlRKSt10error_codeNS4_22basic_resolver_resultsIS5_EEE_NS_6detail18io_object_executorIS6_EEEENS_19associated_executorIT_T0_E4typeERKSJ_RKSK_PNSt9enable_ifIXsrNS_11is_executorISK_EE5valueEvE4typeE
FNDA:0,_ZN4asio23get_associated_executorIZN9SimpleWeb16SocketClientBaseINS_19basic_stream_socketINS_2ip3tcpENS_8executorEEEE10Connection11set_timeoutElEUlRKSt10error_codeE_NS_6detail18io_object_executorIS6_EEEENS_19associated_executorIT_T0_E4typeERKSI_RKSJ_PNSt9enable_ifIXsrNS_11is_executorISJ_EE5valueEvE4typeE
FNF:33
FNH:0
DA:39,0
DA:41,0
DA:91,0
DA:94,0
DA:104,0
DA:106,0
DA:115,0
DA:119,0
LF:8
LH:0
end_of_record
SF:/home/tistrauss/.conan/data/asio/1.13.0/_/_/package/5ab84d6acfe1f23c4fae0ab88f26e3a396351ac9/include/asio/async_result.hpp
FN:76,_ZN4asio12async_resultIZN9SimpleWeb16SocketClientBaseINS_19basic_stream_socketINS_2ip3tcpENS_8executorEEEE20read_message_contentERKSt10shared_ptrINS8_10ConnectionEEmEUlRKSt10error_codemE_FvSE_mEE8initiateINS_6detail29initiate_async_read_dynbuf_v1ESH_JPS7_NS_19basic_streambuf_refISaIcEEENSL_18transfer_exactly_tEEEEvOT_OT0_DpOT1_
FN:76,_ZN4asio12async_resultINS_6detail17read_dynbuf_v1_opINS_19basic_stream_socketINS_2ip3tcpENS_8executorEEENS_19basic_streambuf_refISaIcEEENS1_18transfer_exactly_tEZZN9SimpleWeb16SocketClientBaseIS7_E12read_messageERKSt10shared_ptrINSE_10ConnectionEEmENKUlRKSt10error_codemE_clESM_mEUlSM_mE_EEFvSK_mEE8initiateINS7_22initiate_async_receiveESP_JPS7_RKNS_17mutable_buffers_1EiEEEvOT_OT0_DpOT1_
FN:76,_ZN4asio12async_resultINS_6detail17read_dynbuf_v1_opINS_19basic_stream_socketINS_2ip3tcpENS_8executorEEENS_19basic_streambuf_refISaIcEEENS1_18transfer_exactly_tEZN9SimpleWeb16SocketClientBaseIS7_E12read_messageERKSt10shared_ptrINSE_10ConnectionEEmEUlRKSt10error_codemE_EEFvSK_mEE8initiateINS7_22initiate_async_receiveESO_JPS7_RKNS_17mutable_buffers_1EiEEEvOT_OT0_DpOT1_
FN:76,_ZN4asio12async_resultINS_6detail29read_until_delim_string_op_v1INS_19basic_stream_socketINS_2ip3tcpENS_8executorEEENS_19basic_streambuf_refISaIcEEEZZN9SimpleWeb16SocketClientBaseIS7_E7upgradeERKSt10shared_ptrINSD_10ConnectionEEENKUlRKSt10error_codemE_clESL_mEUlSL_mE_EEFvSJ_mEE8initiateINS7_22initiate_async_receiveESO_JPS7_RKNS_17mutable_buffers_1EiEEEvOT_OT0_DpOT1_
FN:76,_ZN4asio12async_resultINS_6detail17read_dynbuf_v1_opINS_19basic_stream_socketINS_2ip3tcpENS_8executorEEENS_19basic_streambuf_refISaIcEEENS1_18transfer_exactly_tEZZN9SimpleWeb16SocketClientBaseIS7_E12read_messageERKSt10shared_ptrINSE_10ConnectionEEmENKUlRKSt10error_codemE_clESM_mEUlSM_mE0_EEFvSK_mEE8initiateINS7_22initiate_async_receiveESP_JPS7_RKNS_17mutable_buffers_1EiEEEvOT_OT0_DpOT1_
FN:76,_ZN4asio12async_resultIZZN9SimpleWeb16SocketClientBaseINS_19basic_stream_socketINS_2ip3tcpENS_8executorEEEE12read_messageERKSt10shared_ptrINS8_10ConnectionEEmENKUlRKSt10error_codemE_clESG_mEUlSG_mE_FvSE_mEE8initiateINS_6detail29initiate_async_read_dynbuf_v1ESI_JPS7_NS_19basic_streambuf_refISaIcEEENSM_18transfer_exactly_tEEEEvOT_OT0_DpOT1_
FN:76,_ZN4asio12async_resultIZN9SimpleWeb16SocketClientBaseINS_19basic_stream_socketINS_2ip3tcpENS_8executorEEEE10Connection15send_from_queueEvEUlRKSt10error_codemE_FvSA_mEE8initiateINS_6detail30initiate_async_write_dynbuf_v1ESD_JPS7_NS_19basic_streambuf_refISaIcEEENSH_14transfer_all_tEEEEvOT_OT0_DpOT1_
FN:76,_ZN4asio12async_resultIZZN9SimpleWeb16SocketClientBaseINS_19basic_stream_socketINS_2ip3tcpENS_8executorEEEE7upgradeERKSt10shared_ptrINS8_10ConnectionEEENKUlRKSt10error_codemE_clESG_mEUlSG_mE_FvSE_mEE8initiateINS_6detail41initiate_async_read_until_delim_string_v1ESI_JPS7_NS_19basic_streambuf_refISaIcEEENSt7__cxx1112basic_stringIcSt11char_traitsIcESQ_EEEEEvOT_OT0_DpOT1_
FN:76,_ZN4asio12async_resultINS_6detail18write_dynbuf_v1_opINS_19basic_stream_socketINS_2ip3tcpENS_8executorEEENS_19basic_streambuf_refISaIcEEENS1_14transfer_all_tEZN9SimpleWeb16SocketClientBaseIS7_E7upgradeERKSt10shared_ptrINSE_10ConnectionEEEUlRKSt10error_codemE_EEFvSK_mEE8initiateINS1_36initiate_async_write_buffer_sequenceESO_JPS7_RKNS_15const_buffers_1ESB_EEEvOT_OT0_DpOT1_
FN:76,_ZN4asio12async_resultINS_6detail17read_dynbuf_v1_opINS_19basic_stream_socketINS_2ip3tcpENS_8executorEEENS_19basic_streambuf_refISaIcEEENS1_18transfer_exactly_tEZN9SimpleWeb16SocketClientBaseIS7_E20read_message_contentERKSt10shared_ptrINSE_10ConnectionEEmEUlRKSt10error_codemE_EEFvSK_mEE8initiateINS7_22initiate_async_receiveESO_JPS7_RKNS_17mutable_buffers_1EiEEEvOT_OT0_DpOT1_
FN:76,_ZN4asio12async_resultIZN9SimpleWeb16SocketClientBaseINS_19basic_stream_socketINS_2ip3tcpENS_8executorEEEE7upgradeERKSt10shared_ptrINS8_10ConnectionEEEUlRKSt10error_codemE_FvSE_mEE8initiateINS_6detail30initiate_async_write_dynbuf_v1ESH_JPS7_NS_19basic_streambuf_refISaIcEEENSL_14transfer_all_tEEEEvOT_OT0_DpOT1_
FN:76,_ZN4asio12async_resultINS_6detail8write_opINS_19basic_stream_socketINS_2ip3tcpENS_8executorEEENS_15const_buffers_1EPKNS_12const_bufferENS1_14transfer_all_tENS1_18write_dynbuf_v1_opIS7_NS_19basic_streambuf_refISaIcEEESC_ZN9SimpleWeb16SocketClientBaseIS7_E10Connection15send_from_queueEvEUlRKSt10error_codemE_EEEEFvSL_mEE8initiateINS7_19initiate_async_sendESQ_JPS7_RKS8_iEEEvOT_OT0_DpOT1_
FN:76,_ZN4asio12async_resultIZZN9SimpleWeb16SocketClientBaseINS_19basic_stream_socketINS_2ip3tcpENS_8executorEEEE12read_messageERKSt10shared_ptrINS8_10ConnectionEEmENKUlRKSt10error_codemE_clESG_mEUlSG_mE0_FvSE_mEE8initiateINS_6detail29initiate_async_read_dynbuf_v1ESI_JPS7_NS_19basic_streambuf_refISaIcEEENSM_18transfer_exactly_tEEEEvOT_OT0_DpOT1_
FN:76,_ZN4asio12async_resultINS_6detail7binder1INS1_16range_connect_opINS_2ip3tcpENS_8executorENS4_22basic_resolver_resultsIS5_EENS1_25default_connect_conditionEZZN9SimpleWeb12SocketClientINS_19basic_stream_socketIS5_S6_EEE7connectEvENKUlRKSt10error_codeS8_E_clESH_S8_EUlSH_NS4_14basic_endpointIS5_EEE_EESF_EEFvvEE8initiateINS1_13initiate_postESN_JRKS6_EEEvOT_OT0_DpOT1_
FN:76,_ZN4asio12async_resultIZN9SimpleWeb12SocketClientINS_19basic_stream_socketINS_2ip3tcpENS_8executorEEEE7connectEvEUlRKSt10error_codeNS4_22basic_resolver_resultsIS5_EEE_FvS9_SD_EE8initiateINS4_14basic_resolverIS5_S6_E22initiate_async_resolveESE_JPSJ_RNS4_20basic_resolver_queryIS5_EEEEEvOT_OT0_DpOT1_
FN:76,_ZN4asio12async_resultIZN9SimpleWeb16SocketClientBaseINS_19basic_stream_socketINS_2ip3tcpENS_8executorEEEE12read_messageERKSt10shared_ptrINS8_10ConnectionEEmEUlRKSt10error_codemE_FvSE_mEE8initiateINS_6detail29initiate_async_read_dynbuf_v1ESH_JPS7_NS_19basic_streambuf_refISaIcEEENSL_18transfer_exactly_tEEEEvOT_OT0_DpOT1_
FN:76,_ZN4asio12async_resultIZN9SimpleWeb16SocketClientBaseINS_19basic_stream_socketINS_2ip3tcpENS_8executorEEEE10Connection11set_timeoutElEUlRKSt10error_codeE_FvSA_EE8initiateINS_20basic_waitable_timerINSt6chrono3_V212steady_clockENS_11wait_traitsISK_EES6_E19initiate_async_waitESD_JPSN_EEEvOT_OT0_DpOT1_
FN:76,_ZN4asio12async_resultINS_6detail18write_dynbuf_v1_opINS_19basic_stream_socketINS_2ip3tcpENS_8executorEEENS_19basic_streambuf_refISaIcEEENS1_14transfer_all_tEZN9SimpleWeb16SocketClientBaseIS7_E10Connection15send_from_queueEvEUlRKSt10error_codemE_EEFvSG_mEE8initiateINS1_36initiate_async_write_buffer_sequenceESK_JPS7_RKNS_15const_buffers_1ESB_EEEvOT_OT0_DpOT1_
FN:76,_ZN4asio12async_resultIZZN9SimpleWeb12SocketClientINS_19basic_stream_socketINS_2ip3tcpENS_8executorEEEE7connectEvENKUlRKSt10error_codeNS4_22basic_resolver_resultsIS5_EEE_clESB_SD_EUlSB_NS4_14basic_endpointIS5_EEE_FvS9_SG_EE8initiateINS_6detail28initiate_async_range_connectESH_JPNS_12basic_socketIS5_S6_EERKSD_NSL_25default_connect_conditionEEEEvOT_OT0_DpOT1_
FN:76,_ZN4asio12async_resultINS_6detail16range_connect_opINS_2ip3tcpENS_8executorENS3_22basic_resolver_resultsIS4_EENS1_25default_connect_conditionEZZN9SimpleWeb12SocketClientINS_19basic_stream_socketIS4_S5_EEE7connectEvENKUlRKSt10error_codeS7_E_clESG_S7_EUlSG_NS3_14basic_endpointIS4_EEE_EEFvSE_EE8initiateINS_12basic_socketIS4_S5_E22initiate_async_connectESL_JPSQ_RKSJ_RSE_EEEvOT_OT0_DpOT1_
FN:76,_ZN4asio12async_resultINS_6detail8write_opINS_19basic_stream_socketINS_2ip3tcpENS_8executorEEENS_15const_buffers_1EPKNS_12const_bufferENS1_14transfer_all_tENS1_18write_dynbuf_v1_opIS7_NS_19basic_streambuf_refISaIcEEESC_ZN9SimpleWeb16SocketClientBaseIS7_E7upgradeERKSt10shared_ptrINSJ_10ConnectionEEEUlRKSt10error_codemE_EEEEFvSP_mEE8initiateINS7_19initiate_async_sendESU_JPS7_RKS8_iEEEvOT_OT0_DpOT1_
FN:251,_ZN4asio14async_initiateIZN9SimpleWeb16SocketClientBaseINS_19basic_stream_socketINS_2ip3tcpENS_8executorEEEE10Connection15send_from_queueEvEUlRKSt10error_codemE_FvSA_mENS_6detail30initiate_async_write_dynbuf_v1EJPS7_NS_19basic_streambuf_refISaIcEEENSF_14transfer_all_tEEEENSt9enable_ifIXsrNSF_31async_result_has_initiate_memfnIT_T0_EE5valueENS_12async_resultINSt5decayISO_E4typeESP_E11return_typeEE4typeEOT1_RSO_DpOT2_
FN:251,_ZN4asio14async_initiateINS_6detail8write_opINS_19basic_stream_socketINS_2ip3tcpENS_8executorEEENS_15const_buffers_1EPKNS_12const_bufferENS1_14transfer_all_tENS1_18write_dynbuf_v1_opIS7_NS_19basic_streambuf_refISaIcEEESC_ZN9SimpleWeb16SocketClientBaseIS7_E7upgradeERKSt10shared_ptrINSJ_10ConnectionEEEUlRKSt10error_codemE_EEEEFvSP_mENS7_19initiate_async_sendEJPS7_RKS8_iEEENSt9enable_ifIXsrNS1_31async_result_has_initiate_memfnIT_T0_EE5valueENS_12async_resultINSt5decayIS12_E4typeES13_E11return_typeEE4typeEOT1_RS12_DpOT2_
FN:251,_ZN4asio14async_initiateIZN9SimpleWeb16SocketClientBaseINS_19basic_stream_socketINS_2ip3tcpENS_8executorEEEE7upgradeERKSt10shared_ptrINS8_10ConnectionEEEUlRKSt10error_codemE_FvSE_mENS_6detail30initiate_async_write_dynbuf_v1EJPS7_NS_19basic_streambuf_refISaIcEEENSJ_14transfer_all_tEEEENSt9enable_ifIXsrNSJ_31async_result_has_initiate_memfnIT_T0_EE5valueENS_12async_resultINSt5decayISS_E4typeEST_E11return_typeEE4typeEOT1_RSS_DpOT2_
FN:251,_ZN4asio14async_initiateINS_6detail29read_until_delim_string_op_v1INS_19basic_stream_socketINS_2ip3tcpENS_8executorEEENS_19basic_streambuf_refISaIcEEEZZN9SimpleWeb16SocketClientBaseIS7_E7upgradeERKSt10shared_ptrINSD_10ConnectionEEENKUlRKSt10error_codemE_clESL_mEUlSL_mE_EEFvSJ_mENS7_22initiate_async_receiveEJPS7_RKNS_17mutable_buffers_1EiEEENSt9enable_ifIXsrNS1_31async_result_has_initiate_memfnIT_T0_EE5valueENS_12async_resultINSt5decayISX_E4typeESY_E11return_typeEE4typeEOT1_RSX_DpOT2_
FN:251,_ZN4asio14async_initiateINS_6detail16range_connect_opINS_2ip3tcpENS_8executorENS3_22basic_resolver_resultsIS4_EENS1_25default_connect_conditionEZZN9SimpleWeb12SocketClientINS_19basic_stream_socketIS4_S5_EEE7connectEvENKUlRKSt10error_codeS7_E_clESG_S7_EUlSG_NS3_14basic_endpointIS4_EEE_EEFvSE_ENS_12basic_socketIS4_S5_E22initiate_async_connectEJPSO_RKSJ_RSE_EEENSt9enable_ifIXsrNS1_31async_result_has_initiate_memfnIT_T0_EE5valueENS_12async_resultINSt5decayISW_E4typeESX_E11return_typeEE4typeEOT1_RSW_DpOT2_
FN:251,_ZN4asio14async_initiateIZZN9SimpleWeb12SocketClientINS_19basic_stream_socketINS_2ip3tcpENS_8executorEEEE7connectEvENKUlRKSt10error_codeNS4_22basic_resolver_resultsIS5_EEE_clESB_SD_EUlSB_NS4_14basic_endpointIS5_EEE_FvS9_SG_ENS_6detail28initiate_async_range_connectEJPNS_12basic_socketIS5_S6_EERKSD_NSJ_25default_connect_conditionEEEENSt9enable_ifIXsrNSJ_31async_result_has_initiate_memfnIT_T0_EE5valueENS_12async_resultINSt5decayIST_E4typeESU_E11return_typeEE4typeEOT1_RST_DpOT2_
FN:251,_ZN4asio14async_initiateINS_6detail18write_dynbuf_v1_opINS_19basic_stream_socketINS_2ip3tcpENS_8executorEEENS_19basic_streambuf_refISaIcEEENS1_14transfer_all_tEZN9SimpleWeb16SocketClientBaseIS7_E10Connection15send_from_queueEvEUlRKSt10error_codemE_EEFvSG_mENS1_36initiate_async_write_buffer_sequenceEJPS7_RKNS_15const_buffers_1ESB_EEENSt9enable_ifIXsrNS1_31async_result_has_initiate_memfnIT_T0_EE5valueENS_12async_resultINSt5decayIST_E4typeESU_E11return_typeEE4typeEOT1_RST_DpOT2_
FN:251,_ZN4asio14async_initiateIZZN9SimpleWeb16SocketClientBaseINS_19basic_stream_socketINS_2ip3tcpENS_8executorEEEE12read_messageERKSt10shared_ptrINS8_10ConnectionEEmENKUlRKSt10error_codemE_clESG_mEUlSG_mE0_FvSE_mENS_6detail29initiate_async_read_dynbuf_v1EJPS7_NS_19basic_streambuf_refISaIcEEENSK_18transfer_exactly_tEEEENSt9enable_ifIXsrNSK_31async_result_has_initiate_memfnIT_T0_EE5valueENS_12async_resultINSt5decayIST_E4typeESU_E11return_typeEE4typeEOT1_RST_DpOT2_
FN:251,_ZN4asio14async_initiateIZN9SimpleWeb16SocketClientBaseINS_19basic_stream_socketINS_2ip3tcpENS_8executorEEEE20read_message_contentERKSt10shared_ptrINS8_10ConnectionEEmEUlRKSt10error_codemE_FvSE_mENS_6detail29initiate_async_read_dynbuf_v1EJPS7_NS_19basic_streambuf_refISaIcEEENSJ_18transfer_exactly_tEEEENSt9enable_ifIXsrNSJ_31async_result_has_initiate_memfnIT_T0_EE5valueENS_12async_resultINSt5decayISS_E4typeEST_E11return_typeEE4typeEOT1_RSS_DpOT2_
FN:251,_ZN4asio14async_initiateIZZN9SimpleWeb16SocketClientBaseINS_19basic_stream_socketINS_2ip3tcpENS_8executorEEEE12read_messageERKSt10shared_ptrINS8_10ConnectionEEmENKUlRKSt10error_codemE_clESG_mEUlSG_mE_FvSE_mENS_6detail29initiate_async_read_dynbuf_v1EJPS7_NS_19basic_streambuf_refISaIcEEENSK_18transfer_exactly_tEEEENSt9enable_ifIXsrNSK_31async_result_has_initiate_memfnIT_T0_EE5valueENS_12async_resultINSt5decayIST_E4typeESU_E11return_typeEE4typeEOT1_RST_DpOT2_
FN:251,_ZN4asio14async_initiateIZN9SimpleWeb16SocketClientBaseINS_19basic_stream_socketINS_2ip3tcpENS_8executorEEEE10Connection11set_timeoutElEUlRKSt10error_codeE_FvSA_ENS_20basic_waitable_timerINSt6chrono3_V212steady_clockENS_11wait_traitsISI_EES6_E19initiate_async_waitEJPSL_EEENSt9enable_ifIXsrNS_6detail31async_result_has_initiate_memfnIT_T0_EE5valueENS_12async_resultINSt5decayISR_E4typeESS_E11return_typeEE4typeEOT1_RSR_DpOT2_
FN:251,_ZN4asio14async_initiateIZN9SimpleWeb16SocketClientBaseINS_19basic_stream_socketINS_2ip3tcpENS_8executorEEEE12read_messageERKSt10shared_ptrINS8_10ConnectionEEmEUlRKSt10error_codemE_FvSE_mENS_6detail29initiate_async_read_dynbuf_v1EJPS7_NS_19basic_streambuf_refISaIcEEENSJ_18transfer_exactly_tEEEENSt9enable_ifIXsrNSJ_31async_result_has_initiate_memfnIT_T0_EE5valueENS_12async_resultINSt5decayISS_E4typeEST_E11return_typeEE4typeEOT1_RSS_DpOT2_
FN:251,_ZN4asio14async_initiateINS_6detail17read_dynbuf_v1_opINS_19basic_stream_socketINS_2ip3tcpENS_8executorEEENS_19basic_streambuf_refISaIcEEENS1_18transfer_exactly_tEZN9SimpleWeb16SocketClientBaseIS7_E20read_message_contentERKSt10shared_ptrINSE_10ConnectionEEmEUlRKSt10error_codemE_EEFvSK_mENS7_22initiate_async_receiveEJPS7_RKNS_17mutable_buffers_1EiEEENSt9enable_ifIXsrNS1_31async_result_has_initiate_memfnIT_T0_EE5valueENS_12async_resultINSt5decayISX_E4typeESY_E11return_typeEE4typeEOT1_RSX_DpOT2_
FN:251,_ZN4asio14async_initiateINS_6detail17read_dynbuf_v1_opINS_19basic_stream_socketINS_2ip3tcpENS_8executorEEENS_19basic_streambuf_refISaIcEEENS1_18transfer_exactly_tEZZN9SimpleWeb16SocketClientBaseIS7_E12read_messageERKSt10shared_ptrINSE_10ConnectionEEmENKUlRKSt10error_codemE_clESM_mEUlSM_mE0_EEFvSK_mENS7_22initiate_async_receiveEJPS7_RKNS_17mutable_buffers_1EiEEENSt9enable_ifIXsrNS1_31async_result_has_initiate_memfnIT_T0_EE5valueENS_12async_resultINSt5decayISY_E4typeESZ_E11return_typeEE4typeEOT1_RSY_DpOT2_
FN:251,_ZN4asio14async_initiateINS_6detail8write_opINS_19basic_stream_socketINS_2ip3tcpENS_8executorEEENS_15const_buffers_1EPKNS_12const_bufferENS1_14transfer_all_tENS1_18write_dynbuf_v1_opIS7_NS_19basic_streambuf_refISaIcEEESC_ZN9SimpleWeb16SocketClientBaseIS7_E10Connection15send_from_queueEvEUlRKSt10error_codemE_EEEEFvSL_mENS7_19initiate_async_sendEJPS7_RKS8_iEEENSt9enable_ifIXsrNS1_31async_result_has_initiate_memfnIT_T0_EE5valueENS_12async_resultINSt5decayISY_E4typeESZ_E11return_typeEE4typeEOT1_RSY_DpOT2_
FN:251,_ZN4asio14async_initiateINS_6detail17read_dynbuf_v1_opINS_19basic_stream_socketINS_2ip3tcpENS_8executorEEENS_19basic_streambuf_refISaIcEEENS1_18transfer_exactly_tEZN9SimpleWeb16SocketClientBaseIS7_E12read_messageERKSt10shared_ptrINSE_10ConnectionEEmEUlRKSt10error_codemE_EEFvSK_mENS7_22initiate_async_receiveEJPS7_RKNS_17mutable_buffers_1EiEEENSt9enable_ifIXsrNS1_31async_result_has_initiate_memfnIT_T0_EE5valueENS_12async_resultINSt5decayISX_E4typeESY_E11return_typeEE4typeEOT1_RSX_DpOT2_
FN:251,_ZN4asio14async_initiateIZZN9SimpleWeb16SocketClientBaseINS_19basic_stream_socketINS_2ip3tcpENS_8executorEEEE7upgradeERKSt10shared_ptrINS8_10ConnectionEEENKUlRKSt10error_codemE_clESG_mEUlSG_mE_FvSE_mENS_6detail41initiate_async_read_until_delim_string_v1EJPS7_NS_19basic_streambuf_refISaIcEEENSt7__cxx1112basic_stringIcSt11char_traitsIcESO_EEEEENSt9enable_ifIXsrNSK_31async_result_has_initiate_memfnIT_T0_EE5valueENS_12async_resultINSt5decayISX_E4typeESY_E11return_typeEE4typeEOT1_RSX_DpOT2_
FN:251,_ZN4asio14async_initiateINS_6detail17read_dynbuf_v1_opINS_19basic_stream_socketINS_2ip3tcpENS_8executorEEENS_19basic_streambuf_refISaIcEEENS1_18transfer_exactly_tEZZN9SimpleWeb16SocketClientBaseIS7_E12read_messageERKSt10shared_ptrINSE_10ConnectionEEmENKUlRKSt10error_codemE_clESM_mEUlSM_mE_EEFvSK_mENS7_22initiate_async_receiveEJPS7_RKNS_17mutable_buffers_1EiEEENSt9enable_ifIXsrNS1_31async_result_has_initiate_memfnIT_T0_EE5valueENS_12async_resultINSt5decayISY_E4typeESZ_E11return_typeEE4typeEOT1_RSY_DpOT2_
FN:251,_ZN4asio14async_initiateINS_6detail18write_dynbuf_v1_opINS_19basic_stream_socketINS_2ip3tcpENS_8executorEEENS_19basic_streambuf_refISaIcEEENS1_14transfer_all_tEZN9SimpleWeb16SocketClientBaseIS7_E7upgradeERKSt10shared_ptrINSE_10ConnectionEEEUlRKSt10error_codemE_EEFvSK_mENS1_36initiate_async_write_buffer_sequenceEJPS7_RKNS_15const_buffers_1ESB_EEENSt9enable_ifIXsrNS1_31async_result_has_initiate_memfnIT_T0_EE5valueENS_12async_resultINSt5decayISX_E4typeESY_E11return_typeEE4typeEOT1_RSX_DpOT2_
FN:251,_ZN4asio14async_initiateINS_6detail7binder1INS1_16range_connect_opINS_2ip3tcpENS_8executorENS4_22basic_resolver_resultsIS5_EENS1_25default_connect_conditionEZZN9SimpleWeb12SocketClientINS_19basic_stream_socketIS5_S6_EEE7connectEvENKUlRKSt10error_codeS8_E_clESH_S8_EUlSH_NS4_14basic_endpointIS5_EEE_EESF_EEFvvENS1_13initiate_postEJRKS6_EEENSt9enable_ifIXsrNS1_31async_result_has_initiate_memfnIT_T0_EE5valueENS_12async_resultINSt5decayISU_E4typeESV_E11return_typeEE4typeEOT1_RSU_DpOT2_
FN:251,_ZN4asio14async_initiateIZN9SimpleWeb12SocketClientINS_19basic_stream_socketINS_2ip3tcpENS_8executorEEEE7connectEvEUlRKSt10error_codeNS4_22basic_resolver_resultsIS5_EEE_FvS9_SD_ENS4_14basic_resolverIS5_S6_E22initiate_async_resolveEJPSH_RNS4_20basic_resolver_queryIS5_EEEEENSt9enable_ifIXsrNS_6detail31async_result_has_initiate_memfnIT_T0_EE5valueENS_12async_resultINSt5decayISQ_E4typeESR_E11return_typeEE4typeEOT1_RSQ_DpOT2_
FNDA:0,_ZN4asio12async_resultINS_6detail8write_opINS_19basic_stream_socketINS_2ip3tcpENS_8executorEEENS_15const_buffers_1EPKNS_12const_bufferENS1_14transfer_all_tENS1_18write_dynbuf_v1_opIS7_NS_19basic_streambuf_refISaIcEEESC_ZN9SimpleWeb16SocketClientBaseIS7_E10Connection15send_from_queueEvEUlRKSt10error_codemE_EEEEFvSL_mEE8initiateINS7_19initiate_async_sendESQ_JPS7_RKS8_iEEEvOT_OT0_DpOT1_
FNDA:0,_ZN4asio12async_resultINS_6detail8write_opINS_19basic_stream_socketINS_2ip3tcpENS_8executorEEENS_15const_buffers_1EPKNS_12const_bufferENS1_14transfer_all_tENS1_18write_dynbuf_v1_opIS7_NS_19basic_streambuf_refISaIcEEESC_ZN9SimpleWeb16SocketClientBaseIS7_E7upgradeERKSt10shared_ptrINSJ_10ConnectionEEEUlRKSt10error_codemE_EEEEFvSP_mEE8initiateINS7_19initiate_async_sendESU_JPS7_RKS8_iEEEvOT_OT0_DpOT1_
FNDA:0,_ZN4asio12async_resultINS_6detail18write_dynbuf_v1_opINS_19basic_stream_socketINS_2ip3tcpENS_8executorEEENS_19basic_streambuf_refISaIcEEENS1_14transfer_all_tEZN9SimpleWeb16SocketClientBaseIS7_E10Connection15send_from_queueEvEUlRKSt10error_codemE_EEFvSG_mEE8initiateINS1_36initiate_async_write_buffer_sequenceESK_JPS7_RKNS_15const_buffers_1ESB_EEEvOT_OT0_DpOT1_
FNDA:0,_ZN4asio12async_resultINS_6detail17read_dynbuf_v1_opINS_19basic_stream_socketINS_2ip3tcpENS_8executorEEENS_19basic_streambuf_refISaIcEEENS1_18transfer_exactly_tEZN9SimpleWeb16SocketClientBaseIS7_E20read_message_contentERKSt10shared_ptrINSE_10ConnectionEEmEUlRKSt10error_codemE_EEFvSK_mEE8initiateINS7_22initiate_async_receiveESO_JPS7_RKNS_17mutable_buffers_1EiEEEvOT_OT0_DpOT1_
FNDA:0,_ZN4asio12async_resultINS_6detail18write_dynbuf_v1_opINS_19basic_stream_socketINS_2ip3tcpENS_8executorEEENS_19basic_streambuf_refISaIcEEENS1_14transfer_all_tEZN9SimpleWeb16SocketClientBaseIS7_E7upgradeERKSt10shared_ptrINSE_10ConnectionEEEUlRKSt10error_codemE_EEFvSK_mEE8initiateINS1_36initiate_async_write_buffer_sequenceESO_JPS7_RKNS_15const_buffers_1ESB_EEEvOT_OT0_DpOT1_
FNDA:0,_ZN4asio12async_resultINS_6detail17read_dynbuf_v1_opINS_19basic_stream_socketINS_2ip3tcpENS_8executorEEENS_19basic_streambuf_refISaIcEEENS1_18transfer_exactly_tEZN9SimpleWeb16SocketClientBaseIS7_E12read_messageERKSt10shared_ptrINSE_10ConnectionEEmEUlRKSt10error_codemE_EEFvSK_mEE8initiateINS7_22initiate_async_receiveESO_JPS7_RKNS_17mutable_buffers_1EiEEEvOT_OT0_DpOT1_
FNDA:0,_ZN4asio12async_resultINS_6detail17read_dynbuf_v1_opINS_19basic_stream_socketINS_2ip3tcpENS_8executorEEENS_19basic_streambuf_refISaIcEEENS1_18transfer_exactly_tEZZN9SimpleWeb16SocketClientBaseIS7_E12read_messageERKSt10shared_ptrINSE_10ConnectionEEmENKUlRKSt10error_codemE_clESM_mEUlSM_mE0_EEFvSK_mEE8initiateINS7_22initiate_async_receiveESP_JPS7_RKNS_17mutable_buffers_1EiEEEvOT_OT0_DpOT1_
FNDA:0,_ZN4asio12async_resultINS_6detail17read_dynbuf_v1_opINS_19basic_stream_socketINS_2ip3tcpENS_8executorEEENS_19basic_streambuf_refISaIcEEENS1_18transfer_exactly_tEZZN9SimpleWeb16SocketClientBaseIS7_E12read_messageERKSt10shared_ptrINSE_10ConnectionEEmENKUlRKSt10error_codemE_clESM_mEUlSM_mE_EEFvSK_mEE8initiateINS7_22initiate_async_receiveESP_JPS7_RKNS_17mutable_buffers_1EiEEEvOT_OT0_DpOT1_
FNDA:0,_ZN4asio12async_resultINS_6detail29read_until_delim_string_op_v1INS_19basic_stream_socketINS_2ip3tcpENS_8executorEEENS_19basic_streambuf_refISaIcEEEZZN9SimpleWeb16SocketClientBaseIS7_E7upgradeERKSt10shared_ptrINSD_10ConnectionEEENKUlRKSt10error_codemE_clESL_mEUlSL_mE_EEFvSJ_mEE8initiateINS7_22initiate_async_receiveESO_JPS7_RKNS_17mutable_buffers_1EiEEEvOT_OT0_DpOT1_
FNDA:0,_ZN4asio12async_resultINS_6detail7binder1INS1_16range_connect_opINS_2ip3tcpENS_8executorENS4_22basic_resolver_resultsIS5_EENS1_25default_connect_conditionEZZN9SimpleWeb12SocketClientINS_19basic_stream_socketIS5_S6_EEE7connectEvENKUlRKSt10error_codeS8_E_clESH_S8_EUlSH_NS4_14basic_endpointIS5_EEE_EESF_EEFvvEE8initiateINS1_13initiate_postESN_JRKS6_EEEvOT_OT0_DpOT1_
FNDA:0,_ZN4asio12async_resultINS_6detail16range_connect_opINS_2ip3tcpENS_8executorENS3_22basic_resolver_resultsIS4_EENS1_25default_connect_conditionEZZN9SimpleWeb12SocketClientINS_19basic_stream_socketIS4_S5_EEE7connectEvENKUlRKSt10error_codeS7_E_clESG_S7_EUlSG_NS3_14basic_endpointIS4_EEE_EEFvSE_EE8initiateINS_12basic_socketIS4_S5_E22initiate_async_connectESL_JPSQ_RKSJ_RSE_EEEvOT_OT0_DpOT1_
FNDA:0,_ZN4asio12async_resultIZN9SimpleWeb16SocketClientBaseINS_19basic_stream_socketINS_2ip3tcpENS_8executorEEEE10Connection15send_from_queueEvEUlRKSt10error_codemE_FvSA_mEE8initiateINS_6detail30initiate_async_write_dynbuf_v1ESD_JPS7_NS_19basic_streambuf_refISaIcEEENSH_14transfer_all_tEEEEvOT_OT0_DpOT1_
FNDA:0,_ZN4asio12async_resultIZN9SimpleWeb16SocketClientBaseINS_19basic_stream_socketINS_2ip3tcpENS_8executorEEEE20read_message_contentERKSt10shared_ptrINS8_10ConnectionEEmEUlRKSt10error_codemE_FvSE_mEE8initiateINS_6detail29initiate_async_read_dynbuf_v1ESH_JPS7_NS_19basic_streambuf_refISaIcEEENSL_18transfer_exactly_tEEEEvOT_OT0_DpOT1_
FNDA:0,_ZN4asio12async_resultIZN9SimpleWeb16SocketClientBaseINS_19basic_stream_socketINS_2ip3tcpENS_8executorEEEE7upgradeERKSt10shared_ptrINS8_10ConnectionEEEUlRKSt10error_codemE_FvSE_mEE8initiateINS_6detail30initiate_async_write_dynbuf_v1ESH_JPS7_NS_19basic_streambuf_refISaIcEEENSL_14transfer_all_tEEEEvOT_OT0_DpOT1_
FNDA:0,_ZN4asio12async_resultIZN9SimpleWeb16SocketClientBaseINS_19basic_stream_socketINS_2ip3tcpENS_8executorEEEE12read_messageERKSt10shared_ptrINS8_10ConnectionEEmEUlRKSt10error_codemE_FvSE_mEE8initiateINS_6detail29initiate_async_read_dynbuf_v1ESH_JPS7_NS_19basic_streambuf_refISaIcEEENSL_18transfer_exactly_tEEEEvOT_OT0_DpOT1_
FNDA:0,_ZN4asio12async_resultIZZN9SimpleWeb16SocketClientBaseINS_19basic_stream_socketINS_2ip3tcpENS_8executorEEEE12read_messageERKSt10shared_ptrINS8_10ConnectionEEmENKUlRKSt10error_codemE_clESG_mEUlSG_mE0_FvSE_mEE8initiateINS_6detail29initiate_async_read_dynbuf_v1ESI_JPS7_NS_19basic_streambuf_refISaIcEEENSM_18transfer_exactly_tEEEEvOT_OT0_DpOT1_
FNDA:0,_ZN4asio12async_resultIZZN9SimpleWeb16SocketClientBaseINS_19basic_stream_socketINS_2ip3tcpENS_8executorEEEE12read_messageERKSt10shared_ptrINS8_10ConnectionEEmENKUlRKSt10error_codemE_clESG_mEUlSG_mE_FvSE_mEE8initiateINS_6detail29initiate_async_read_dynbuf_v1ESI_JPS7_NS_19basic_streambuf_refISaIcEEENSM_18transfer_exactly_tEEEEvOT_OT0_DpOT1_
FNDA:0,_ZN4asio12async_resultIZN9SimpleWeb12SocketClientINS_19basic_stream_socketINS_2ip3tcpENS_8executorEEEE7connectEvEUlRKSt10error_codeNS4_22basic_resolver_resultsIS5_EEE_FvS9_SD_EE8initiateINS4_14basic_resolverIS5_S6_E22initiate_async_resolveESE_JPSJ_RNS4_20basic_resolver_queryIS5_EEEEEvOT_OT0_DpOT1_
FNDA:0,_ZN4asio12async_resultIZZN9SimpleWeb16SocketClientBaseINS_19basic_stream_socketINS_2ip3tcpENS_8executorEEEE7upgradeERKSt10shared_ptrINS8_10ConnectionEEENKUlRKSt10error_codemE_clESG_mEUlSG_mE_FvSE_mEE8initiateINS_6detail41initiate_async_read_until_delim_string_v1ESI_JPS7_NS_19basic_streambuf_refISaIcEEENSt7__cxx1112basic_stringIcSt11char_traitsIcESQ_EEEEEvOT_OT0_DpOT1_
FNDA:0,_ZN4asio12async_resultIZN9SimpleWeb16SocketClientBaseINS_19basic_stream_socketINS_2ip3tcpENS_8executorEEEE10Connection11set_timeoutElEUlRKSt10error_codeE_FvSA_EE8initiateINS_20basic_waitable_timerINSt6chrono3_V212steady_clockENS_11wait_traitsISK_EES6_E19initiate_async_waitESD_JPSN_EEEvOT_OT0_DpOT1_
FNDA:0,_ZN4asio12async_resultIZZN9SimpleWeb12SocketClientINS_19basic_stream_socketINS_2ip3tcpENS_8executorEEEE7connectEvENKUlRKSt10error_codeNS4_22basic_resolver_resultsIS5_EEE_clESB_SD_EUlSB_NS4_14basic_endpointIS5_EEE_FvS9_SG_EE8initiateINS_6detail28initiate_async_range_connectESH_JPNS_12basic_socketIS5_S6_EERKSD_NSL_25default_connect_conditionEEEEvOT_OT0_DpOT1_
FNDA:0,_ZN4asio14async_initiateINS_6detail8write_opINS_19basic_stream_socketINS_2ip3tcpENS_8executorEEENS_15const_buffers_1EPKNS_12const_bufferENS1_14transfer_all_tENS1_18write_dynbuf_v1_opIS7_NS_19basic_streambuf_refISaIcEEESC_ZN9SimpleWeb16SocketClientBaseIS7_E10Connection15send_from_queueEvEUlRKSt10error_codemE_EEEEFvSL_mENS7_19initiate_async_sendEJPS7_RKS8_iEEENSt9enable_ifIXsrNS1_31async_result_has_initiate_memfnIT_T0_EE5valueENS_12async_resultINSt5decayISY_E4typeESZ_E11return_typeEE4typeEOT1_RSY_DpOT2_
FNDA:0,_ZN4asio14async_initiateINS_6detail8write_opINS_19basic_stream_socketINS_2ip3tcpENS_8executorEEENS_15const_buffers_1EPKNS_12const_bufferENS1_14transfer_all_tENS1_18write_dynbuf_v1_opIS7_NS_19basic_streambuf_refISaIcEEESC_ZN9SimpleWeb16SocketClientBaseIS7_E7upgradeERKSt10shared_ptrINSJ_10ConnectionEEEUlRKSt10error_codemE_EEEEFvSP_mENS7_19initiate_async_sendEJPS7_RKS8_iEEENSt9enable_ifIXsrNS1_31async_result_has_initiate_memfnIT_T0_EE5valueENS_12async_resultINSt5decayIS12_E4typeES13_E11return_typeEE4typeEOT1_RS12_DpOT2_
FNDA:0,_ZN4asio14async_initiateINS_6detail18write_dynbuf_v1_opINS_19basic_stream_socketINS_2ip3tcpENS_8executorEEENS_19basic_streambuf_refISaIcEEENS1_14transfer_all_tEZN9SimpleWeb16SocketClientBaseIS7_E10Connection15send_from_queueEvEUlRKSt10error_codemE_EEFvSG_mENS1_36initiate_async_write_buffer_sequenceEJPS7_RKNS_15const_buffers_1ESB_EEENSt9enable_ifIXsrNS1_31async_result_has_initiate_memfnIT_T0_EE5valueENS_12async_resultINSt5decayIST_E4typeESU_E11return_typeEE4typeEOT1_RST_DpOT2_
FNDA:0,_ZN4asio14async_initiateINS_6detail17read_dynbuf_v1_opINS_19basic_stream_socketINS_2ip3tcpENS_8executorEEENS_19basic_streambuf_refISaIcEEENS1_18transfer_exactly_tEZN9SimpleWeb16SocketClientBaseIS7_E20read_message_contentERKSt10shared_ptrINSE_10ConnectionEEmEUlRKSt10error_codemE_EEFvSK_mENS7_22initiate_async_receiveEJPS7_RKNS_17mutable_buffers_1EiEEENSt9enable_ifIXsrNS1_31async_result_has_initiate_memfnIT_T0_EE5valueENS_12async_resultINSt5decayISX_E4typeESY_E11return_typeEE4typeEOT1_RSX_DpOT2_
FNDA:0,_ZN4asio14async_initiateINS_6detail18write_dynbuf_v1_opINS_19basic_stream_socketINS_2ip3tcpENS_8executorEEENS_19basic_streambuf_refISaIcEEENS1_14transfer_all_tEZN9SimpleWeb16SocketClientBaseIS7_E7upgradeERKSt10shared_ptrINSE_10ConnectionEEEUlRKSt10error_codemE_EEFvSK_mENS1_36initiate_async_write_buffer_sequenceEJPS7_RKNS_15const_buffers_1ESB_EEENSt9enable_ifIXsrNS1_31async_result_has_initiate_memfnIT_T0_EE5valueENS_12async_resultINSt5decayISX_E4typeESY_E11return_typeEE4typeEOT1_RSX_DpOT2_
FNDA:0,_ZN4asio14async_initiateINS_6detail17read_dynbuf_v1_opINS_19basic_stream_socketINS_2ip3tcpENS_8executorEEENS_19basic_streambuf_refISaIcEEENS1_18transfer_exactly_tEZN9SimpleWeb16SocketClientBaseIS7_E12read_messageERKSt10shared_ptrINSE_10ConnectionEEmEUlRKSt10error_codemE_EEFvSK_mENS7_22initiate_async_receiveEJPS7_RKNS_17mutable_buffers_1EiEEENSt9enable_ifIXsrNS1_31async_result_has_initiate_memfnIT_T0_EE5valueENS_12async_resultINSt5decayISX_E4typeESY_E11return_typeEE4typeEOT1_RSX_DpOT2_
FNDA:0,_ZN4asio14async_initiateINS_6detail17read_dynbuf_v1_opINS_19basic_stream_socketINS_2ip3tcpENS_8executorEEENS_19basic_streambuf_refISaIcEEENS1_18transfer_exactly_tEZZN9SimpleWeb16SocketClientBaseIS7_E12read_messageERKSt10shared_ptrINSE_10ConnectionEEmENKUlRKSt10error_codemE_clESM_mEUlSM_mE0_EEFvSK_mENS7_22initiate_async_receiveEJPS7_RKNS_17mutable_buffers_1EiEEENSt9enable_ifIXsrNS1_31async_result_has_initiate_memfnIT_T0_EE5valueENS_12async_resultINSt5decayISY_E4typeESZ_E11return_typeEE4typeEOT1_RSY_DpOT2_
FNDA:0,_ZN4asio14async_initiateINS_6detail17read_dynbuf_v1_opINS_19basic_stream_socketINS_2ip3tcpENS_8executorEEENS_19basic_streambuf_refISaIcEEENS1_18transfer_exactly_tEZZN9SimpleWeb16SocketClientBaseIS7_E12read_messageERKSt10shared_ptrINSE_10ConnectionEEmENKUlRKSt10error_codemE_clESM_mEUlSM_mE_EEFvSK_mENS7_22initiate_async_receiveEJPS7_RKNS_17mutable_buffers_1EiEEENSt9enable_ifIXsrNS1_31async_result_has_initiate_memfnIT_T0_EE5valueENS_12async_resultINSt5decayISY_E4typeESZ_E11return_typeEE4typeEOT1_RSY_DpOT2_
FNDA:0,_ZN4asio14async_initiateINS_6detail29read_until_delim_string_op_v1INS_19basic_stream_socketINS_2ip3tcpENS_8executorEEENS_19basic_streambuf_refISaIcEEEZZN9SimpleWeb16SocketClientBaseIS7_E7upgradeERKSt10shared_ptrINSD_10ConnectionEEENKUlRKSt10error_codemE_clESL_mEUlSL_mE_EEFvSJ_mENS7_22initiate_async_receiveEJPS7_RKNS_17mutable_buffers_1EiEEENSt9enable_ifIXsrNS1_31async_result_has_initiate_memfnIT_T0_EE5valueENS_12async_resultINSt5decayISX_E4typeESY_E11return_typeEE4typeEOT1_RSX_DpOT2_
FNDA:0,_ZN4asio14async_initiateINS_6detail7binder1INS1_16range_connect_opINS_2ip3tcpENS_8executorENS4_22basic_resolver_resultsIS5_EENS1_25default_connect_conditionEZZN9SimpleWeb12SocketClientINS_19basic_stream_socketIS5_S6_EEE7connectEvENKUlRKSt10error_codeS8_E_clESH_S8_EUlSH_NS4_14basic_endpointIS5_EEE_EESF_EEFvvENS1_13initiate_postEJRKS6_EEENSt9enable_ifIXsrNS1_31async_result_has_initiate_memfnIT_T0_EE5valueENS_12async_resultINSt5decayISU_E4typeESV_E11return_typeEE4typeEOT1_RSU_DpOT2_
FNDA:0,_ZN4asio14async_initiateINS_6detail16range_connect_opINS_2ip3tcpENS_8executorENS3_22basic_resolver_resultsIS4_EENS1_25default_connect_conditionEZZN9SimpleWeb12SocketClientINS_19basic_stream_socketIS4_S5_EEE7connectEvENKUlRKSt10error_codeS7_E_clESG_S7_EUlSG_NS3_14basic_endpointIS4_EEE_EEFvSE_ENS_12basic_socketIS4_S5_E22initiate_async_connectEJPSO_RKSJ_RSE_EEENSt9enable_ifIXsrNS1_31async_result_has_initiate_memfnIT_T0_EE5valueENS_12async_resultINSt5decayISW_E4typeESX_E11return_typeEE4typeEOT1_RSW_DpOT2_
FNDA:0,_ZN4asio14async_initiateIZN9SimpleWeb16SocketClientBaseINS_19basic_stream_socketINS_2ip3tcpENS_8executorEEEE10Connection15send_from_queueEvEUlRKSt10error_codemE_FvSA_mENS_6detail30initiate_async_write_dynbuf_v1EJPS7_NS_19basic_streambuf_refISaIcEEENSF_14transfer_all_tEEEENSt9enable_ifIXsrNSF_31async_result_has_initiate_memfnIT_T0_EE5valueENS_12async_resultINSt5decayISO_E4typeESP_E11return_typeEE4typeEOT1_RSO_DpOT2_
FNDA:0,_ZN4asio14async_initiateIZN9SimpleWeb16SocketClientBaseINS_19basic_stream_socketINS_2ip3tcpENS_8executorEEEE20read_message_contentERKSt10shared_ptrINS8_10ConnectionEEmEUlRKSt10error_codemE_FvSE_mENS_6detail29initiate_async_read_dynbuf_v1EJPS7_NS_19basic_streambuf_refISaIcEEENSJ_18transfer_exactly_tEEEENSt9enable_ifIXsrNSJ_31async_result_has_initiate_memfnIT_T0_EE5valueENS_12async_resultINSt5decayISS_E4typeEST_E11return_typeEE4typeEOT1_RSS_DpOT2_
FNDA:0,_ZN4asio14async_initiateIZN9SimpleWeb16SocketClientBaseINS_19basic_stream_socketINS_2ip3tcpENS_8executorEEEE7upgradeERKSt10shared_ptrINS8_10ConnectionEEEUlRKSt10error_codemE_FvSE_mENS_6detail30initiate_async_write_dynbuf_v1EJPS7_NS_19basic_streambuf_refISaIcEEENSJ_14transfer_all_tEEEENSt9enable_ifIXsrNSJ_31async_result_has_initiate_memfnIT_T0_EE5valueENS_12async_resultINSt5decayISS_E4typeEST_E11return_typeEE4typeEOT1_RSS_DpOT2_
FNDA:0,_ZN4asio14async_initiateIZN9SimpleWeb16SocketClientBaseINS_19basic_stream_socketINS_2ip3tcpENS_8executorEEEE12read_messageERKSt10shared_ptrINS8_10ConnectionEEmEUlRKSt10error_codemE_FvSE_mENS_6detail29initiate_async_read_dynbuf_v1EJPS7_NS_19basic_streambuf_refISaIcEEENSJ_18transfer_exactly_tEEEENSt9enable_ifIXsrNSJ_31async_result_has_initiate_memfnIT_T0_EE5valueENS_12async_resultINSt5decayISS_E4typeEST_E11return_typeEE4typeEOT1_RSS_DpOT2_
FNDA:0,_ZN4asio14async_initiateIZZN9SimpleWeb16SocketClientBaseINS_19basic_stream_socketINS_2ip3tcpENS_8executorEEEE12read_messageERKSt10shared_ptrINS8_10ConnectionEEmENKUlRKSt10error_codemE_clESG_mEUlSG_mE0_FvSE_mENS_6detail29initiate_async_read_dynbuf_v1EJPS7_NS_19basic_streambuf_refISaIcEEENSK_18transfer_exactly_tEEEENSt9enable_ifIXsrNSK_31async_result_has_initiate_memfnIT_T0_EE5valueENS_12async_resultINSt5decayIST_E4typeESU_E11return_typeEE4typeEOT1_RST_DpOT2_
FNDA:0,_ZN4asio14async_initiateIZZN9SimpleWeb16SocketClientBaseINS_19basic_stream_socketINS_2ip3tcpENS_8executorEEEE12read_messageERKSt10shared_ptrINS8_10ConnectionEEmENKUlRKSt10error_codemE_clESG_mEUlSG_mE_FvSE_mENS_6detail29initiate_async_read_dynbuf_v1EJPS7_NS_19basic_streambuf_refISaIcEEENSK_18transfer_exactly_tEEEENSt9enable_ifIXsrNSK_31async_result_has_initiate_memfnIT_T0_EE5valueENS_12async_resultINSt5decayIST_E4typeESU_E11return_typeEE4typeEOT1_RST_DpOT2_
FNDA:0,_ZN4asio14async_initiateIZN9SimpleWeb12SocketClientINS_19basic_stream_socketINS_2ip3tcpENS_8executorEEEE7connectEvEUlRKSt10error_codeNS4_22basic_resolver_resultsIS5_EEE_FvS9_SD_ENS4_14basic_resolverIS5_S6_E22initiate_async_resolveEJPSH_RNS4_20basic_resolver_queryIS5_EEEEENSt9enable_ifIXsrNS_6detail31async_result_has_initiate_memfnIT_T0_EE5valueENS_12async_resultINSt5decayISQ_E4typeESR_E11return_typeEE4typeEOT1_RSQ_DpOT2_
FNDA:0,_ZN4asio14async_initiateIZZN9SimpleWeb16SocketClientBaseINS_19basic_stream_socketINS_2ip3tcpENS_8executorEEEE7upgradeERKSt10shared_ptrINS8_10ConnectionEEENKUlRKSt10error_codemE_clESG_mEUlSG_mE_FvSE_mENS_6detail41initiate_async_read_until_delim_string_v1EJPS7_NS_19basic_streambuf_refISaIcEEENSt7__cxx1112basic_stringIcSt11char_traitsIcESO_EEEEENSt9enable_ifIXsrNSK_31async_result_has_initiate_memfnIT_T0_EE5valueENS_12async_resultINSt5decayISX_E4typeESY_E11return_typeEE4typeEOT1_RSX_DpOT2_
FNDA:0,_ZN4asio14async_initiateIZN9SimpleWeb16SocketClientBaseINS_19basic_stream_socketINS_2ip3tcpENS_8executorEEEE10Connection11set_timeoutElEUlRKSt10error_codeE_FvSA_ENS_20basic_waitable_timerINSt6chrono3_V212steady_clockENS_11wait_traitsISI_EES6_E19initiate_async_waitEJPSL_EEENSt9enable_ifIXsrNS_6detail31async_result_has_initiate_memfnIT_T0_EE5valueENS_12async_resultINSt5decayISR_E4typeESS_E11return_typeEE4typeEOT1_RSR_DpOT2_
FNDA:0,_ZN4asio14async_initiateIZZN9SimpleWeb12SocketClientINS_19basic_stream_socketINS_2ip3tcpENS_8executorEEEE7connectEvENKUlRKSt10error_codeNS4_22basic_resolver_resultsIS5_EEE_clESB_SD_EUlSB_NS4_14basic_endpointIS5_EEE_FvS9_SG_ENS_6detail28initiate_async_range_connectEJPNS_12basic_socketIS5_S6_EERKSD_NSJ_25default_connect_conditionEEEENSt9enable_ifIXsrNSJ_31async_result_has_initiate_memfnIT_T0_EE5valueENS_12async_resultINSt5decayIST_E4typeESU_E11return_typeEE4typeEOT1_RST_DpOT2_
FNF:42
FNH:0
DA:76,0
DA:81,0
DA:84,0
DA:251,0
DA:256,0
DA:258,0
LF:6
LH:0
end_of_record
SF:/home/tistrauss/.conan/data/asio/1.13.0/_/_/package/5ab84d6acfe1f23c4fae0ab88f26e3a396351ac9/include/asio/basic_socket.hpp
FN:127,_ZN4asio12basic_socketINS_2ip3tcpENS_8executorEEC2INS_10io_contextEEERT_PNSt9enable_ifIXsrSt14is_convertibleIS8_RNS_17execution_contextEE5valueEvE4typeE
FN:366,_ZN4asio12basic_socketINS_2ip3tcpENS_8executorEE12get_executorEv
FN:381,_ZN4asio12basic_socketINS_2ip3tcpENS_8executorEE12lowest_layerEv
FN:486,_ZNK4asio12basic_socketINS_2ip3tcpENS_8executorEE7is_openEv
FN:534,_ZN4asio12basic_socketINS_2ip3tcpENS_8executorEE5closeERSt10error_code
FN:692,_ZN4asio12basic_socketINS_2ip3tcpENS_8executorEE6cancelERSt10error_code
FN:945,_ZN4asio12basic_socketINS_2ip3tcpENS_8executorEE13async_connectINS_6detail16range_connect_opIS2_S3_NS1_22basic_resolver_resultsIS2_EENS6_25default_connect_conditionEZZN9SimpleWeb12SocketClientINS_19basic_stream_socketIS2_S3_EEE7connectEvENKUlRKSt10error_codeS9_E_clESI_S9_EUlSI_NS1_14basic_endpointIS2_EEE_EEEENS_12async_resultINSt5decayIT_E4typeEFvSG_EE11return_typeERKSL_OSQ_
FN:994,_ZN4asio12basic_socketINS_2ip3tcpENS_8executorEE10set_optionINS_6detail13socket_option7booleanILi6ELi1EEEEEvRKT_
FN:1681,_ZN4asio12basic_socketINS_2ip3tcpENS_8executorEE8shutdownENS_11socket_base13shutdown_typeERSt10error_code
FN:1787,_ZN4asio12basic_socketINS_2ip3tcpENS_8executorEED2Ev
FN:1810,_ZNK4asio12basic_socketINS_2ip3tcpENS_8executorEE22initiate_async_connectclINS_6detail16range_connect_opIS2_S3_NS1_22basic_resolver_resultsIS2_EENS7_25default_connect_conditionEZZN9SimpleWeb12SocketClientINS_19basic_stream_socketIS2_S3_EEE7connectEvENKUlRKSt10error_codeSA_E_clESJ_SA_EUlSJ_NS1_14basic_endpointIS2_EEE_EEEEvOT_PS4_RKSM_SJ_
FNDA:0,_ZN4asio12basic_socketINS_2ip3tcpENS_8executorEEC2INS_10io_contextEEERT_PNSt9enable_ifIXsrSt14is_convertibleIS8_RNS_17execution_contextEE5valueEvE4typeE
FNDA:0,_ZN4asio12basic_socketINS_2ip3tcpENS_8executorEE12get_executorEv
FNDA:0,_ZN4asio12basic_socketINS_2ip3tcpENS_8executorEE12lowest_layerEv
FNDA:0,_ZNK4asio12basic_socketINS_2ip3tcpENS_8executorEE7is_openEv
FNDA:0,_ZN4asio12basic_socketINS_2ip3tcpENS_8executorEE5closeERSt10error_code
FNDA:0,_ZN4asio12basic_socketINS_2ip3tcpENS_8executorEE6cancelERSt10error_code
FNDA:0,_ZN4asio12basic_socketINS_2ip3tcpENS_8executorEE13async_connectINS_6detail16range_connect_opIS2_S3_NS1_22basic_resolver_resultsIS2_EENS6_25default_connect_conditionEZZN9SimpleWeb12SocketClientINS_19basic_stream_socketIS2_S3_EEE7connectEvENKUlRKSt10error_codeS9_E_clESI_S9_EUlSI_NS1_14basic_endpointIS2_EEE_EEEENS_12async_resultINSt5decayIT_E4typeEFvSG_EE11return_typeERKSL_OSQ_
FNDA:0,_ZN4asio12basic_socketINS_2ip3tcpENS_8executorEE10set_optionINS_6detail13socket_option7booleanILi6ELi1EEEEEvRKT_
FNDA:0,_ZN4asio12basic_socketINS_2ip3tcpENS_8executorEE8shutdownENS_11socket_base13shutdown_typeERSt10error_code
FNDA:0,_ZN4asio12basic_socketINS_2ip3tcpENS_8executorEED2Ev
FNDA:0,_ZNK4asio12basic_socketINS_2ip3tcpENS_8executorEE22initiate_async_connectclINS_6detail16range_connect_opIS2_S3_NS1_22basic_resolver_resultsIS2_EENS7_25default_connect_conditionEZZN9SimpleWeb12SocketClientINS_19basic_stream_socketIS2_S3_EEE7connectEvENKUlRKSt10error_codeSA_E_clESJ_SA_EUlSJ_NS1_14basic_endpointIS2_EEE_EEEEvOT_PS4_RKSM_SJ_
FNF:11
FNH:0
DA:127,0
DA:131,0
DA:133,0
DA:366,0
DA:368,0
DA:381,0
DA:383,0
DA:486,0
DA:488,0
DA:534,0
DA:536,0
DA:537,0
DA:692,0
DA:694,0
DA:695,0
DA:945,0
DA:948,0
DA:949,0
DA:951,0
DA:952,0
DA:955,0
DA:956,0
DA:994,0
DA:996,0
DA:997,0
DA:998,0
DA:999,0
DA:1681,0
DA:1684,0
DA:1685,0
DA:1787,0
DA:1789,0
DA:1810,0
DA:1818,0
DA:1820,0
DA:1826,0
DA:1827,0
DA:1829,0
DA:1831,0
LF:39
LH:0
end_of_record
SF:/home/tistrauss/.conan/data/asio/1.13.0/_/_/package/5ab84d6acfe1f23c4fae0ab88f26e3a396351ac9/include/asio/basic_stream_socket.hpp
FN:107,_ZN4asio19basic_stream_socketINS_2ip3tcpENS_8executorEEC2INS_10io_contextEEERT_PNSt9enable_ifIXsrSt14is_convertibleIS8_RNS_17execution_contextEE5valueEvE4typeE
FN:328,_ZN4asio19basic_stream_socketINS_2ip3tcpENS_8executorEED2Ev
FN:831,_ZN4asio19basic_stream_socketINS_2ip3tcpENS_8executorEE16async_write_someINS_15const_buffers_1ENS_6detail8write_opIS4_S6_PKNS_12const_bufferENS7_14transfer_all_tENS7_18write_dynbuf_v1_opIS4_NS_19basic_streambuf_refISaIcEEESC_ZN9SimpleWeb16SocketClientBaseIS4_E10Connection15send_from_queueEvEUlRKSt10error_codemE_EEEEEENS_12async_resultINSt5decayIT0_E4typeEFvSL_mEE11return_typeERKT_OST_
FN:831,_ZN4asio19basic_stream_socketINS_2ip3tcpENS_8executorEE16async_write_someINS_15const_buffers_1ENS_6detail8write_opIS4_S6_PKNS_12const_bufferENS7_14transfer_all_tENS7_18write_dynbuf_v1_opIS4_NS_19basic_streambuf_refISaIcEEESC_ZN9SimpleWeb16SocketClientBaseIS4_E7upgradeERKSt10shared_ptrINSJ_10ConnectionEEEUlRKSt10error_codemE_EEEEEENS_12async_resultINSt5decayIT0_E4typeEFvSP_mEE11return_typeERKT_OSX_
FN:942,_ZN4asio19basic_stream_socketINS_2ip3tcpENS_8executorEE15async_read_someINS_17mutable_buffers_1ENS_6detail17read_dynbuf_v1_opIS4_NS_19basic_streambuf_refISaIcEEENS7_18transfer_exactly_tEZZN9SimpleWeb16SocketClientBaseIS4_E12read_messageERKSt10shared_ptrINSF_10ConnectionEEmENKUlRKSt10error_codemE_clESN_mEUlSN_mE0_EEEENS_12async_resultINSt5decayIT0_E4typeEFvSL_mEE11return_typeERKT_OST_
FN:942,_ZN4asio19basic_stream_socketINS_2ip3tcpENS_8executorEE15async_read_someINS_17mutable_buffers_1ENS_6detail29read_until_delim_string_op_v1IS4_NS_19basic_streambuf_refISaIcEEEZZN9SimpleWeb16SocketClientBaseIS4_E7upgradeERKSt10shared_ptrINSE_10ConnectionEEENKUlRKSt10error_codemE_clESM_mEUlSM_mE_EEEENS_12async_resultINSt5decayIT0_E4typeEFvSK_mEE11return_typeERKT_OSS_
FN:942,_ZN4asio19basic_stream_socketINS_2ip3tcpENS_8executorEE15async_read_someINS_17mutable_buffers_1ENS_6detail17read_dynbuf_v1_opIS4_NS_19basic_streambuf_refISaIcEEENS7_18transfer_exactly_tEZN9SimpleWeb16SocketClientBaseIS4_E12read_messageERKSt10shared_ptrINSF_10ConnectionEEmEUlRKSt10error_codemE_EEEENS_12async_resultINSt5decayIT0_E4typeEFvSL_mEE11return_typeERKT_OSS_
FN:942,_ZN4asio19basic_stream_socketINS_2ip3tcpENS_8executorEE15async_read_someINS_17mutable_buffers_1ENS_6detail17read_dynbuf_v1_opIS4_NS_19basic_streambuf_refISaIcEEENS7_18transfer_exactly_tEZZN9SimpleWeb16SocketClientBaseIS4_E12read_messageERKSt10shared_ptrINSF_10ConnectionEEmENKUlRKSt10error_codemE_clESN_mEUlSN_mE_EEEENS_12async_resultINSt5decayIT0_E4typeEFvSL_mEE11return_typeERKT_OST_
FN:942,_ZN4asio19basic_stream_socketINS_2ip3tcpENS_8executorEE15async_read_someINS_17mutable_buffers_1ENS_6detail17read_dynbuf_v1_opIS4_NS_19basic_streambuf_refISaIcEEENS7_18transfer_exactly_tEZN9SimpleWeb16SocketClientBaseIS4_E20read_message_contentERKSt10shared_ptrINSF_10ConnectionEEmEUlRKSt10error_codemE_EEEENS_12async_resultINSt5decayIT0_E4typeEFvSL_mEE11return_typeERKT_OSS_
FN:955,_ZNK4asio19basic_stream_socketINS_2ip3tcpENS_8executorEE19initiate_async_sendclINS_6detail8write_opIS4_NS_15const_buffers_1EPKNS_12const_bufferENS7_14transfer_all_tENS7_18write_dynbuf_v1_opIS4_NS_19basic_streambuf_refISaIcEEESD_ZN9SimpleWeb16SocketClientBaseIS4_E7upgradeERKSt10shared_ptrINSK_10ConnectionEEEUlRKSt10error_codemE_EEEES9_EEvOT_PS4_RKT0_i
FN:955,_ZNK4asio19basic_stream_socketINS_2ip3tcpENS_8executorEE19initiate_async_sendclINS_6detail8write_opIS4_NS_15const_buffers_1EPKNS_12const_bufferENS7_14transfer_all_tENS7_18write_dynbuf_v1_opIS4_NS_19basic_streambuf_refISaIcEEESD_ZN9SimpleWeb16SocketClientBaseIS4_E10Connection15send_from_queueEvEUlRKSt10error_codemE_EEEES9_EEvOT_PS4_RKT0_i
FN:973,_ZNK4asio19basic_stream_socketINS_2ip3tcpENS_8executorEE22initiate_async_receiveclINS_6detail17read_dynbuf_v1_opIS4_NS_19basic_streambuf_refISaIcEEENS7_18transfer_exactly_tEZZN9SimpleWeb16SocketClientBaseIS4_E12read_messageERKSt10shared_ptrINSF_10ConnectionEEmENKUlRKSt10error_codemE_clESN_mEUlSN_mE_EENS_17mutable_buffers_1EEEvOT_PS4_RKT0_i
FN:973,_ZNK4asio19basic_stream_socketINS_2ip3tcpENS_8executorEE22initiate_async_receiveclINS_6detail17read_dynbuf_v1_opIS4_NS_19basic_streambuf_refISaIcEEENS7_18transfer_exactly_tEZN9SimpleWeb16SocketClientBaseIS4_E12read_messageERKSt10shared_ptrINSF_10ConnectionEEmEUlRKSt10error_codemE_EENS_17mutable_buffers_1EEEvOT_PS4_RKT0_i
FN:973,_ZNK4asio19basic_stream_socketINS_2ip3tcpENS_8executorEE22initiate_async_receiveclINS_6detail17read_dynbuf_v1_opIS4_NS_19basic_streambuf_refISaIcEEENS7_18transfer_exactly_tEZZN9SimpleWeb16SocketClientBaseIS4_E12read_messageERKSt10shared_ptrINSF_10ConnectionEEmENKUlRKSt10error_codemE_clESN_mEUlSN_mE0_EENS_17mutable_buffers_1EEEvOT_PS4_RKT0_i
FN:973,_ZNK4asio19basic_stream_socketINS_2ip3tcpENS_8executorEE22initiate_async_receiveclINS_6detail29read_until_delim_string_op_v1IS4_NS_19basic_streambuf_refISaIcEEEZZN9SimpleWeb16SocketClientBaseIS4_E7upgradeERKSt10shared_ptrINSE_10ConnectionEEENKUlRKSt10error_codemE_clESM_mEUlSM_mE_EENS_17mutable_buffers_1EEEvOT_PS4_RKT0_i
FN:973,_ZNK4asio19basic_stream_socketINS_2ip3tcpENS_8executorEE22initiate_async_receiveclINS_6detail17read_dynbuf_v1_opIS4_NS_19basic_streambuf_refISaIcEEENS7_18transfer_exactly_tEZN9SimpleWeb16SocketClientBaseIS4_E20read_message_contentERKSt10shared_ptrINSF_10ConnectionEEmEUlRKSt10error_codemE_EENS_17mutable_buffers_1EEEvOT_PS4_RKT0_i
FNDA:0,_ZN4asio19basic_stream_socketINS_2ip3tcpENS_8executorEEC2INS_10io_contextEEERT_PNSt9enable_ifIXsrSt14is_convertibleIS8_RNS_17execution_contextEE5valueEvE4typeE
FNDA:0,_ZN4asio19basic_stream_socketINS_2ip3tcpENS_8executorEED2Ev
FNDA:0,_ZN4asio19basic_stream_socketINS_2ip3tcpENS_8executorEE16async_write_someINS_15const_buffers_1ENS_6detail8write_opIS4_S6_PKNS_12const_bufferENS7_14transfer_all_tENS7_18write_dynbuf_v1_opIS4_NS_19basic_streambuf_refISaIcEEESC_ZN9SimpleWeb16SocketClientBaseIS4_E10Connection15send_from_queueEvEUlRKSt10error_codemE_EEEEEENS_12async_resultINSt5decayIT0_E4typeEFvSL_mEE11return_typeERKT_OST_
FNDA:0,_ZN4asio19basic_stream_socketINS_2ip3tcpENS_8executorEE16async_write_someINS_15const_buffers_1ENS_6detail8write_opIS4_S6_PKNS_12const_bufferENS7_14transfer_all_tENS7_18write_dynbuf_v1_opIS4_NS_19basic_streambuf_refISaIcEEESC_ZN9SimpleWeb16SocketClientBaseIS4_E7upgradeERKSt10shared_ptrINSJ_10ConnectionEEEUlRKSt10error_codemE_EEEEEENS_12async_resultINSt5decayIT0_E4typeEFvSP_mEE11return_typeERKT_OSX_
FNDA:0,_ZN4asio19basic_stream_socketINS_2ip3tcpENS_8executorEE15async_read_someINS_17mutable_buffers_1ENS_6detail17read_dynbuf_v1_opIS4_NS_19basic_streambuf_refISaIcEEENS7_18transfer_exactly_tEZN9SimpleWeb16SocketClientBaseIS4_E20read_message_contentERKSt10shared_ptrINSF_10ConnectionEEmEUlRKSt10error_codemE_EEEENS_12async_resultINSt5decayIT0_E4typeEFvSL_mEE11return_typeERKT_OSS_
FNDA:0,_ZN4asio19basic_stream_socketINS_2ip3tcpENS_8executorEE15async_read_someINS_17mutable_buffers_1ENS_6detail17read_dynbuf_v1_opIS4_NS_19basic_streambuf_refISaIcEEENS7_18transfer_exactly_tEZN9SimpleWeb16SocketClientBaseIS4_E12read_messageERKSt10shared_ptrINSF_10ConnectionEEmEUlRKSt10error_codemE_EEEENS_12async_resultINSt5decayIT0_E4typeEFvSL_mEE11return_typeERKT_OSS_
FNDA:0,_ZN4asio19basic_stream_socketINS_2ip3tcpENS_8executorEE15async_read_someINS_17mutable_buffers_1ENS_6detail17read_dynbuf_v1_opIS4_NS_19basic_streambuf_refISaIcEEENS7_18transfer_exactly_tEZZN9SimpleWeb16SocketClientBaseIS4_E12read_messageERKSt10shared_ptrINSF_10ConnectionEEmENKUlRKSt10error_codemE_clESN_mEUlSN_mE0_EEEENS_12async_resultINSt5decayIT0_E4typeEFvSL_mEE11return_typeERKT_OST_
FNDA:0,_ZN4asio19basic_stream_socketINS_2ip3tcpENS_8executorEE15async_read_someINS_17mutable_buffers_1ENS_6detail17read_dynbuf_v1_opIS4_NS_19basic_streambuf_refISaIcEEENS7_18transfer_exactly_tEZZN9SimpleWeb16SocketClientBaseIS4_E12read_messageERKSt10shared_ptrINSF_10ConnectionEEmENKUlRKSt10error_codemE_clESN_mEUlSN_mE_EEEENS_12async_resultINSt5decayIT0_E4typeEFvSL_mEE11return_typeERKT_OST_
FNDA:0,_ZN4asio19basic_stream_socketINS_2ip3tcpENS_8executorEE15async_read_someINS_17mutable_buffers_1ENS_6detail29read_until_delim_string_op_v1IS4_NS_19basic_streambuf_refISaIcEEEZZN9SimpleWeb16SocketClientBaseIS4_E7upgradeERKSt10shared_ptrINSE_10ConnectionEEENKUlRKSt10error_codemE_clESM_mEUlSM_mE_EEEENS_12async_resultINSt5decayIT0_E4typeEFvSK_mEE11return_typeERKT_OSS_
FNDA:0,_ZNK4asio19basic_stream_socketINS_2ip3tcpENS_8executorEE19initiate_async_sendclINS_6detail8write_opIS4_NS_15const_buffers_1EPKNS_12const_bufferENS7_14transfer_all_tENS7_18write_dynbuf_v1_opIS4_NS_19basic_streambuf_refISaIcEEESD_ZN9SimpleWeb16SocketClientBaseIS4_E10Connection15send_from_queueEvEUlRKSt10error_codemE_EEEES9_EEvOT_PS4_RKT0_i
FNDA:0,_ZNK4asio19basic_stream_socketINS_2ip3tcpENS_8executorEE19initiate_async_sendclINS_6detail8write_opIS4_NS_15const_buffers_1EPKNS_12const_bufferENS7_14transfer_all_tENS7_18write_dynbuf_v1_opIS4_NS_19basic_streambuf_refISaIcEEESD_ZN9SimpleWeb16SocketClientBaseIS4_E7upgradeERKSt10shared_ptrINSK_10ConnectionEEEUlRKSt10error_codemE_EEEES9_EEvOT_PS4_RKT0_i
FNDA:0,_ZNK4asio19basic_stream_socketINS_2ip3tcpENS_8executorEE22initiate_async_receiveclINS_6detail17read_dynbuf_v1_opIS4_NS_19basic_streambuf_refISaIcEEENS7_18transfer_exactly_tEZN9SimpleWeb16SocketClientBaseIS4_E20read_message_contentERKSt10shared_ptrINSF_10ConnectionEEmEUlRKSt10error_codemE_EENS_17mutable_buffers_1EEEvOT_PS4_RKT0_i
FNDA:0,_ZNK4asio19basic_stream_socketINS_2ip3tcpENS_8executorEE22initiate_async_receiveclINS_6detail17read_dynbuf_v1_opIS4_NS_19basic_streambuf_refISaIcEEENS7_18transfer_exactly_tEZN9SimpleWeb16SocketClientBaseIS4_E12read_messageERKSt10shared_ptrINSF_10ConnectionEEmEUlRKSt10error_codemE_EENS_17mutable_buffers_1EEEvOT_PS4_RKT0_i
FNDA:0,_ZNK4asio19basic_stream_socketINS_2ip3tcpENS_8executorEE22initiate_async_receiveclINS_6detail17read_dynbuf_v1_opIS4_NS_19basic_streambuf_refISaIcEEENS7_18transfer_exactly_tEZZN9SimpleWeb16SocketClientBaseIS4_E12read_messageERKSt10shared_ptrINSF_10ConnectionEEmENKUlRKSt10error_codemE_clESN_mEUlSN_mE0_EENS_17mutable_buffers_1EEEvOT_PS4_RKT0_i
FNDA:0,_ZNK4asio19basic_stream_socketINS_2ip3tcpENS_8executorEE22initiate_async_receiveclINS_6detail17read_dynbuf_v1_opIS4_NS_19basic_streambuf_refISaIcEEENS7_18transfer_exactly_tEZZN9SimpleWeb16SocketClientBaseIS4_E12read_messageERKSt10shared_ptrINSF_10ConnectionEEmENKUlRKSt10error_codemE_clESN_mEUlSN_mE_EENS_17mutable_buffers_1EEEvOT_PS4_RKT0_i
FNDA:0,_ZNK4asio19basic_stream_socketINS_2ip3tcpENS_8executorEE22initiate_async_receiveclINS_6detail29read_until_delim_string_op_v1IS4_NS_19basic_streambuf_refISaIcEEEZZN9SimpleWeb16SocketClientBaseIS4_E7upgradeERKSt10shared_ptrINSE_10ConnectionEEENKUlRKSt10error_codemE_clESM_mEUlSM_mE_EENS_17mutable_buffers_1EEEvOT_PS4_RKT0_i
FNF:16
FNH:0
DA:107,0
DA:111,0
DA:113,0
DA:328,0
DA:330,0
DA:831,0
DA:835,0
DA:837,0
DA:942,0
DA:946,0
DA:948,0
DA:955,0
DA:963,0
DA:964,0
DA:966,0
DA:967,0
DA:973,0
DA:981,0
DA:982,0
DA:984,0
DA:985,0
LF:21
LH:0
end_of_record
SF:/home/tistrauss/.conan/data/asio/1.13.0/_/_/package/5ab84d6acfe1f23c4fae0ab88f26e3a396351ac9/include/asio/basic_streambuf.hpp
FN:110,_ZN4asio15basic_streambufISaIcEED2Ev
FN:110,_ZN4asio15basic_streambufISaIcEED0Ev
FN:131,_ZN4asio15basic_streambufISaIcEEC2EmRKS1_
FN:158,_ZNK4asio15basic_streambufISaIcEE4sizeEv
FN:168,_ZNK4asio15basic_streambufISaIcEE8max_sizeEv
FN:178,_ZNK4asio15basic_streambufISaIcEE8capacityEv
FN:192,_ZNK4asio15basic_streambufISaIcEE4dataEv
FN:214,_ZN4asio15basic_streambufISaIcEE7prepareEm
FN:233,_ZN4asio15basic_streambufISaIcEE6commitEm
FN:247,_ZN4asio15basic_streambufISaIcEE7consumeEm
FN:263,_ZN4asio15basic_streambufISaIcEE9underflowEv
FN:283,_ZN4asio15basic_streambufISaIcEE8overflowEi
FN:308,_ZN4asio15basic_streambufISaIcEE7reserveEm
FN:380,_ZN4asio19basic_streambuf_refISaIcEEC2ERNS_15basic_streambufIS1_EE
FN:393,_ZN4asio19basic_streambuf_refISaIcEEC2EOS2_
FN:400,_ZNK4asio19basic_streambuf_refISaIcEE4sizeEv
FN:406,_ZNK4asio19basic_streambuf_refISaIcEE8max_sizeEv
FN:412,_ZNK4asio19basic_streambuf_refISaIcEE8capacityEv
FN:418,_ZNK4asio19basic_streambuf_refISaIcEE4dataEv
FN:425,_ZN4asio19basic_streambuf_refISaIcEE7prepareEm
FN:431,_ZN4asio19basic_streambuf_refISaIcEE6commitEm
FN:437,_ZN4asio19basic_streambuf_refISaIcEE7consumeEm
FNDA:0,_ZN4asio15basic_streambufISaIcEED0Ev
FNDA:0,_ZN4asio15basic_streambufISaIcEED2Ev
FNDA:0,_ZN4asio15basic_streambufISaIcEEC2EmRKS1_
FNDA:0,_ZNK4asio15basic_streambufISaIcEE4sizeEv
FNDA:0,_ZNK4asio15basic_streambufISaIcEE8max_sizeEv
FNDA:0,_ZNK4asio15basic_streambufISaIcEE8capacityEv
FNDA:0,_ZNK4asio15basic_streambufISaIcEE4dataEv
FNDA:0,_ZN4asio15basic_streambufISaIcEE7prepareEm
FNDA:0,_ZN4asio15basic_streambufISaIcEE6commitEm
FNDA:0,_ZN4asio15basic_streambufISaIcEE7consumeEm
FNDA:0,_ZN4asio15basic_streambufISaIcEE9underflowEv
FNDA:0,_ZN4asio15basic_streambufISaIcEE8overflowEi
FNDA:0,_ZN4asio15basic_streambufISaIcEE7reserveEm
FNDA:0,_ZN4asio19basic_streambuf_refISaIcEEC2ERNS_15basic_streambufIS1_EE
FNDA:0,_ZN4asio19basic_streambuf_refISaIcEEC2EOS2_
FNDA:0,_ZNK4asio19basic_streambuf_refISaIcEE4sizeEv
FNDA:0,_ZNK4asio19basic_streambuf_refISaIcEE8max_sizeEv
FNDA:0,_ZNK4asio19basic_streambuf_refISaIcEE8capacityEv
FNDA:0,_ZNK4asio19basic_streambuf_refISaIcEE4dataEv
FNDA:0,_ZN4asio19basic_streambuf_refISaIcEE7prepareEm
FNDA:0,_ZN4asio19basic_streambuf_refISaIcEE6commitEm
FNDA:0,_ZN4asio19basic_streambuf_refISaIcEE7consumeEm
FNF:22
FNH:0
DA:110,0
DA:131,0
DA:132,0
DA:135,0
DA:137,0
DA:138,0
DA:139,0
DA:140,0
DA:141,0
DA:158,0
DA:160,0
DA:168,0
DA:170,0
DA:178,0
DA:180,0
DA:192,0
DA:194,0
DA:195,0
DA:214,0
DA:216,0
DA:217,0
DA:218,0
DA:233,0
DA:235,0
DA:236,0
DA:237,0
DA:238,0
DA:247,0
DA:249,0
DA:250,0
DA:251,0
DA:252,0
DA:253,0
DA:254,0
DA:263,0
DA:265,0
DA:267,0
DA:268,0
DA:272,0
DA:283,0
DA:285,0
DA:287,0
DA:289,0
DA:290,0
DA:292,0
DA:296,0
DA:300,0
DA:301,0
DA:302,0
DA:305,0
DA:308,0
DA:311,0
DA:312,0
DA:313,0
DA:316,0
DA:318,0
DA:322,0
DA:324,0
DA:325,0
DA:329,0
DA:331,0
DA:333,0
DA:334,0
DA:338,0
DA:339,0
DA:344,0
DA:345,0
DA:380,0
DA:381,0
DA:383,0
DA:393,0
DA:394,0
DA:396,0
DA:400,0
DA:402,0
DA:406,0
DA:408,0
DA:412,0
DA:414,0
DA:418,0
DA:420,0
DA:425,0
DA:427,0
DA:431,0
DA:433,0
DA:437,0
DA:439,0
LF:87
LH:0
end_of_record
SF:/home/tistrauss/.conan/data/asio/1.13.0/_/_/package/5ab84d6acfe1f23c4fae0ab88f26e3a396351ac9/include/asio/basic_waitable_timer.hpp
FN:245,_ZN4asio20basic_waitable_timerINSt6chrono3_V212steady_clockENS_11wait_traitsIS3_EENS_8executorEEC2ERKS6_RKNS1_8durationIlSt5ratioILl1ELl1000000000EEEE
FN:320,_ZN4asio20basic_waitable_timerINSt6chrono3_V212steady_clockENS_11wait_traitsIS3_EENS_8executorEED2Ev
FN:352,_ZN4asio20basic_waitable_timerINSt6chrono3_V212steady_clockENS_11wait_traitsIS3_EENS_8executorEE6cancelEv
FN:697,_ZN4asio20basic_waitable_timerINSt6chrono3_V212steady_clockENS_11wait_traitsIS3_EENS_8executorEE10async_waitIZN9SimpleWeb16SocketClientBaseINS_19basic_stream_socketINS_2ip3tcpES6_EEE10Connection11set_timeoutElEUlRKSt10error_codeE_EENS_12async_resultINSt5decayIT_E4typeEFvSH_EE11return_typeEOSN_
FN:712,_ZNK4asio20basic_waitable_timerINSt6chrono3_V212steady_clockENS_11wait_traitsIS3_EENS_8executorEE19initiate_async_waitclIZN9SimpleWeb16SocketClientBaseINS_19basic_stream_socketINS_2ip3tcpES6_EEE10Connection11set_timeoutElEUlRKSt10error_codeE_EEvOT_PS7_
FNDA:0,_ZN4asio20basic_waitable_timerINSt6chrono3_V212steady_clockENS_11wait_traitsIS3_EENS_8executorEEC2ERKS6_RKNS1_8durationIlSt5ratioILl1ELl1000000000EEEE
FNDA:0,_ZN4asio20basic_waitable_timerINSt6chrono3_V212steady_clockENS_11wait_traitsIS3_EENS_8executorEED2Ev
FNDA:0,_ZN4asio20basic_waitable_timerINSt6chrono3_V212steady_clockENS_11wait_traitsIS3_EENS_8executorEE6cancelEv
FNDA:0,_ZN4asio20basic_waitable_timerINSt6chrono3_V212steady_clockENS_11wait_traitsIS3_EENS_8executorEE10async_waitIZN9SimpleWeb16SocketClientBaseINS_19basic_stream_socketINS_2ip3tcpES6_EEE10Connection11set_timeoutElEUlRKSt10error_codeE_EENS_12async_resultINSt5decayIT_E4typeEFvSH_EE11return_typeEOSN_
FNDA:0,_ZNK4asio20basic_waitable_timerINSt6chrono3_V212steady_clockENS_11wait_traitsIS3_EENS_8executorEE19initiate_async_waitclIZN9SimpleWeb16SocketClientBaseINS_19basic_stream_socketINS_2ip3tcpES6_EEE10Connection11set_timeoutElEUlRKSt10error_codeE_EEvOT_PS7_
FNF:5
FNH:0
DA:245,0
DA:246,0
DA:248,0
DA:249,0
DA:251,0
DA:252,0
DA:320,0
DA:322,0
DA:352,0
DA:354,0
DA:355,0
DA:356,0
DA:357,0
DA:697,0
DA:699,0
DA:700,0
DA:712,0
DA:719,0
DA:720,0
DA:721,0
DA:723,0
LF:21
LH:0
end_of_record
SF:/home/tistrauss/.conan/data/asio/1.13.0/_/_/package/5ab84d6acfe1f23c4fae0ab88f26e3a396351ac9/include/asio/buffer.hpp
FN:101,_ZN4asio14mutable_bufferC2EPvm
FN:123,_ZNK4asio14mutable_buffer4dataEv
FN:133,_ZNK4asio14mutable_buffer4sizeEv
FN:185,_ZN4asio17mutable_buffers_1C2ERKNS_14mutable_bufferE
FN:228,_ZN4asio12const_bufferC2Ev
FN:235,_ZN4asio12const_bufferC2EPKvm
FN:267,_ZNK4asio12const_buffer4dataEv
FN:277,_ZNK4asio12const_buffer4sizeEv
FN:315,_ZN4asio15const_buffers_1C2EPKvm
FN:329,_ZN4asio15const_buffers_1C2ERKNS_12const_bufferE
FN:396,_ZN4asio21buffer_sequence_beginINS_15const_buffers_1EEEPKNS_12const_bufferERKT_PNSt9enable_ifIXsrSt14is_convertibleIPS6_S4_E5valueEvE4typeE
FN:473,_ZN4asio19buffer_sequence_endINS_15const_buffers_1EEEPKNS_12const_bufferERKT_PNSt9enable_ifIXsrSt14is_convertibleIPS6_S4_E5valueEvE4typeE
FN:675,_ZN4asioplERKNS_12const_bufferEm
FN:907,_ZN4asio6bufferERKNS_14mutable_bufferE
FN:937,_ZN4asio6bufferERKNS_12const_bufferE
FN:950,_ZN4asio6bufferERKNS_12const_bufferEm
FNDA:0,_ZN4asio14mutable_bufferC2EPvm
FNDA:0,_ZNK4asio14mutable_buffer4dataEv
FNDA:0,_ZNK4asio14mutable_buffer4sizeEv
FNDA:0,_ZN4asio17mutable_buffers_1C2ERKNS_14mutable_bufferE
FNDA:0,_ZN4asio12const_bufferC2Ev
FNDA:0,_ZN4asio12const_bufferC2EPKvm
FNDA:0,_ZNK4asio12const_buffer4dataEv
FNDA:0,_ZNK4asio12const_buffer4sizeEv
FNDA:0,_ZN4asio15const_buffers_1C2EPKvm
FNDA:0,_ZN4asio15const_buffers_1C2ERKNS_12const_bufferE
FNDA:0,_ZN4asio21buffer_sequence_beginINS_15const_buffers_1EEEPKNS_12const_bufferERKT_PNSt9enable_ifIXsrSt14is_convertibleIPS6_S4_E5valueEvE4typeE
FNDA:0,_ZN4asio19buffer_sequence_endINS_15const_buffers_1EEEPKNS_12const_bufferERKT_PNSt9enable_ifIXsrSt14is_convertibleIPS6_S4_E5valueEvE4typeE
FNDA:0,_ZN4asioplERKNS_12const_bufferEm
FNDA:0,_ZN4asio6bufferERKNS_14mutable_bufferE
FNDA:0,_ZN4asio6bufferERKNS_12const_bufferE
FNDA:0,_ZN4asio6bufferERKNS_12const_bufferEm
FNF:16
FNH:0
DA:101,0
DA:102,0
DA:103,0
DA:105,0
DA:123,0
DA:129,0
DA:133,0
DA:135,0
DA:185,0
DA:186,0
DA:188,0
DA:228,0
DA:229,0
DA:230,0
DA:232,0
DA:235,0
DA:236,0
DA:237,0
DA:239,0
DA:267,0
DA:273,0
DA:277,0
DA:279,0
DA:315,0
DA:316,0
DA:318,0
DA:329,0
DA:330,0
DA:332,0
DA:396,0
DA:401,0
DA:473,0
DA:478,0
DA:675,0
DA:678,0
DA:679,0
DA:680,0
DA:681,0
DA:685,0
DA:907,0
DA:910,0
DA:937,0
DA:940,0
DA:950,0
DA:953,0
DA:954,0
DA:959,0
LF:47
LH:0
end_of_record
SF:/home/tistrauss/.conan/data/asio/1.13.0/_/_/package/5ab84d6acfe1f23c4fae0ab88f26e3a396351ac9/include/asio/buffers_iterator.hpp
FN:156,_ZN4asio16buffers_iteratorINS_15const_buffers_1EcEC2Ev
FN:167,_ZN4asio16buffers_iteratorINS_15const_buffers_1EcE5beginERKS1_
FN:187,_ZN4asio16buffers_iteratorINS_15const_buffers_1EcE3endERKS1_
FN:206,_ZNK4asio16buffers_iteratorINS_15const_buffers_1EcEdeEv
FN:226,_ZN4asio16buffers_iteratorINS_15const_buffers_1EcEppEv
FN:270,_ZN4asioplERKNS_16buffers_iteratorINS_15const_buffers_1EcEEl
FN:297,_ZN4asiomiERKNS_16buffers_iteratorINS_15const_buffers_1EcEES4_
FN:304,_ZN4asioeqERKNS_16buffers_iteratorINS_15const_buffers_1EcEES4_
FN:310,_ZN4asioneERKNS_16buffers_iteratorINS_15const_buffers_1EcEES4_
FN:341,_ZNK4asio16buffers_iteratorINS_15const_buffers_1EcE11dereferenceEv
FN:348,_ZNK4asio16buffers_iteratorINS_15const_buffers_1EcE5equalERKS2_
FN:354,_ZN4asio16buffers_iteratorINS_15const_buffers_1EcE9incrementEv
FN:407,_ZN4asio16buffers_iteratorINS_15const_buffers_1EcE7advanceEl
FN:488,_ZNK4asio16buffers_iteratorINS_15const_buffers_1EcE11distance_toERKS2_
FNDA:0,_ZN4asio16buffers_iteratorINS_15const_buffers_1EcEC2Ev
FNDA:0,_ZN4asio16buffers_iteratorINS_15const_buffers_1EcE5beginERKS1_
FNDA:0,_ZN4asio16buffers_iteratorINS_15const_buffers_1EcE3endERKS1_
FNDA:0,_ZNK4asio16buffers_iteratorINS_15const_buffers_1EcEdeEv
FNDA:0,_ZN4asio16buffers_iteratorINS_15const_buffers_1EcEppEv
FNDA:0,_ZN4asioplERKNS_16buffers_iteratorINS_15const_buffers_1EcEEl
FNDA:0,_ZN4asiomiERKNS_16buffers_iteratorINS_15const_buffers_1EcEES4_
FNDA:0,_ZN4asioeqERKNS_16buffers_iteratorINS_15const_buffers_1EcEES4_
FNDA:0,_ZN4asioneERKNS_16buffers_iteratorINS_15const_buffers_1EcEES4_
FNDA:0,_ZNK4asio16buffers_iteratorINS_15const_buffers_1EcE11dereferenceEv
FNDA:0,_ZNK4asio16buffers_iteratorINS_15const_buffers_1EcE5equalERKS2_
FNDA:0,_ZN4asio16buffers_iteratorINS_15const_buffers_1EcE9incrementEv
FNDA:0,_ZN4asio16buffers_iteratorINS_15const_buffers_1EcE7advanceEl
FNDA:0,_ZNK4asio16buffers_iteratorINS_15const_buffers_1EcE11distance_toERKS2_
FNF:14
FNH:0
DA:156,0
DA:162,0
DA:164,0
DA:167,0
DA:172,0
DA:173,0
DA:174,0
DA:175,0
DA:176,0
DA:178,0
DA:179,0
DA:180,0
DA:181,0
DA:183,0
DA:187,0
DA:192,0
DA:193,0
DA:194,0
DA:195,0
DA:196,0
DA:198,0
DA:199,0
DA:200,0
DA:202,0
DA:206,0
DA:208,0
DA:226,0
DA:228,0
DA:229,0
DA:270,0
DA:273,0
DA:274,0
DA:275,0
DA:297,0
DA:300,0
DA:304,0
DA:306,0
DA:310,0
DA:312,0
DA:341,0
DA:343,0
DA:344,0
DA:348,0
DA:350,0
DA:354,0
DA:356,0
DA:357,0
DA:360,0
DA:361,0
DA:362,0
DA:365,0
DA:366,0
DA:367,0
DA:369,0
DA:370,0
DA:371,0
DA:372,0
DA:407,0
DA:409,0
DA:411,0
DA:412,0
DA:414,0
DA:415,0
DA:418,0
DA:420,0
DA:421,0
DA:422,0
DA:426,0
DA:427,0
DA:431,0
DA:433,0
DA:434,0
DA:435,0
DA:436,0
DA:438,0
DA:439,0
DA:442,0
DA:444,0
DA:445,0
DA:446,0
DA:449,0
DA:451,0
DA:452,0
DA:453,0
DA:457,0
DA:458,0
DA:461,0
DA:463,0
DA:464,0
DA:465,0
DA:469,0
DA:470,0
DA:472,0
DA:473,0
DA:474,0
DA:475,0
DA:477,0
DA:478,0
DA:479,0
DA:480,0
DA:488,0
DA:490,0
LF:102
LH:0
end_of_record
SF:/home/tistrauss/.conan/data/asio/1.13.0/_/_/package/5ab84d6acfe1f23c4fae0ab88f26e3a396351ac9/include/asio/completion_condition.hpp
FN:40,_ZN4asio6detail33adapt_completion_condition_resultEm
FN:51,_ZN4asio6detail14transfer_all_tclISt10error_codeEEmRKT_m
FN:83,_ZN4asio6detail18transfer_exactly_tC2Em
FN:89,_ZN4asio6detail18transfer_exactly_tclISt10error_codeEEmRKT_m
FN:138,_ZN4asio12transfer_allEv
FN:206,_ZN4asio16transfer_exactlyEm
FNDA:0,_ZN4asio6detail33adapt_completion_condition_resultEm
FNDA:0,_ZN4asio6detail14transfer_all_tclISt10error_codeEEmRKT_m
FNDA:0,_ZN4asio6detail18transfer_exactly_tC2Em
FNDA:0,_ZN4asio6detail18transfer_exactly_tclISt10error_codeEEmRKT_m
FNDA:0,_ZN4asio12transfer_allEv
FNDA:0,_ZN4asio16transfer_exactlyEm
FNF:6
FNH:0
DA:40,0
DA:42,0
DA:51,0
DA:53,0
DA:83,0
DA:84,0
DA:86,0
DA:89,0
DA:91,0
DA:92,0
DA:93,0
DA:138,0
DA:140,0
DA:206,0
DA:208,0
LF:15
LH:0
end_of_record
SF:/home/tistrauss/.conan/data/asio/1.13.0/_/_/package/5ab84d6acfe1f23c4fae0ab88f26e3a396351ac9/include/asio/detail/atomic_count.hpp
FN:36,_ZN4asio6detail9incrementERSt6atomicIlEl
FNDA:0,_ZN4asio6detail9incrementERSt6atomicIlEl
FNF:1
FNH:0
DA:36,0
LF:1
LH:0
end_of_record
SF:/home/tistrauss/.conan/data/asio/1.13.0/_/_/package/5ab84d6acfe1f23c4fae0ab88f26e3a396351ac9/include/asio/detail/base_from_completion_cond.hpp
FN:30,_ZN4asio6detail25base_from_completion_condINS0_18transfer_exactly_tEEC2ERS2_
FN:36,_ZN4asio6detail25base_from_completion_condINS0_18transfer_exactly_tEE20check_for_completionERKSt10error_codem
FN:52,_ZN4asio6detail25base_from_completion_condINS0_14transfer_all_tEEC2ES2_
FN:56,_ZN4asio6detail25base_from_completion_condINS0_14transfer_all_tEE20check_for_completionERKSt10error_codem
FNDA:0,_ZN4asio6detail25base_from_completion_condINS0_18transfer_exactly_tEEC2ERS2_
FNDA:0,_ZN4asio6detail25base_from_completion_condINS0_18transfer_exactly_tEE20check_for_completionERKSt10error_codem
FNDA:0,_ZN4asio6detail25base_from_completion_condINS0_14transfer_all_tEEC2ES2_
FNDA:0,_ZN4asio6detail25base_from_completion_condINS0_14transfer_all_tEE20check_for_completionERKSt10error_codem
FNF:4
FNH:0
DA:30,0
DA:32,0
DA:34,0
DA:36,0
DA:40,0
DA:41,0
DA:52,0
DA:54,0
DA:56,0
DA:60,0
LF:10
LH:0
end_of_record
SF:/home/tistrauss/.conan/data/asio/1.13.0/_/_/package/5ab84d6acfe1f23c4fae0ab88f26e3a396351ac9/include/asio/detail/bind_handler.hpp
FN:32,_ZN4asio6detail7binder1IZN9SimpleWeb16SocketClientBaseINS_19basic_stream_socketINS_2ip3tcpENS_8executorEEEE10Connection11set_timeoutElEUlRKSt10error_codeE_SB_ED2Ev
FN:32,_ZN4asio6detail7binder1INS0_16range_connect_opINS_2ip3tcpENS_8executorENS3_22basic_resolver_resultsIS4_EENS0_25default_connect_conditionEZZN9SimpleWeb12SocketClientINS_19basic_stream_socketIS4_S5_EEE7connectEvENKUlRKSt10error_codeS7_E_clESG_S7_EUlSG_NS3_14basic_endpointIS4_EEE_EESE_ED2Ev
FN:36,_ZN4asio6detail7binder1INS0_16range_connect_opINS_2ip3tcpENS_8executorENS3_22basic_resolver_resultsIS4_EENS0_25default_connect_conditionEZZN9SimpleWeb12SocketClientINS_19basic_stream_socketIS4_S5_EEE7connectEvENKUlRKSt10error_codeS7_E_clESG_S7_EUlSG_NS3_14basic_endpointIS4_EEE_EESE_EC2ISL_EEiOT_SG_
FN:42,_ZN4asio6detail7binder1INS0_16range_connect_opINS_2ip3tcpENS_8executorENS3_22basic_resolver_resultsIS4_EENS0_25default_connect_conditionEZZN9SimpleWeb12SocketClientINS_19basic_stream_socketIS4_S5_EEE7connectEvENKUlRKSt10error_codeS7_E_clESG_S7_EUlSG_NS3_14basic_endpointIS4_EEE_EESE_EC2ERSL_SG_
FN:42,_ZN4asio6detail7binder1IZN9SimpleWeb16SocketClientBaseINS_19basic_stream_socketINS_2ip3tcpENS_8executorEEEE10Connection11set_timeoutElEUlRKSt10error_codeE_SB_EC2ERSE_SD_
FN:55,_ZN4asio6detail7binder1INS0_16range_connect_opINS_2ip3tcpENS_8executorENS3_22basic_resolver_resultsIS4_EENS0_25default_connect_conditionEZZN9SimpleWeb12SocketClientINS_19basic_stream_socketIS4_S5_EEE7connectEvENKUlRKSt10error_codeS7_E_clESG_S7_EUlSG_NS3_14basic_endpointIS4_EEE_EESE_EC2EOSM_
FN:55,_ZN4asio6detail7binder1IZN9SimpleWeb16SocketClientBaseINS_19basic_stream_socketINS_2ip3tcpENS_8executorEEEE10Connection11set_timeoutElEUlRKSt10error_codeE_SB_EC2EOSF_
FN:62,_ZN4asio6detail7binder1IZN9SimpleWeb16SocketClientBaseINS_19basic_stream_socketINS_2ip3tcpENS_8executorEEEE10Connection11set_timeoutElEUlRKSt10error_codeE_SB_EclEv
FN:62,_ZN4asio6detail7binder1INS0_16range_connect_opINS_2ip3tcpENS_8executorENS3_22basic_resolver_resultsIS4_EENS0_25default_connect_conditionEZZN9SimpleWeb12SocketClientINS_19basic_stream_socketIS4_S5_EEE7connectEvENKUlRKSt10error_codeS7_E_clESG_S7_EUlSG_NS3_14basic_endpointIS4_EEE_EESE_EclEv
FN:102,_ZN4asio6detail19asio_handler_invokeINS0_7binder1IZN9SimpleWeb16SocketClientBaseINS_19basic_stream_socketINS_2ip3tcpENS_8executorEEEE10Connection11set_timeoutElEUlRKSt10error_codeE_SC_EESF_SC_EEvRT_PNS2_IT0_T1_EE
FN:102,_ZN4asio6detail19asio_handler_invokeINS0_7binder1INS0_16range_connect_opINS_2ip3tcpENS_8executorENS4_22basic_resolver_resultsIS5_EENS0_25default_connect_conditionEZZN9SimpleWeb12SocketClientINS_19basic_stream_socketIS5_S6_EEE7connectEvENKUlRKSt10error_codeS8_E_clESH_S8_EUlSH_NS4_14basic_endpointIS5_EEE_EESF_EESM_SF_EEvRT_PNS2_IT0_T1_EE
FN:118,_ZN4asio6detail12bind_handlerINS0_16range_connect_opINS_2ip3tcpENS_8executorENS3_22basic_resolver_resultsIS4_EENS0_25default_connect_conditionEZZN9SimpleWeb12SocketClientINS_19basic_stream_socketIS4_S5_EEE7connectEvENKUlRKSt10error_codeS7_E_clESG_S7_EUlSG_NS3_14basic_endpointIS4_EEE_EESE_EENS0_7binder1INSt5decayIT_E4typeET0_EEOSO_RKSR_
FN:126,_ZN4asio6detail7binder2INS0_17read_dynbuf_v1_opINS_19basic_stream_socketINS_2ip3tcpENS_8executorEEENS_19basic_streambuf_refISaIcEEENS0_18transfer_exactly_tEZN9SimpleWeb16SocketClientBaseIS7_E20read_message_contentERKSt10shared_ptrINSE_10ConnectionEEmEUlRKSt10error_codemE_EESK_mED2Ev
FN:126,_ZN4asio6detail7binder2INS0_8write_opINS_19basic_stream_socketINS_2ip3tcpENS_8executorEEENS_15const_buffers_1EPKNS_12const_bufferENS0_14transfer_all_tENS0_18write_dynbuf_v1_opIS7_NS_19basic_streambuf_refISaIcEEESC_ZN9SimpleWeb16SocketClientBaseIS7_E7upgradeERKSt10shared_ptrINSJ_10ConnectionEEEUlRKSt10error_codemE_EEEESP_mED2Ev
FN:126,_ZN4asio6detail7binder2INS0_8write_opINS_19basic_stream_socketINS_2ip3tcpENS_8executorEEENS_15const_buffers_1EPKNS_12const_bufferENS0_14transfer_all_tENS0_18write_dynbuf_v1_opIS7_NS_19basic_streambuf_refISaIcEEESC_ZN9SimpleWeb16SocketClientBaseIS7_E10Connection15send_from_queueEvEUlRKSt10error_codemE_EEEESL_mED2Ev
FN:126,_ZN4asio6detail7binder2INS0_17read_dynbuf_v1_opINS_19basic_stream_socketINS_2ip3tcpENS_8executorEEENS_19basic_streambuf_refISaIcEEENS0_18transfer_exactly_tEZZN9SimpleWeb16SocketClientBaseIS7_E12read_messageERKSt10shared_ptrINSE_10ConnectionEEmENKUlRKSt10error_codemE_clESM_mEUlSM_mE_EESK_mED2Ev
FN:126,_ZN4asio6detail7binder2INS0_17read_dynbuf_v1_opINS_19basic_stream_socketINS_2ip3tcpENS_8executorEEENS_19basic_streambuf_refISaIcEEENS0_18transfer_exactly_tEZN9SimpleWeb16SocketClientBaseIS7_E12read_messageERKSt10shared_ptrINSE_10ConnectionEEmEUlRKSt10error_codemE_EESK_mED2Ev
FN:126,_ZN4asio6detail7binder2INS0_29read_until_delim_string_op_v1INS_19basic_stream_socketINS_2ip3tcpENS_8executorEEENS_19basic_streambuf_refISaIcEEEZZN9SimpleWeb16SocketClientBaseIS7_E7upgradeERKSt10shared_ptrINSD_10ConnectionEEENKUlRKSt10error_codemE_clESL_mEUlSL_mE_EESJ_mED2Ev
FN:126,_ZN4asio6detail7binder2IZN9SimpleWeb12SocketClientINS_19basic_stream_socketINS_2ip3tcpENS_8executorEEEE7connectEvEUlRKSt10error_codeNS5_22basic_resolver_resultsIS6_EEE_SA_SE_ED2Ev
FN:126,_ZN4asio6detail7binder2INS0_17read_dynbuf_v1_opINS_19basic_stream_socketINS_2ip3tcpENS_8executorEEENS_19basic_streambuf_refISaIcEEENS0_18transfer_exactly_tEZZN9SimpleWeb16SocketClientBaseIS7_E12read_messageERKSt10shared_ptrINSE_10ConnectionEEmENKUlRKSt10error_codemE_clESM_mEUlSM_mE0_EESK_mED2Ev
FN:138,_ZN4asio6detail7binder2INS0_17read_dynbuf_v1_opINS_19basic_stream_socketINS_2ip3tcpENS_8executorEEENS_19basic_streambuf_refISaIcEEENS0_18transfer_exactly_tEZN9SimpleWeb16SocketClientBaseIS7_E20read_message_contentERKSt10shared_ptrINSE_10ConnectionEEmEUlRKSt10error_codemE_EESK_mEC2ERSO_SM_RKm
FN:138,_ZN4asio6detail7binder2INS0_17read_dynbuf_v1_opINS_19basic_stream_socketINS_2ip3tcpENS_8executorEEENS_19basic_streambuf_refISaIcEEENS0_18transfer_exactly_tEZZN9SimpleWeb16SocketClientBaseIS7_E12read_messageERKSt10shared_ptrINSE_10ConnectionEEmENKUlRKSt10error_codemE_clESM_mEUlSM_mE_EESK_mEC2ERSP_SM_RKm
FN:138,_ZN4asio6detail7binder2IZN9SimpleWeb12SocketClientINS_19basic_stream_socketINS_2ip3tcpENS_8executorEEEE7connectEvEUlRKSt10error_codeNS5_22basic_resolver_resultsIS6_EEE_SA_SE_EC2ERSF_SC_RKSE_
FN:138,_ZN4asio6detail7binder2INS0_17read_dynbuf_v1_opINS_19basic_stream_socketINS_2ip3tcpENS_8executorEEENS_19basic_streambuf_refISaIcEEENS0_18transfer_exactly_tEZN9SimpleWeb16SocketClientBaseIS7_E12read_messageERKSt10shared_ptrINSE_10ConnectionEEmEUlRKSt10error_codemE_EESK_mEC2ERSO_SM_RKm
FN:138,_ZN4asio6detail7binder2INS0_29read_until_delim_string_op_v1INS_19basic_stream_socketINS_2ip3tcpENS_8executorEEENS_19basic_streambuf_refISaIcEEEZZN9SimpleWeb16SocketClientBaseIS7_E7upgradeERKSt10shared_ptrINSD_10ConnectionEEENKUlRKSt10error_codemE_clESL_mEUlSL_mE_EESJ_mEC2ERSO_SL_RKm
FN:138,_ZN4asio6detail7binder2INS0_17read_dynbuf_v1_opINS_19basic_stream_socketINS_2ip3tcpENS_8executorEEENS_19basic_streambuf_refISaIcEEENS0_18transfer_exactly_tEZZN9SimpleWeb16SocketClientBaseIS7_E12read_messageERKSt10shared_ptrINSE_10ConnectionEEmENKUlRKSt10error_codemE_clESM_mEUlSM_mE0_EESK_mEC2ERSP_SM_RKm
FN:138,_ZN4asio6detail7binder2INS0_8write_opINS_19basic_stream_socketINS_2ip3tcpENS_8executorEEENS_15const_buffers_1EPKNS_12const_bufferENS0_14transfer_all_tENS0_18write_dynbuf_v1_opIS7_NS_19basic_streambuf_refISaIcEEESC_ZN9SimpleWeb16SocketClientBaseIS7_E10Connection15send_from_queueEvEUlRKSt10error_codemE_EEEESL_mEC2ERSQ_SN_RKm
FN:138,_ZN4asio6detail7binder2INS0_8write_opINS_19basic_stream_socketINS_2ip3tcpENS_8executorEEENS_15const_buffers_1EPKNS_12const_bufferENS0_14transfer_all_tENS0_18write_dynbuf_v1_opIS7_NS_19basic_streambuf_refISaIcEEESC_ZN9SimpleWeb16SocketClientBaseIS7_E7upgradeERKSt10shared_ptrINSJ_10ConnectionEEEUlRKSt10error_codemE_EEEESP_mEC2ERSU_SR_RKm
FN:153,_ZN4asio6detail7binder2INS0_17read_dynbuf_v1_opINS_19basic_stream_socketINS_2ip3tcpENS_8executorEEENS_19basic_streambuf_refISaIcEEENS0_18transfer_exactly_tEZN9SimpleWeb16SocketClientBaseIS7_E12read_messageERKSt10shared_ptrINSE_10ConnectionEEmEUlRKSt10error_codemE_EESK_mEC2EOSP_
FN:153,_ZN4asio6detail7binder2INS0_17read_dynbuf_v1_opINS_19basic_stream_socketINS_2ip3tcpENS_8executorEEENS_19basic_streambuf_refISaIcEEENS0_18transfer_exactly_tEZZN9SimpleWeb16SocketClientBaseIS7_E12read_messageERKSt10shared_ptrINSE_10ConnectionEEmENKUlRKSt10error_codemE_clESM_mEUlSM_mE0_EESK_mEC2EOSQ_
FN:153,_ZN4asio6detail7binder2INS0_8write_opINS_19basic_stream_socketINS_2ip3tcpENS_8executorEEENS_15const_buffers_1EPKNS_12const_bufferENS0_14transfer_all_tENS0_18write_dynbuf_v1_opIS7_NS_19basic_streambuf_refISaIcEEESC_ZN9SimpleWeb16SocketClientBaseIS7_E7upgradeERKSt10shared_ptrINSJ_10ConnectionEEEUlRKSt10error_codemE_EEEESP_mEC2EOSV_
FN:153,_ZN4asio6detail7binder2INS0_17read_dynbuf_v1_opINS_19basic_stream_socketINS_2ip3tcpENS_8executorEEENS_19basic_streambuf_refISaIcEEENS0_18transfer_exactly_tEZZN9SimpleWeb16SocketClientBaseIS7_E12read_messageERKSt10shared_ptrINSE_10ConnectionEEmENKUlRKSt10error_codemE_clESM_mEUlSM_mE_EESK_mEC2EOSQ_
FN:153,_ZN4asio6detail7binder2INS0_8write_opINS_19basic_stream_socketINS_2ip3tcpENS_8executorEEENS_15const_buffers_1EPKNS_12const_bufferENS0_14transfer_all_tENS0_18write_dynbuf_v1_opIS7_NS_19basic_streambuf_refISaIcEEESC_ZN9SimpleWeb16SocketClientBaseIS7_E10Connection15send_from_queueEvEUlRKSt10error_codemE_EEEESL_mEC2EOSR_
FN:153,_ZN4asio6detail7binder2IZN9SimpleWeb12SocketClientINS_19basic_stream_socketINS_2ip3tcpENS_8executorEEEE7connectEvEUlRKSt10error_codeNS5_22basic_resolver_resultsIS6_EEE_SA_SE_EC2EOSG_
FN:153,_ZN4asio6detail7binder2INS0_17read_dynbuf_v1_opINS_19basic_stream_socketINS_2ip3tcpENS_8executorEEENS_19basic_streambuf_refISaIcEEENS0_18transfer_exactly_tEZN9SimpleWeb16SocketClientBaseIS7_E20read_message_contentERKSt10shared_ptrINSE_10ConnectionEEmEUlRKSt10error_codemE_EESK_mEC2EOSP_
FN:153,_ZN4asio6detail7binder2INS0_29read_until_delim_string_op_v1INS_19basic_stream_socketINS_2ip3tcpENS_8executorEEENS_19basic_streambuf_refISaIcEEEZZN9SimpleWeb16SocketClientBaseIS7_E7upgradeERKSt10shared_ptrINSD_10ConnectionEEENKUlRKSt10error_codemE_clESL_mEUlSL_mE_EESJ_mEC2EOSP_
FN:161,_ZN4asio6detail7binder2INS0_17read_dynbuf_v1_opINS_19basic_stream_socketINS_2ip3tcpENS_8executorEEENS_19basic_streambuf_refISaIcEEENS0_18transfer_exactly_tEZZN9SimpleWeb16SocketClientBaseIS7_E12read_messageERKSt10shared_ptrINSE_10ConnectionEEmENKUlRKSt10error_codemE_clESM_mEUlSM_mE_EESK_mEclEv
FN:161,_ZN4asio6detail7binder2INS0_17read_dynbuf_v1_opINS_19basic_stream_socketINS_2ip3tcpENS_8executorEEENS_19basic_streambuf_refISaIcEEENS0_18transfer_exactly_tEZN9SimpleWeb16SocketClientBaseIS7_E12read_messageERKSt10shared_ptrINSE_10ConnectionEEmEUlRKSt10error_codemE_EESK_mEclEv
FN:161,_ZN4asio6detail7binder2INS0_8write_opINS_19basic_stream_socketINS_2ip3tcpENS_8executorEEENS_15const_buffers_1EPKNS_12const_bufferENS0_14transfer_all_tENS0_18write_dynbuf_v1_opIS7_NS_19basic_streambuf_refISaIcEEESC_ZN9SimpleWeb16SocketClientBaseIS7_E10Connection15send_from_queueEvEUlRKSt10error_codemE_EEEESL_mEclEv
FN:161,_ZN4asio6detail7binder2IZN9SimpleWeb12SocketClientINS_19basic_stream_socketINS_2ip3tcpENS_8executorEEEE7connectEvEUlRKSt10error_codeNS5_22basic_resolver_resultsIS6_EEE_SA_SE_EclEv
FN:161,_ZN4asio6detail7binder2INS0_17read_dynbuf_v1_opINS_19basic_stream_socketINS_2ip3tcpENS_8executorEEENS_19basic_streambuf_refISaIcEEENS0_18transfer_exactly_tEZN9SimpleWeb16SocketClientBaseIS7_E20read_message_contentERKSt10shared_ptrINSE_10ConnectionEEmEUlRKSt10error_codemE_EESK_mEclEv
FN:161,_ZN4asio6detail7binder2INS0_29read_until_delim_string_op_v1INS_19basic_stream_socketINS_2ip3tcpENS_8executorEEENS_19basic_streambuf_refISaIcEEEZZN9SimpleWeb16SocketClientBaseIS7_E7upgradeERKSt10shared_ptrINSD_10ConnectionEEENKUlRKSt10error_codemE_clESL_mEUlSL_mE_EESJ_mEclEv
FN:161,_ZN4asio6detail7binder2INS0_17read_dynbuf_v1_opINS_19basic_stream_socketINS_2ip3tcpENS_8executorEEENS_19basic_streambuf_refISaIcEEENS0_18transfer_exactly_tEZZN9SimpleWeb16SocketClientBaseIS7_E12read_messageERKSt10shared_ptrINSE_10ConnectionEEmENKUlRKSt10error_codemE_clESM_mEUlSM_mE0_EESK_mEclEv
FN:161,_ZN4asio6detail7binder2INS0_8write_opINS_19basic_stream_socketINS_2ip3tcpENS_8executorEEENS_15const_buffers_1EPKNS_12const_bufferENS0_14transfer_all_tENS0_18write_dynbuf_v1_opIS7_NS_19basic_streambuf_refISaIcEEESC_ZN9SimpleWeb16SocketClientBaseIS7_E7upgradeERKSt10shared_ptrINSJ_10ConnectionEEEUlRKSt10error_codemE_EEEESP_mEclEv
FN:203,_ZN4asio6detail19asio_handler_invokeINS0_7binder2IZN9SimpleWeb12SocketClientINS_19basic_stream_socketINS_2ip3tcpENS_8executorEEEE7connectEvEUlRKSt10error_codeNS6_22basic_resolver_resultsIS7_EEE_SB_SF_EESG_SB_SF_EEvRT_PNS2_IT0_T1_T2_EE
FN:203,_ZN4asio6detail19asio_handler_invokeINS0_7binder2INS0_29read_until_delim_string_op_v1INS_19basic_stream_socketINS_2ip3tcpENS_8executorEEENS_19basic_streambuf_refISaIcEEEZZN9SimpleWeb16SocketClientBaseIS8_E7upgradeERKSt10shared_ptrINSE_10ConnectionEEENKUlRKSt10error_codemE_clESM_mEUlSM_mE_EESK_mEESP_SK_mEEvRT_PNS2_IT0_T1_T2_EE
FN:203,_ZN4asio6detail19asio_handler_invokeINS0_7binder2INS0_8write_opINS_19basic_stream_socketINS_2ip3tcpENS_8executorEEENS_15const_buffers_1EPKNS_12const_bufferENS0_14transfer_all_tENS0_18write_dynbuf_v1_opIS8_NS_19basic_streambuf_refISaIcEEESD_ZN9SimpleWeb16SocketClientBaseIS8_E10Connection15send_from_queueEvEUlRKSt10error_codemE_EEEESM_mEESR_SM_mEEvRT_PNS2_IT0_T1_T2_EE
FN:203,_ZN4asio6detail19asio_handler_invokeINS0_7binder2INS0_17read_dynbuf_v1_opINS_19basic_stream_socketINS_2ip3tcpENS_8executorEEENS_19basic_streambuf_refISaIcEEENS0_18transfer_exactly_tEZN9SimpleWeb16SocketClientBaseIS8_E12read_messageERKSt10shared_ptrINSF_10ConnectionEEmEUlRKSt10error_codemE_EESL_mEESP_SL_mEEvRT_PNS2_IT0_T1_T2_EE
FN:203,_ZN4asio6detail19asio_handler_invokeINS0_7binder2INS0_17read_dynbuf_v1_opINS_19basic_stream_socketINS_2ip3tcpENS_8executorEEENS_19basic_streambuf_refISaIcEEENS0_18transfer_exactly_tEZZN9SimpleWeb16SocketClientBaseIS8_E12read_messageERKSt10shared_ptrINSF_10ConnectionEEmENKUlRKSt10error_codemE_clESN_mEUlSN_mE_EESL_mEESQ_SL_mEEvRT_PNS2_IT0_T1_T2_EE
FN:203,_ZN4asio6detail19asio_handler_invokeINS0_7binder2INS0_17read_dynbuf_v1_opINS_19basic_stream_socketINS_2ip3tcpENS_8executorEEENS_19basic_streambuf_refISaIcEEENS0_18transfer_exactly_tEZN9SimpleWeb16SocketClientBaseIS8_E20read_message_contentERKSt10shared_ptrINSF_10ConnectionEEmEUlRKSt10error_codemE_EESL_mEESP_SL_mEEvRT_PNS2_IT0_T1_T2_EE
FN:203,_ZN4asio6detail19asio_handler_invokeINS0_7binder2INS0_17read_dynbuf_v1_opINS_19basic_stream_socketINS_2ip3tcpENS_8executorEEENS_19basic_streambuf_refISaIcEEENS0_18transfer_exactly_tEZZN9SimpleWeb16SocketClientBaseIS8_E12read_messageERKSt10shared_ptrINSF_10ConnectionEEmENKUlRKSt10error_codemE_clESN_mEUlSN_mE0_EESL_mEESQ_SL_mEEvRT_PNS2_IT0_T1_T2_EE
FN:203,_ZN4asio6detail19asio_handler_invokeINS0_7binder2INS0_8write_opINS_19basic_stream_socketINS_2ip3tcpENS_8executorEEENS_15const_buffers_1EPKNS_12const_bufferENS0_14transfer_all_tENS0_18write_dynbuf_v1_opIS8_NS_19basic_streambuf_refISaIcEEESD_ZN9SimpleWeb16SocketClientBaseIS8_E7upgradeERKSt10shared_ptrINSK_10ConnectionEEEUlRKSt10error_codemE_EEEESQ_mEESV_SQ_mEEvRT_PNS2_IT0_T1_T2_EE
FN:716,_ZN4asio20associated_allocatorINS_6detail7binder1INS1_16range_connect_opINS_2ip3tcpENS_8executorENS4_22basic_resolver_resultsIS5_EENS1_25default_connect_conditionEZZN9SimpleWeb12SocketClientINS_19basic_stream_socketIS5_S6_EEE7connectEvENKUlRKSt10error_codeS8_E_clESH_S8_EUlSH_NS4_14basic_endpointIS5_EEE_EESF_EESaIvEE3getERKSN_RKSO_
FN:740,_ZN4asio19associated_executorINS_6detail7binder1INS1_16range_connect_opINS_2ip3tcpENS_8executorENS4_22basic_resolver_resultsIS5_EENS1_25default_connect_conditionEZZN9SimpleWeb12SocketClientINS_19basic_stream_socketIS5_S6_EEE7connectEvENKUlRKSt10error_codeS8_E_clESH_S8_EUlSH_NS4_14basic_endpointIS5_EEE_EESF_EENS_15system_executorEE3getERKSN_RKSO_
FNDA:0,_ZN4asio6detail7binder1IZN9SimpleWeb16SocketClientBaseINS_19basic_stream_socketINS_2ip3tcpENS_8executorEEEE10Connection11set_timeoutElEUlRKSt10error_codeE_SB_ED2Ev
FNDA:0,_ZN4asio6detail7binder1INS0_16range_connect_opINS_2ip3tcpENS_8executorENS3_22basic_resolver_resultsIS4_EENS0_25default_connect_conditionEZZN9SimpleWeb12SocketClientINS_19basic_stream_socketIS4_S5_EEE7connectEvENKUlRKSt10error_codeS7_E_clESG_S7_EUlSG_NS3_14basic_endpointIS4_EEE_EESE_ED2Ev
FNDA:0,_ZN4asio6detail7binder1INS0_16range_connect_opINS_2ip3tcpENS_8executorENS3_22basic_resolver_resultsIS4_EENS0_25default_connect_conditionEZZN9SimpleWeb12SocketClientINS_19basic_stream_socketIS4_S5_EEE7connectEvENKUlRKSt10error_codeS7_E_clESG_S7_EUlSG_NS3_14basic_endpointIS4_EEE_EESE_EC2ISL_EEiOT_SG_
FNDA:0,_ZN4asio6detail7binder1INS0_16range_connect_opINS_2ip3tcpENS_8executorENS3_22basic_resolver_resultsIS4_EENS0_25default_connect_conditionEZZN9SimpleWeb12SocketClientINS_19basic_stream_socketIS4_S5_EEE7connectEvENKUlRKSt10error_codeS7_E_clESG_S7_EUlSG_NS3_14basic_endpointIS4_EEE_EESE_EC2ERSL_SG_
FNDA:0,_ZN4asio6detail7binder1IZN9SimpleWeb16SocketClientBaseINS_19basic_stream_socketINS_2ip3tcpENS_8executorEEEE10Connection11set_timeoutElEUlRKSt10error_codeE_SB_EC2ERSE_SD_
FNDA:0,_ZN4asio6detail7binder1IZN9SimpleWeb16SocketClientBaseINS_19basic_stream_socketINS_2ip3tcpENS_8executorEEEE10Connection11set_timeoutElEUlRKSt10error_codeE_SB_EC2EOSF_
FNDA:0,_ZN4asio6detail7binder1INS0_16range_connect_opINS_2ip3tcpENS_8executorENS3_22basic_resolver_resultsIS4_EENS0_25default_connect_conditionEZZN9SimpleWeb12SocketClientINS_19basic_stream_socketIS4_S5_EEE7connectEvENKUlRKSt10error_codeS7_E_clESG_S7_EUlSG_NS3_14basic_endpointIS4_EEE_EESE_EC2EOSM_
FNDA:0,_ZN4asio6detail7binder1INS0_16range_connect_opINS_2ip3tcpENS_8executorENS3_22basic_resolver_resultsIS4_EENS0_25default_connect_conditionEZZN9SimpleWeb12SocketClientINS_19basic_stream_socketIS4_S5_EEE7connectEvENKUlRKSt10error_codeS7_E_clESG_S7_EUlSG_NS3_14basic_endpointIS4_EEE_EESE_EclEv
FNDA:0,_ZN4asio6detail7binder1IZN9SimpleWeb16SocketClientBaseINS_19basic_stream_socketINS_2ip3tcpENS_8executorEEEE10Connection11set_timeoutElEUlRKSt10error_codeE_SB_EclEv
FNDA:0,_ZN4asio6detail19asio_handler_invokeINS0_7binder1INS0_16range_connect_opINS_2ip3tcpENS_8executorENS4_22basic_resolver_resultsIS5_EENS0_25default_connect_conditionEZZN9SimpleWeb12SocketClientINS_19basic_stream_socketIS5_S6_EEE7connectEvENKUlRKSt10error_codeS8_E_clESH_S8_EUlSH_NS4_14basic_endpointIS5_EEE_EESF_EESM_SF_EEvRT_PNS2_IT0_T1_EE
FNDA:0,_ZN4asio6detail19asio_handler_invokeINS0_7binder1IZN9SimpleWeb16SocketClientBaseINS_19basic_stream_socketINS_2ip3tcpENS_8executorEEEE10Connection11set_timeoutElEUlRKSt10error_codeE_SC_EESF_SC_EEvRT_PNS2_IT0_T1_EE
FNDA:0,_ZN4asio6detail12bind_handlerINS0_16range_connect_opINS_2ip3tcpENS_8executorENS3_22basic_resolver_resultsIS4_EENS0_25default_connect_conditionEZZN9SimpleWeb12SocketClientINS_19basic_stream_socketIS4_S5_EEE7connectEvENKUlRKSt10error_codeS7_E_clESG_S7_EUlSG_NS3_14basic_endpointIS4_EEE_EESE_EENS0_7binder1INSt5decayIT_E4typeET0_EEOSO_RKSR_
FNDA:0,_ZN4asio6detail7binder2INS0_8write_opINS_19basic_stream_socketINS_2ip3tcpENS_8executorEEENS_15const_buffers_1EPKNS_12const_bufferENS0_14transfer_all_tENS0_18write_dynbuf_v1_opIS7_NS_19basic_streambuf_refISaIcEEESC_ZN9SimpleWeb16SocketClientBaseIS7_E10Connection15send_from_queueEvEUlRKSt10error_codemE_EEEESL_mED2Ev
FNDA:0,_ZN4asio6detail7binder2INS0_8write_opINS_19basic_stream_socketINS_2ip3tcpENS_8executorEEENS_15const_buffers_1EPKNS_12const_bufferENS0_14transfer_all_tENS0_18write_dynbuf_v1_opIS7_NS_19basic_streambuf_refISaIcEEESC_ZN9SimpleWeb16SocketClientBaseIS7_E7upgradeERKSt10shared_ptrINSJ_10ConnectionEEEUlRKSt10error_codemE_EEEESP_mED2Ev
FNDA:0,_ZN4asio6detail7binder2INS0_17read_dynbuf_v1_opINS_19basic_stream_socketINS_2ip3tcpENS_8executorEEENS_19basic_streambuf_refISaIcEEENS0_18transfer_exactly_tEZN9SimpleWeb16SocketClientBaseIS7_E20read_message_contentERKSt10shared_ptrINSE_10ConnectionEEmEUlRKSt10error_codemE_EESK_mED2Ev
FNDA:0,_ZN4asio6detail7binder2INS0_17read_dynbuf_v1_opINS_19basic_stream_socketINS_2ip3tcpENS_8executorEEENS_19basic_streambuf_refISaIcEEENS0_18transfer_exactly_tEZN9SimpleWeb16SocketClientBaseIS7_E12read_messageERKSt10shared_ptrINSE_10ConnectionEEmEUlRKSt10error_codemE_EESK_mED2Ev
FNDA:0,_ZN4asio6detail7binder2INS0_17read_dynbuf_v1_opINS_19basic_stream_socketINS_2ip3tcpENS_8executorEEENS_19basic_streambuf_refISaIcEEENS0_18transfer_exactly_tEZZN9SimpleWeb16SocketClientBaseIS7_E12read_messageERKSt10shared_ptrINSE_10ConnectionEEmENKUlRKSt10error_codemE_clESM_mEUlSM_mE0_EESK_mED2Ev
FNDA:0,_ZN4asio6detail7binder2INS0_17read_dynbuf_v1_opINS_19basic_stream_socketINS_2ip3tcpENS_8executorEEENS_19basic_streambuf_refISaIcEEENS0_18transfer_exactly_tEZZN9SimpleWeb16SocketClientBaseIS7_E12read_messageERKSt10shared_ptrINSE_10ConnectionEEmENKUlRKSt10error_codemE_clESM_mEUlSM_mE_EESK_mED2Ev
FNDA:0,_ZN4asio6detail7binder2INS0_29read_until_delim_string_op_v1INS_19basic_stream_socketINS_2ip3tcpENS_8executorEEENS_19basic_streambuf_refISaIcEEEZZN9SimpleWeb16SocketClientBaseIS7_E7upgradeERKSt10shared_ptrINSD_10ConnectionEEENKUlRKSt10error_codemE_clESL_mEUlSL_mE_EESJ_mED2Ev
FNDA:0,_ZN4asio6detail7binder2IZN9SimpleWeb12SocketClientINS_19basic_stream_socketINS_2ip3tcpENS_8executorEEEE7connectEvEUlRKSt10error_codeNS5_22basic_resolver_resultsIS6_EEE_SA_SE_ED2Ev
FNDA:0,_ZN4asio6detail7binder2INS0_8write_opINS_19basic_stream_socketINS_2ip3tcpENS_8executorEEENS_15const_buffers_1EPKNS_12const_bufferENS0_14transfer_all_tENS0_18write_dynbuf_v1_opIS7_NS_19basic_streambuf_refISaIcEEESC_ZN9SimpleWeb16SocketClientBaseIS7_E10Connection15send_from_queueEvEUlRKSt10error_codemE_EEEESL_mEC2ERSQ_SN_RKm
FNDA:0,_ZN4asio6detail7binder2INS0_8write_opINS_19basic_stream_socketINS_2ip3tcpENS_8executorEEENS_15const_buffers_1EPKNS_12const_bufferENS0_14transfer_all_tENS0_18write_dynbuf_v1_opIS7_NS_19basic_streambuf_refISaIcEEESC_ZN9SimpleWeb16SocketClientBaseIS7_E7upgradeERKSt10shared_ptrINSJ_10ConnectionEEEUlRKSt10error_codemE_EEEESP_mEC2ERSU_SR_RKm
FNDA:0,_ZN4asio6detail7binder2INS0_17read_dynbuf_v1_opINS_19basic_stream_socketINS_2ip3tcpENS_8executorEEENS_19basic_streambuf_refISaIcEEENS0_18transfer_exactly_tEZN9SimpleWeb16SocketClientBaseIS7_E20read_message_contentERKSt10shared_ptrINSE_10ConnectionEEmEUlRKSt10error_codemE_EESK_mEC2ERSO_SM_RKm
FNDA:0,_ZN4asio6detail7binder2INS0_17read_dynbuf_v1_opINS_19basic_stream_socketINS_2ip3tcpENS_8executorEEENS_19basic_streambuf_refISaIcEEENS0_18transfer_exactly_tEZN9SimpleWeb16SocketClientBaseIS7_E12read_messageERKSt10shared_ptrINSE_10ConnectionEEmEUlRKSt10error_codemE_EESK_mEC2ERSO_SM_RKm
FNDA:0,_ZN4asio6detail7binder2INS0_17read_dynbuf_v1_opINS_19basic_stream_socketINS_2ip3tcpENS_8executorEEENS_19basic_streambuf_refISaIcEEENS0_18transfer_exactly_tEZZN9SimpleWeb16SocketClientBaseIS7_E12read_messageERKSt10shared_ptrINSE_10ConnectionEEmENKUlRKSt10error_codemE_clESM_mEUlSM_mE0_EESK_mEC2ERSP_SM_RKm
FNDA:0,_ZN4asio6detail7binder2INS0_17read_dynbuf_v1_opINS_19basic_stream_socketINS_2ip3tcpENS_8executorEEENS_19basic_streambuf_refISaIcEEENS0_18transfer_exactly_tEZZN9SimpleWeb16SocketClientBaseIS7_E12read_messageERKSt10shared_ptrINSE_10ConnectionEEmENKUlRKSt10error_codemE_clESM_mEUlSM_mE_EESK_mEC2ERSP_SM_RKm
FNDA:0,_ZN4asio6detail7binder2INS0_29read_until_delim_string_op_v1INS_19basic_stream_socketINS_2ip3tcpENS_8executorEEENS_19basic_streambuf_refISaIcEEEZZN9SimpleWeb16SocketClientBaseIS7_E7upgradeERKSt10shared_ptrINSD_10ConnectionEEENKUlRKSt10error_codemE_clESL_mEUlSL_mE_EESJ_mEC2ERSO_SL_RKm
FNDA:0,_ZN4asio6detail7binder2IZN9SimpleWeb12SocketClientINS_19basic_stream_socketINS_2ip3tcpENS_8executorEEEE7connectEvEUlRKSt10error_codeNS5_22basic_resolver_resultsIS6_EEE_SA_SE_EC2ERSF_SC_RKSE_
FNDA:0,_ZN4asio6detail7binder2INS0_8write_opINS_19basic_stream_socketINS_2ip3tcpENS_8executorEEENS_15const_buffers_1EPKNS_12const_bufferENS0_14transfer_all_tENS0_18write_dynbuf_v1_opIS7_NS_19basic_streambuf_refISaIcEEESC_ZN9SimpleWeb16SocketClientBaseIS7_E10Connection15send_from_queueEvEUlRKSt10error_codemE_EEEESL_mEC2EOSR_
FNDA:0,_ZN4asio6detail7binder2INS0_8write_opINS_19basic_stream_socketINS_2ip3tcpENS_8executorEEENS_15const_buffers_1EPKNS_12const_bufferENS0_14transfer_all_tENS0_18write_dynbuf_v1_opIS7_NS_19basic_streambuf_refISaIcEEESC_ZN9SimpleWeb16SocketClientBaseIS7_E7upgradeERKSt10shared_ptrINSJ_10ConnectionEEEUlRKSt10error_codemE_EEEESP_mEC2EOSV_
FNDA:0,_ZN4asio6detail7binder2INS0_17read_dynbuf_v1_opINS_19basic_stream_socketINS_2ip3tcpENS_8executorEEENS_19basic_streambuf_refISaIcEEENS0_18transfer_exactly_tEZN9SimpleWeb16SocketClientBaseIS7_E20read_message_contentERKSt10shared_ptrINSE_10ConnectionEEmEUlRKSt10error_codemE_EESK_mEC2EOSP_
FNDA:0,_ZN4asio6detail7binder2INS0_17read_dynbuf_v1_opINS_19basic_stream_socketINS_2ip3tcpENS_8executorEEENS_19basic_streambuf_refISaIcEEENS0_18transfer_exactly_tEZN9SimpleWeb16SocketClientBaseIS7_E12read_messageERKSt10shared_ptrINSE_10ConnectionEEmEUlRKSt10error_codemE_EESK_mEC2EOSP_
FNDA:0,_ZN4asio6detail7binder2INS0_17read_dynbuf_v1_opINS_19basic_stream_socketINS_2ip3tcpENS_8executorEEENS_19basic_streambuf_refISaIcEEENS0_18transfer_exactly_tEZZN9SimpleWeb16SocketClientBaseIS7_E12read_messageERKSt10shared_ptrINSE_10ConnectionEEmENKUlRKSt10error_codemE_clESM_mEUlSM_mE0_EESK_mEC2EOSQ_
FNDA:0,_ZN4asio6detail7binder2INS0_17read_dynbuf_v1_opINS_19basic_stream_socketINS_2ip3tcpENS_8executorEEENS_19basic_streambuf_refISaIcEEENS0_18transfer_exactly_tEZZN9SimpleWeb16SocketClientBaseIS7_E12read_messageERKSt10shared_ptrINSE_10ConnectionEEmENKUlRKSt10error_codemE_clESM_mEUlSM_mE_EESK_mEC2EOSQ_
FNDA:0,_ZN4asio6detail7binder2INS0_29read_until_delim_string_op_v1INS_19basic_stream_socketINS_2ip3tcpENS_8executorEEENS_19basic_streambuf_refISaIcEEEZZN9SimpleWeb16SocketClientBaseIS7_E7upgradeERKSt10shared_ptrINSD_10ConnectionEEENKUlRKSt10error_codemE_clESL_mEUlSL_mE_EESJ_mEC2EOSP_
FNDA:0,_ZN4asio6detail7binder2IZN9SimpleWeb12SocketClientINS_19basic_stream_socketINS_2ip3tcpENS_8executorEEEE7connectEvEUlRKSt10error_codeNS5_22basic_resolver_resultsIS6_EEE_SA_SE_EC2EOSG_
FNDA:0,_ZN4asio6detail7binder2INS0_8write_opINS_19basic_stream_socketINS_2ip3tcpENS_8executorEEENS_15const_buffers_1EPKNS_12const_bufferENS0_14transfer_all_tENS0_18write_dynbuf_v1_opIS7_NS_19basic_streambuf_refISaIcEEESC_ZN9SimpleWeb16SocketClientBaseIS7_E10Connection15send_from_queueEvEUlRKSt10error_codemE_EEEESL_mEclEv
FNDA:0,_ZN4asio6detail7binder2INS0_8write_opINS_19basic_stream_socketINS_2ip3tcpENS_8executorEEENS_15const_buffers_1EPKNS_12const_bufferENS0_14transfer_all_tENS0_18write_dynbuf_v1_opIS7_NS_19basic_streambuf_refISaIcEEESC_ZN9SimpleWeb16SocketClientBaseIS7_E7upgradeERKSt10shared_ptrINSJ_10ConnectionEEEUlRKSt10error_codemE_EEEESP_mEclEv
FNDA:0,_ZN4asio6detail7binder2INS0_17read_dynbuf_v1_opINS_19basic_stream_socketINS_2ip3tcpENS_8executorEEENS_19basic_streambuf_refISaIcEEENS0_18transfer_exactly_tEZN9SimpleWeb16SocketClientBaseIS7_E20read_message_contentERKSt10shared_ptrINSE_10ConnectionEEmEUlRKSt10error_codemE_EESK_mEclEv
FNDA:0,_ZN4asio6detail7binder2INS0_17read_dynbuf_v1_opINS_19basic_stream_socketINS_2ip3tcpENS_8executorEEENS_19basic_streambuf_refISaIcEEENS0_18transfer_exactly_tEZN9SimpleWeb16SocketClientBaseIS7_E12read_messageERKSt10shared_ptrINSE_10ConnectionEEmEUlRKSt10error_codemE_EESK_mEclEv
FNDA:0,_ZN4asio6detail7binder2INS0_17read_dynbuf_v1_opINS_19basic_stream_socketINS_2ip3tcpENS_8executorEEENS_19basic_streambuf_refISaIcEEENS0_18transfer_exactly_tEZZN9SimpleWeb16SocketClientBaseIS7_E12read_messageERKSt10shared_ptrINSE_10ConnectionEEmENKUlRKSt10error_codemE_clESM_mEUlSM_mE0_EESK_mEclEv
FNDA:0,_ZN4asio6detail7binder2INS0_17read_dynbuf_v1_opINS_19basic_stream_socketINS_2ip3tcpENS_8executorEEENS_19basic_streambuf_refISaIcEEENS0_18transfer_exactly_tEZZN9SimpleWeb16SocketClientBaseIS7_E12read_messageERKSt10shared_ptrINSE_10ConnectionEEmENKUlRKSt10error_codemE_clESM_mEUlSM_mE_EESK_mEclEv
FNDA:0,_ZN4asio6detail7binder2INS0_29read_until_delim_string_op_v1INS_19basic_stream_socketINS_2ip3tcpENS_8executorEEENS_19basic_streambuf_refISaIcEEEZZN9SimpleWeb16SocketClientBaseIS7_E7upgradeERKSt10shared_ptrINSD_10ConnectionEEENKUlRKSt10error_codemE_clESL_mEUlSL_mE_EESJ_mEclEv
FNDA:0,_ZN4asio6detail7binder2IZN9SimpleWeb12SocketClientINS_19basic_stream_socketINS_2ip3tcpENS_8executorEEEE7connectEvEUlRKSt10error_codeNS5_22basic_resolver_resultsIS6_EEE_SA_SE_EclEv
FNDA:0,_ZN4asio6detail19asio_handler_invokeINS0_7binder2INS0_8write_opINS_19basic_stream_socketINS_2ip3tcpENS_8executorEEENS_15const_buffers_1EPKNS_12const_bufferENS0_14transfer_all_tENS0_18write_dynbuf_v1_opIS8_NS_19basic_streambuf_refISaIcEEESD_ZN9SimpleWeb16SocketClientBaseIS8_E10Connection15send_from_queueEvEUlRKSt10error_codemE_EEEESM_mEESR_SM_mEEvRT_PNS2_IT0_T1_T2_EE
FNDA:0,_ZN4asio6detail19asio_handler_invokeINS0_7binder2INS0_8write_opINS_19basic_stream_socketINS_2ip3tcpENS_8executorEEENS_15const_buffers_1EPKNS_12const_bufferENS0_14transfer_all_tENS0_18write_dynbuf_v1_opIS8_NS_19basic_streambuf_refISaIcEEESD_ZN9SimpleWeb16SocketClientBaseIS8_E7upgradeERKSt10shared_ptrINSK_10ConnectionEEEUlRKSt10error_codemE_EEEESQ_mEESV_SQ_mEEvRT_PNS2_IT0_T1_T2_EE
FNDA:0,_ZN4asio6detail19asio_handler_invokeINS0_7binder2INS0_17read_dynbuf_v1_opINS_19basic_stream_socketINS_2ip3tcpENS_8executorEEENS_19basic_streambuf_refISaIcEEENS0_18transfer_exactly_tEZN9SimpleWeb16SocketClientBaseIS8_E20read_message_contentERKSt10shared_ptrINSF_10ConnectionEEmEUlRKSt10error_codemE_EESL_mEESP_SL_mEEvRT_PNS2_IT0_T1_T2_EE
FNDA:0,_ZN4asio6detail19asio_handler_invokeINS0_7binder2INS0_17read_dynbuf_v1_opINS_19basic_stream_socketINS_2ip3tcpENS_8executorEEENS_19basic_streambuf_refISaIcEEENS0_18transfer_exactly_tEZN9SimpleWeb16SocketClientBaseIS8_E12read_messageERKSt10shared_ptrINSF_10ConnectionEEmEUlRKSt10error_codemE_EESL_mEESP_SL_mEEvRT_PNS2_IT0_T1_T2_EE
FNDA:0,_ZN4asio6detail19asio_handler_invokeINS0_7binder2INS0_17read_dynbuf_v1_opINS_19basic_stream_socketINS_2ip3tcpENS_8executorEEENS_19basic_streambuf_refISaIcEEENS0_18transfer_exactly_tEZZN9SimpleWeb16SocketClientBaseIS8_E12read_messageERKSt10shared_ptrINSF_10ConnectionEEmENKUlRKSt10error_codemE_clESN_mEUlSN_mE0_EESL_mEESQ_SL_mEEvRT_PNS2_IT0_T1_T2_EE
FNDA:0,_ZN4asio6detail19asio_handler_invokeINS0_7binder2INS0_17read_dynbuf_v1_opINS_19basic_stream_socketINS_2ip3tcpENS_8executorEEENS_19basic_streambuf_refISaIcEEENS0_18transfer_exactly_tEZZN9SimpleWeb16SocketClientBaseIS8_E12read_messageERKSt10shared_ptrINSF_10ConnectionEEmENKUlRKSt10error_codemE_clESN_mEUlSN_mE_EESL_mEESQ_SL_mEEvRT_PNS2_IT0_T1_T2_EE
FNDA:0,_ZN4asio6detail19asio_handler_invokeINS0_7binder2INS0_29read_until_delim_string_op_v1INS_19basic_stream_socketINS_2ip3tcpENS_8executorEEENS_19basic_streambuf_refISaIcEEEZZN9SimpleWeb16SocketClientBaseIS8_E7upgradeERKSt10shared_ptrINSE_10ConnectionEEENKUlRKSt10error_codemE_clESM_mEUlSM_mE_EESK_mEESP_SK_mEEvRT_PNS2_IT0_T1_T2_EE
FNDA:0,_ZN4asio6detail19asio_handler_invokeINS0_7binder2IZN9SimpleWeb12SocketClientINS_19basic_stream_socketINS_2ip3tcpENS_8executorEEEE7connectEvEUlRKSt10error_codeNS6_22basic_resolver_resultsIS7_EEE_SB_SF_EESG_SB_SF_EEvRT_PNS2_IT0_T1_T2_EE
FNDA:0,_ZN4asio20associated_allocatorINS_6detail7binder1INS1_16range_connect_opINS_2ip3tcpENS_8executorENS4_22basic_resolver_resultsIS5_EENS1_25default_connect_conditionEZZN9SimpleWeb12SocketClientINS_19basic_stream_socketIS5_S6_EEE7connectEvENKUlRKSt10error_codeS8_E_clESH_S8_EUlSH_NS4_14basic_endpointIS5_EEE_EESF_EESaIvEE3getERKSN_RKSO_
FNDA:0,_ZN4asio19associated_executorINS_6detail7binder1INS1_16range_connect_opINS_2ip3tcpENS_8executorENS4_22basic_resolver_resultsIS5_EENS1_25default_connect_conditionEZZN9SimpleWeb12SocketClientINS_19basic_stream_socketIS5_S6_EEE7connectEvENKUlRKSt10error_codeS8_E_clESH_S8_EUlSH_NS4_14basic_endpointIS5_EEE_EESF_EENS_15system_executorEE3getERKSN_RKSO_
FNF:54
FNH:0
DA:32,0
DA:36,0
DA:38,0
DA:40,0
DA:42,0
DA:44,0
DA:46,0
DA:55,0
DA:57,0
DA:59,0
DA:62,0
DA:64,0
DA:65,0
DA:102,0
DA:105,0
DA:107,0
DA:118,0
DA:122,0
DA:126,0
DA:138,0
DA:141,0
DA:143,0
DA:153,0
DA:156,0
DA:158,0
DA:161,0
DA:163,0
DA:165,0
DA:203,0
DA:206,0
DA:208,0
DA:716,0
DA:719,0
DA:740,0
DA:743,0
LF:35
LH:0
end_of_record
SF:/home/tistrauss/.conan/data/asio/1.13.0/_/_/package/5ab84d6acfe1f23c4fae0ab88f26e3a396351ac9/include/asio/detail/buffer_sequence_adapter.hpp
FN:74,_ZN4asio6detail28buffer_sequence_adapter_base13init_iov_baseERPvS2_
FN:85,_ZN4asio6detail28buffer_sequence_adapter_base18init_native_bufferER5iovecRKNS_14mutable_bufferE
FN:92,_ZN4asio6detail28buffer_sequence_adapter_base18init_native_bufferER5iovecRKNS_12const_bufferE
FN:320,_ZN4asio6detail23buffer_sequence_adapterINS_14mutable_bufferENS_17mutable_buffers_1EEC2ERKS3_
FN:327,_ZN4asio6detail23buffer_sequence_adapterINS_14mutable_bufferENS_17mutable_buffers_1EE7buffersEv
FN:332,_ZNK4asio6detail23buffer_sequence_adapterINS_14mutable_bufferENS_17mutable_buffers_1EE5countEv
FN:347,_ZN4asio6detail23buffer_sequence_adapterINS_14mutable_bufferENS_17mutable_buffers_1EE9all_emptyERKS3_
FN:372,_ZN4asio6detail23buffer_sequence_adapterINS_12const_bufferENS_15const_buffers_1EEC2ERKS3_
FN:379,_ZN4asio6detail23buffer_sequence_adapterINS_12const_bufferENS_15const_buffers_1EE7buffersEv
FN:384,_ZNK4asio6detail23buffer_sequence_adapterINS_12const_bufferENS_15const_buffers_1EE5countEv
FN:389,_ZNK4asio6detail23buffer_sequence_adapterINS_12const_bufferENS_15const_buffers_1EE10total_sizeEv
FN:399,_ZN4asio6detail23buffer_sequence_adapterINS_12const_bufferENS_15const_buffers_1EE9all_emptyERKS3_
FNDA:0,_ZN4asio6detail28buffer_sequence_adapter_base13init_iov_baseERPvS2_
FNDA:0,_ZN4asio6detail28buffer_sequence_adapter_base18init_native_bufferER5iovecRKNS_14mutable_bufferE
FNDA:0,_ZN4asio6detail28buffer_sequence_adapter_base18init_native_bufferER5iovecRKNS_12const_bufferE
FNDA:0,_ZN4asio6detail23buffer_sequence_adapterINS_14mutable_bufferENS_17mutable_buffers_1EEC2ERKS3_
FNDA:0,_ZN4asio6detail23buffer_sequence_adapterINS_14mutable_bufferENS_17mutable_buffers_1EE7buffersEv
FNDA:0,_ZNK4asio6detail23buffer_sequence_adapterINS_14mutable_bufferENS_17mutable_buffers_1EE5countEv
FNDA:0,_ZN4asio6detail23buffer_sequence_adapterINS_14mutable_bufferENS_17mutable_buffers_1EE9all_emptyERKS3_
FNDA:0,_ZN4asio6detail23buffer_sequence_adapterINS_12const_bufferENS_15const_buffers_1EEC2ERKS3_
FNDA:0,_ZN4asio6detail23buffer_sequence_adapterINS_12const_bufferENS_15const_buffers_1EE7buffersEv
FNDA:0,_ZNK4asio6detail23buffer_sequence_adapterINS_12const_bufferENS_15const_buffers_1EE5countEv
FNDA:0,_ZNK4asio6detail23buffer_sequence_adapterINS_12const_bufferENS_15const_buffers_1EE10total_sizeEv
FNDA:0,_ZN4asio6detail23buffer_sequence_adapterINS_12const_bufferENS_15const_buffers_1EE9all_emptyERKS3_
FNF:12
FNH:0
DA:74,0
DA:76,0
DA:77,0
DA:85,0
DA:88,0
DA:89,0
DA:90,0
DA:92,0
DA:95,0
DA:96,0
DA:97,0
DA:320,0
DA:323,0
DA:324,0
DA:325,0
DA:327,0
DA:329,0
DA:332,0
DA:334,0
DA:347,0
DA:349,0
DA:372,0
DA:375,0
DA:376,0
DA:377,0
DA:379,0
DA:381,0
DA:384,0
DA:386,0
DA:389,0
DA:391,0
DA:399,0
DA:401,0
LF:33
LH:0
end_of_record
SF:/home/tistrauss/.conan/data/asio/1.13.0/_/_/package/5ab84d6acfe1f23c4fae0ab88f26e3a396351ac9/include/asio/detail/call_stack.hpp
FN:48,_ZN4asio6detail10call_stackINS0_14thread_contextENS0_16thread_info_baseEE7contextC2EPS2_RS3_
FN:57,_ZN4asio6detail10call_stackINS0_14thread_contextENS0_16thread_info_baseEE7contextD2Ev
FN:92,_ZN4asio6detail10call_stackINS0_14thread_contextENS0_16thread_info_baseEE8containsEPS2_
FN:105,_ZN4asio6detail10call_stackINS0_14thread_contextENS0_16thread_info_baseEE3topEv
FNDA:0,_ZN4asio6detail10call_stackINS0_14thread_contextENS0_16thread_info_baseEE7contextC2EPS2_RS3_
FNDA:0,_ZN4asio6detail10call_stackINS0_14thread_contextENS0_16thread_info_baseEE7contextD2Ev
FNDA:0,_ZN4asio6detail10call_stackINS0_14thread_contextENS0_16thread_info_baseEE8containsEPS2_
FNDA:0,_ZN4asio6detail10call_stackINS0_14thread_contextENS0_16thread_info_baseEE3topEv
FNF:4
FNH:0
DA:48,0
DA:51,0
DA:53,0
DA:54,0
DA:57,0
DA:59,0
DA:60,0
DA:92,0
DA:94,0
DA:95,0
DA:97,0
DA:98,0
DA:99,0
DA:101,0
DA:105,0
DA:107,0
DA:108,0
DA:118,6
LF:18
LH:1
end_of_record
SF:/home/tistrauss/.conan/data/asio/1.13.0/_/_/package/5ab84d6acfe1f23c4fae0ab88f26e3a396351ac9/include/asio/detail/chrono_time_traits.hpp
FN:49,_ZN4asio6detail18chrono_time_traitsINSt6chrono3_V212steady_clockENS_11wait_traitsIS4_EEE3nowEv
FN:55,_ZN4asio6detail18chrono_time_traitsINSt6chrono3_V212steady_clockENS_11wait_traitsIS4_EEE3addERKNS2_10time_pointIS4_NS2_8durationIlSt5ratioILl1ELl1000000000EEEEEERKSC_
FN:73,_ZN4asio6detail18chrono_time_traitsINSt6chrono3_V212steady_clockENS_11wait_traitsIS4_EEE8subtractERKNS2_10time_pointIS4_NS2_8durationIlSt5ratioILl1ELl1000000000EEEEEESF_
FN:117,_ZN4asio6detail18chrono_time_traitsINSt6chrono3_V212steady_clockENS_11wait_traitsIS4_EEE9less_thanERKNS2_10time_pointIS4_NS2_8durationIlSt5ratioILl1ELl1000000000EEEEEESF_
FN:127,_ZN4asio6detail18chrono_time_traitsINSt6chrono3_V212steady_clockENS_11wait_traitsIS4_EEE19posix_time_durationC2ERKNS2_8durationIlSt5ratioILl1ELl1000000000EEEE
FN:132,_ZNK4asio6detail18chrono_time_traitsINSt6chrono3_V212steady_clockENS_11wait_traitsIS4_EEE19posix_time_duration5ticksEv
FN:142,_ZNK4asio6detail18chrono_time_traitsINSt6chrono3_V212steady_clockENS_11wait_traitsIS4_EEE19posix_time_duration18total_millisecondsEv
FN:147,_ZNK4asio6detail18chrono_time_traitsINSt6chrono3_V212steady_clockENS_11wait_traitsIS4_EEE19posix_time_duration18total_microsecondsEv
FN:154,_ZNK4asio6detail18chrono_time_traitsINSt6chrono3_V212steady_clockENS_11wait_traitsIS4_EEE19posix_time_duration13duration_castILl1ELl1000000EEElv
FN:154,_ZNK4asio6detail18chrono_time_traitsINSt6chrono3_V212steady_clockENS_11wait_traitsIS4_EEE19posix_time_duration13duration_castILl1ELl1000EEElv
FN:179,_ZN4asio6detail18chrono_time_traitsINSt6chrono3_V212steady_clockENS_11wait_traitsIS4_EEE17to_posix_durationERKNS2_8durationIlSt5ratioILl1ELl1000000000EEEE
FNDA:0,_ZN4asio6detail18chrono_time_traitsINSt6chrono3_V212steady_clockENS_11wait_traitsIS4_EEE3nowEv
FNDA:0,_ZN4asio6detail18chrono_time_traitsINSt6chrono3_V212steady_clockENS_11wait_traitsIS4_EEE3addERKNS2_10time_pointIS4_NS2_8durationIlSt5ratioILl1ELl1000000000EEEEEERKSC_
FNDA:0,_ZN4asio6detail18chrono_time_traitsINSt6chrono3_V212steady_clockENS_11wait_traitsIS4_EEE8subtractERKNS2_10time_pointIS4_NS2_8durationIlSt5ratioILl1ELl1000000000EEEEEESF_
FNDA:0,_ZN4asio6detail18chrono_time_traitsINSt6chrono3_V212steady_clockENS_11wait_traitsIS4_EEE9less_thanERKNS2_10time_pointIS4_NS2_8durationIlSt5ratioILl1ELl1000000000EEEEEESF_
FNDA:0,_ZN4asio6detail18chrono_time_traitsINSt6chrono3_V212steady_clockENS_11wait_traitsIS4_EEE19posix_time_durationC2ERKNS2_8durationIlSt5ratioILl1ELl1000000000EEEE
FNDA:0,_ZNK4asio6detail18chrono_time_traitsINSt6chrono3_V212steady_clockENS_11wait_traitsIS4_EEE19posix_time_duration5ticksEv
FNDA:0,_ZNK4asio6detail18chrono_time_traitsINSt6chrono3_V212steady_clockENS_11wait_traitsIS4_EEE19posix_time_duration18total_millisecondsEv
FNDA:0,_ZNK4asio6detail18chrono_time_traitsINSt6chrono3_V212steady_clockENS_11wait_traitsIS4_EEE19posix_time_duration18total_microsecondsEv
FNDA:0,_ZNK4asio6detail18chrono_time_traitsINSt6chrono3_V212steady_clockENS_11wait_traitsIS4_EEE19posix_time_duration13duration_castILl1ELl1000000EEElv
FNDA:0,_ZNK4asio6detail18chrono_time_traitsINSt6chrono3_V212steady_clockENS_11wait_traitsIS4_EEE19posix_time_duration13duration_castILl1ELl1000EEElv
FNDA:0,_ZN4asio6detail18chrono_time_traitsINSt6chrono3_V212steady_clockENS_11wait_traitsIS4_EEE17to_posix_durationERKNS2_8durationIlSt5ratioILl1ELl1000000000EEEE
FNF:11
FNH:0
DA:49,0
DA:51,0
DA:55,0
DA:57,0
DA:58,0
DA:60,0
DA:61,0
DA:65,0
DA:66,0
DA:69,0
DA:73,0
DA:75,0
DA:76,0
DA:78,0
DA:80,0
DA:82,0
DA:84,0
DA:86,0
DA:88,0
DA:92,0
DA:97,0
DA:99,0
DA:101,0
DA:103,0
DA:105,0
DA:107,0
DA:111,0
DA:117,0
DA:119,0
DA:127,0
DA:128,0
DA:130,0
DA:132,0
DA:134,0
DA:142,0
DA:144,0
DA:147,0
DA:149,0
DA:154,0
DA:156,0
DA:157,0
DA:159,0
DA:160,0
DA:162,0
DA:163,0
DA:170,0
DA:179,0
DA:181,0
LF:48
LH:0
end_of_record
SF:/home/tistrauss/.conan/data/asio/1.13.0/_/_/package/5ab84d6acfe1f23c4fae0ab88f26e3a396351ac9/include/asio/detail/conditionally_enabled_event.hpp
FN:36,_ZN4asio6detail27conditionally_enabled_eventC2Ev
FN:41,_ZN4asio6detail27conditionally_enabled_eventD2Ev
FN:53,_ZN4asio6detail27conditionally_enabled_event10signal_allERNS0_27conditionally_enabled_mutex11scoped_lockE
FN:60,_ZN4asio6detail27conditionally_enabled_event21unlock_and_signal_oneERNS0_27conditionally_enabled_mutex11scoped_lockE
FN:68,_ZN4asio6detail27conditionally_enabled_event27maybe_unlock_and_signal_oneERNS0_27conditionally_enabled_mutex11scoped_lockE
FN:78,_ZN4asio6detail27conditionally_enabled_event5clearERNS0_27conditionally_enabled_mutex11scoped_lockE
FN:85,_ZN4asio6detail27conditionally_enabled_event4waitERNS0_27conditionally_enabled_mutex11scoped_lockE
FNDA:0,_ZN4asio6detail27conditionally_enabled_eventC2Ev
FNDA:0,_ZN4asio6detail27conditionally_enabled_eventD2Ev
FNDA:0,_ZN4asio6detail27conditionally_enabled_event10signal_allERNS0_27conditionally_enabled_mutex11scoped_lockE
FNDA:0,_ZN4asio6detail27conditionally_enabled_event21unlock_and_signal_oneERNS0_27conditionally_enabled_mutex11scoped_lockE
FNDA:0,_ZN4asio6detail27conditionally_enabled_event27maybe_unlock_and_signal_oneERNS0_27conditionally_enabled_mutex11scoped_lockE
FNDA:0,_ZN4asio6detail27conditionally_enabled_event5clearERNS0_27conditionally_enabled_mutex11scoped_lockE
FNDA:0,_ZN4asio6detail27conditionally_enabled_event4waitERNS0_27conditionally_enabled_mutex11scoped_lockE
FNF:7
FNH:0
DA:36,0
DA:37,0
DA:38,0
DA:41,0
DA:42,0
DA:43,0
DA:53,0
DA:55,0
DA:56,0
DA:57,0
DA:60,0
DA:63,0
DA:64,0
DA:65,0
DA:68,0
DA:71,0
DA:72,0
DA:74,0
DA:78,0
DA:80,0
DA:81,0
DA:82,0
DA:85,0
DA:87,0
DA:88,0
DA:90,0
DA:91,0
LF:27
LH:0
end_of_record
SF:/home/tistrauss/.conan/data/asio/1.13.0/_/_/package/5ab84d6acfe1f23c4fae0ab88f26e3a396351ac9/include/asio/detail/conditionally_enabled_mutex.hpp
FN:42,_ZN4asio6detail27conditionally_enabled_mutex11scoped_lockC2ERS1_NS2_12adopt_lock_tE
FN:49,_ZN4asio6detail27conditionally_enabled_mutex11scoped_lockC2ERS1_
FN:62,_ZN4asio6detail27conditionally_enabled_mutex11scoped_lockD2Ev
FN:69,_ZN4asio6detail27conditionally_enabled_mutex11scoped_lock4lockEv
FN:79,_ZN4asio6detail27conditionally_enabled_mutex11scoped_lock6unlockEv
FN:89,_ZNK4asio6detail27conditionally_enabled_mutex11scoped_lock6lockedEv
FN:95,_ZN4asio6detail27conditionally_enabled_mutex11scoped_lock5mutexEv
FN:107,_ZN4asio6detail27conditionally_enabled_mutexC2Eb
FN:113,_ZN4asio6detail27conditionally_enabled_mutexD2Ev
FN:118,_ZNK4asio6detail27conditionally_enabled_mutex7enabledEv
FN:124,_ZN4asio6detail27conditionally_enabled_mutex4lockEv
FN:131,_ZN4asio6detail27conditionally_enabled_mutex6unlockEv
FNDA:0,_ZN4asio6detail27conditionally_enabled_mutex11scoped_lockC2ERS1_NS2_12adopt_lock_tE
FNDA:0,_ZN4asio6detail27conditionally_enabled_mutex11scoped_lockC2ERS1_
FNDA:0,_ZN4asio6detail27conditionally_enabled_mutex11scoped_lockD2Ev
FNDA:0,_ZN4asio6detail27conditionally_enabled_mutex11scoped_lock4lockEv
FNDA:0,_ZN4asio6detail27conditionally_enabled_mutex11scoped_lock6unlockEv
FNDA:0,_ZNK4asio6detail27conditionally_enabled_mutex11scoped_lock6lockedEv
FNDA:0,_ZN4asio6detail27conditionally_enabled_mutex11scoped_lock5mutexEv
FNDA:0,_ZN4asio6detail27conditionally_enabled_mutexC2Eb
FNDA:0,_ZN4asio6detail27conditionally_enabled_mutexD2Ev
FNDA:0,_ZNK4asio6detail27conditionally_enabled_mutex7enabledEv
FNDA:0,_ZN4asio6detail27conditionally_enabled_mutex4lockEv
FNDA:0,_ZN4asio6detail27conditionally_enabled_mutex6unlockEv
FNF:12
FNH:0
DA:42,0
DA:43,0
DA:44,0
DA:46,0
DA:49,0
DA:50,0
DA:52,0
DA:54,0
DA:55,0
DA:58,0
DA:59,0
DA:62,0
DA:63,0
DA:64,0
DA:65,0
DA:66,0
DA:69,0
DA:71,0
DA:73,0
DA:74,0
DA:76,0
DA:79,0
DA:81,0
DA:83,0
DA:84,0
DA:86,0
DA:89,0
DA:91,0
DA:95,0
DA:97,0
DA:107,0
DA:108,0
DA:110,0
DA:113,0
DA:114,0
DA:115,0
DA:118,0
DA:120,0
DA:124,0
DA:126,0
DA:127,0
DA:128,0
DA:131,0
DA:133,0
DA:134,0
DA:135,0
LF:46
LH:0
end_of_record
SF:/home/tistrauss/.conan/data/asio/1.13.0/_/_/package/5ab84d6acfe1f23c4fae0ab88f26e3a396351ac9/include/asio/detail/consuming_buffers.hpp
FN:166,_ZN4asio6detail23consuming_single_bufferINS_15const_buffers_1EEC2IS2_EERKT_
FN:173,_ZNK4asio6detail23consuming_single_bufferINS_15const_buffers_1EE5emptyEv
FN:179,_ZN4asio6detail23consuming_single_bufferINS_15const_buffers_1EE7prepareEm
FN:185,_ZN4asio6detail23consuming_single_bufferINS_15const_buffers_1EE7consumeEm
FN:191,_ZNK4asio6detail23consuming_single_bufferINS_15const_buffers_1EE14total_consumedEv
FN:264,_ZN4asio6detail17consuming_buffersINS_12const_bufferENS_15const_buffers_1EPKS2_EC2ERKS3_
FNDA:0,_ZN4asio6detail23consuming_single_bufferINS_15const_buffers_1EEC2IS2_EERKT_
FNDA:0,_ZNK4asio6detail23consuming_single_bufferINS_15const_buffers_1EE5emptyEv
FNDA:0,_ZN4asio6detail23consuming_single_bufferINS_15const_buffers_1EE7prepareEm
FNDA:0,_ZN4asio6detail23consuming_single_bufferINS_15const_buffers_1EE7consumeEm
FNDA:0,_ZNK4asio6detail23consuming_single_bufferINS_15const_buffers_1EE14total_consumedEv
FNDA:0,_ZN4asio6detail17consuming_buffersINS_12const_bufferENS_15const_buffers_1EPKS2_EC2ERKS3_
FNF:6
FNH:0
DA:166,0
DA:168,0
DA:170,0
DA:173,0
DA:175,0
DA:179,0
DA:181,0
DA:185,0
DA:187,0
DA:188,0
DA:191,0
DA:193,0
DA:264,0
DA:265,0
DA:267,0
LF:15
LH:0
end_of_record
SF:/home/tistrauss/.conan/data/asio/1.13.0/_/_/package/5ab84d6acfe1f23c4fae0ab88f26e3a396351ac9/include/asio/detail/deadline_timer_service.hpp
FN:57,_ZN4asio6detail22deadline_timer_serviceINS0_18chrono_time_traitsINSt6chrono3_V212steady_clockENS_11wait_traitsIS5_EEEEE19implementation_typeD2Ev
FN:57,_ZN4asio6detail22deadline_timer_serviceINS0_18chrono_time_traitsINSt6chrono3_V212steady_clockENS_11wait_traitsIS5_EEEEE19implementation_typeC2Ev
FN:66,_ZN4asio6detail22deadline_timer_serviceINS0_18chrono_time_traitsINSt6chrono3_V212steady_clockENS_11wait_traitsIS5_EEEEEC2ERNS_17execution_contextE
FN:76,_ZN4asio6detail22deadline_timer_serviceINS0_18chrono_time_traitsINSt6chrono3_V212steady_clockENS_11wait_traitsIS5_EEEEED0Ev
FN:76,_ZN4asio6detail22deadline_timer_serviceINS0_18chrono_time_traitsINSt6chrono3_V212steady_clockENS_11wait_traitsIS5_EEEEED2Ev
FN:82,_ZN4asio6detail22deadline_timer_serviceINS0_18chrono_time_traitsINSt6chrono3_V212steady_clockENS_11wait_traitsIS5_EEEEE8shutdownEv
FN:87,_ZN4asio6detail22deadline_timer_serviceINS0_18chrono_time_traitsINSt6chrono3_V212steady_clockENS_11wait_traitsIS5_EEEEE9constructERNS9_19implementation_typeE
FN:94,_ZN4asio6detail22deadline_timer_serviceINS0_18chrono_time_traitsINSt6chrono3_V212steady_clockENS_11wait_traitsIS5_EEEEE7destroyERNS9_19implementation_typeE
FN:133,_ZN4asio6detail22deadline_timer_serviceINS0_18chrono_time_traitsINSt6chrono3_V212steady_clockENS_11wait_traitsIS5_EEEEE6cancelERNS9_19implementation_typeERSt10error_code
FN:190,_ZN4asio6detail22deadline_timer_serviceINS0_18chrono_time_traitsINSt6chrono3_V212steady_clockENS_11wait_traitsIS5_EEEEE10expires_atERNS9_19implementation_typeERKNS3_10time_pointIS5_NS3_8durationIlSt5ratioILl1ELl1000000000EEEEEERSt10error_code
FN:200,_ZN4asio6detail22deadline_timer_serviceINS0_18chrono_time_traitsINSt6chrono3_V212steady_clockENS_11wait_traitsIS5_EEEEE13expires_afterERNS9_19implementation_typeERKNS3_8durationIlSt5ratioILl1ELl1000000000EEEERSt10error_code
FN:230,_ZN4asio6detail22deadline_timer_serviceINS0_18chrono_time_traitsINSt6chrono3_V212steady_clockENS_11wait_traitsIS5_EEEEE10async_waitIZN9SimpleWeb16SocketClientBaseINS_19basic_stream_socketINS_2ip3tcpENS_8executorEEEE10Connection11set_timeoutElEUlRKSt10error_codeE_NS0_18io_object_executorISG_EEEEvRNS9_19implementation_typeERT_RKT0_
FNDA:0,_ZN4asio6detail22deadline_timer_serviceINS0_18chrono_time_traitsINSt6chrono3_V212steady_clockENS_11wait_traitsIS5_EEEEE19implementation_typeD2Ev
FNDA:0,_ZN4asio6detail22deadline_timer_serviceINS0_18chrono_time_traitsINSt6chrono3_V212steady_clockENS_11wait_traitsIS5_EEEEE19implementation_typeC2Ev
FNDA:0,_ZN4asio6detail22deadline_timer_serviceINS0_18chrono_time_traitsINSt6chrono3_V212steady_clockENS_11wait_traitsIS5_EEEEEC2ERNS_17execution_contextE
FNDA:0,_ZN4asio6detail22deadline_timer_serviceINS0_18chrono_time_traitsINSt6chrono3_V212steady_clockENS_11wait_traitsIS5_EEEEED0Ev
FNDA:0,_ZN4asio6detail22deadline_timer_serviceINS0_18chrono_time_traitsINSt6chrono3_V212steady_clockENS_11wait_traitsIS5_EEEEED2Ev
FNDA:0,_ZN4asio6detail22deadline_timer_serviceINS0_18chrono_time_traitsINSt6chrono3_V212steady_clockENS_11wait_traitsIS5_EEEEE8shutdownEv
FNDA:0,_ZN4asio6detail22deadline_timer_serviceINS0_18chrono_time_traitsINSt6chrono3_V212steady_clockENS_11wait_traitsIS5_EEEEE9constructERNS9_19implementation_typeE
FNDA:0,_ZN4asio6detail22deadline_timer_serviceINS0_18chrono_time_traitsINSt6chrono3_V212steady_clockENS_11wait_traitsIS5_EEEEE7destroyERNS9_19implementation_typeE
FNDA:0,_ZN4asio6detail22deadline_timer_serviceINS0_18chrono_time_traitsINSt6chrono3_V212steady_clockENS_11wait_traitsIS5_EEEEE6cancelERNS9_19implementation_typeERSt10error_code
FNDA:0,_ZN4asio6detail22deadline_timer_serviceINS0_18chrono_time_traitsINSt6chrono3_V212steady_clockENS_11wait_traitsIS5_EEEEE10expires_atERNS9_19implementation_typeERKNS3_10time_pointIS5_NS3_8durationIlSt5ratioILl1ELl1000000000EEEEEERSt10error_code
FNDA:0,_ZN4asio6detail22deadline_timer_serviceINS0_18chrono_time_traitsINSt6chrono3_V212steady_clockENS_11wait_traitsIS5_EEEEE13expires_afterERNS9_19implementation_typeERKNS3_8durationIlSt5ratioILl1ELl1000000000EEEERSt10error_code
FNDA:0,_ZN4asio6detail22deadline_timer_serviceINS0_18chrono_time_traitsINSt6chrono3_V212steady_clockENS_11wait_traitsIS5_EEEEE10async_waitIZN9SimpleWeb16SocketClientBaseINS_19basic_stream_socketINS_2ip3tcpENS_8executorEEEE10Connection11set_timeoutElEUlRKSt10error_codeE_NS0_18io_object_executorISG_EEEEvRNS9_19implementation_typeERT_RKT0_
FNF:12
FNH:0
DA:57,0
DA:66,0
DA:69,0
DA:71,0
DA:72,0
DA:73,0
DA:76,0
DA:78,0
DA:79,0
DA:82,0
DA:84,0
DA:87,0
DA:89,0
DA:90,0
DA:91,0
DA:94,0
DA:96,0
DA:97,0
DA:98,0
DA:133,0
DA:135,0
DA:137,0
DA:138,0
DA:144,0
DA:145,0
DA:146,0
DA:147,0
DA:190,0
DA:193,0
DA:194,0
DA:195,0
DA:196,0
DA:200,0
DA:204,0
DA:230,0
DA:235,0
DA:236,0
DA:237,0
DA:239,0
DA:244,0
DA:245,0
DA:246,0
LF:42
LH:0
end_of_record
SF:/home/tistrauss/.conan/data/asio/1.13.0/_/_/package/5ab84d6acfe1f23c4fae0ab88f26e3a396351ac9/include/asio/detail/epoll_reactor.hpp
FN:56,_ZN4asio6detail13epoll_reactor16descriptor_stateD2Ev
FN:73,_ZN4asio6detail13epoll_reactor16descriptor_state16set_ready_eventsEj
FN:74,_ZN4asio6detail13epoll_reactor16descriptor_state16add_ready_eventsEj
FN:117,_ZN4asio6detail13epoll_reactor25post_immediate_completionEPNS0_10reactor_opEb
FNDA:0,_ZN4asio6detail13epoll_reactor16descriptor_stateD2Ev
FNDA:0,_ZN4asio6detail13epoll_reactor16descriptor_state16set_ready_eventsEj
FNDA:0,_ZN4asio6detail13epoll_reactor16descriptor_state16add_ready_eventsEj
FNDA:0,_ZN4asio6detail13epoll_reactor25post_immediate_completionEPNS0_10reactor_opEb
FNF:4
FNH:0
DA:56,0
DA:73,0
DA:74,0
DA:117,0
DA:119,0
DA:120,0
LF:6
LH:0
end_of_record
SF:/home/tistrauss/.conan/data/asio/1.13.0/_/_/package/5ab84d6acfe1f23c4fae0ab88f26e3a396351ac9/include/asio/detail/eventfd_select_interrupter.hpp
FN:47,_ZNK4asio6detail26eventfd_select_interrupter15read_descriptorEv
FNDA:0,_ZNK4asio6detail26eventfd_select_interrupter15read_descriptorEv
FNF:1
FNH:0
DA:47,0
DA:49,0
LF:2
LH:0
end_of_record
SF:/home/tistrauss/.conan/data/asio/1.13.0/_/_/package/5ab84d6acfe1f23c4fae0ab88f26e3a396351ac9/include/asio/detail/executor_function.hpp
FN:29,_ZN4asio6detail22executor_function_base8completeEv
FN:34,_ZN4asio6detail22executor_function_base7destroyEv
FN:42,_ZN4asio6detail22executor_function_baseC2EPFvPS1_bE
FN:48,_ZN4asio6detail22executor_function_baseD2Ev
FN:57,_ZN4asio6detail17executor_functionINS0_15work_dispatcherINS0_7binder1INS0_16range_connect_opINS_2ip3tcpENS_8executorENS5_22basic_resolver_resultsIS6_EENS0_25default_connect_conditionEZZN9SimpleWeb12SocketClientINS_19basic_stream_socketIS6_S7_EEE7connectEvENKUlRKSt10error_codeS9_E_clESI_S9_EUlSI_NS5_14basic_endpointIS6_EEE_EESG_EEEESaIvEED2Ev
FN:57,_ZN4asio6detail17executor_functionINS0_7binder1IZN9SimpleWeb16SocketClientBaseINS_19basic_stream_socketINS_2ip3tcpENS_8executorEEEE10Connection11set_timeoutElEUlRKSt10error_codeE_SC_EESaIvEED2Ev
FN:57,_ZN4asio6detail17executor_functionINS0_7binder2INS0_8write_opINS_19basic_stream_socketINS_2ip3tcpENS_8executorEEENS_15const_buffers_1EPKNS_12const_bufferENS0_14transfer_all_tENS0_18write_dynbuf_v1_opIS8_NS_19basic_streambuf_refISaIcEEESD_ZN9SimpleWeb16SocketClientBaseIS8_E10Connection15send_from_queueEvEUlRKSt10error_codemE_EEEESM_mEESaIvEED2Ev
FN:57,_ZN4asio6detail17executor_functionINS0_7binder2INS0_17read_dynbuf_v1_opINS_19basic_stream_socketINS_2ip3tcpENS_8executorEEENS_19basic_streambuf_refISaIcEEENS0_18transfer_exactly_tEZZN9SimpleWeb16SocketClientBaseIS8_E12read_messageERKSt10shared_ptrINSF_10ConnectionEEmENKUlRKSt10error_codemE_clESN_mEUlSN_mE_EESL_mEESaIvEED2Ev
FN:57,_ZN4asio6detail17executor_functionINS0_7binder2INS0_8write_opINS_19basic_stream_socketINS_2ip3tcpENS_8executorEEENS_15const_buffers_1EPKNS_12const_bufferENS0_14transfer_all_tENS0_18write_dynbuf_v1_opIS8_NS_19basic_streambuf_refISaIcEEESD_ZN9SimpleWeb16SocketClientBaseIS8_E7upgradeERKSt10shared_ptrINSK_10ConnectionEEEUlRKSt10error_codemE_EEEESQ_mEESaIvEED2Ev
FN:57,_ZN4asio6detail17executor_functionINS0_7binder2INS0_29read_until_delim_string_op_v1INS_19basic_stream_socketINS_2ip3tcpENS_8executorEEENS_19basic_streambuf_refISaIcEEEZZN9SimpleWeb16SocketClientBaseIS8_E7upgradeERKSt10shared_ptrINSE_10ConnectionEEENKUlRKSt10error_codemE_clESM_mEUlSM_mE_EESK_mEESaIvEED2Ev
FN:57,_ZN4asio6detail17executor_functionINS0_7binder2INS0_17read_dynbuf_v1_opINS_19basic_stream_socketINS_2ip3tcpENS_8executorEEENS_19basic_streambuf_refISaIcEEENS0_18transfer_exactly_tEZN9SimpleWeb16SocketClientBaseIS8_E12read_messageERKSt10shared_ptrINSF_10ConnectionEEmEUlRKSt10error_codemE_EESL_mEESaIvEED2Ev
FN:57,_ZN4asio6detail17executor_functionINS0_7binder2INS0_17read_dynbuf_v1_opINS_19basic_stream_socketINS_2ip3tcpENS_8executorEEENS_19basic_streambuf_refISaIcEEENS0_18transfer_exactly_tEZN9SimpleWeb16SocketClientBaseIS8_E20read_message_contentERKSt10shared_ptrINSF_10ConnectionEEmEUlRKSt10error_codemE_EESL_mEESaIvEED2Ev
FN:57,_ZN4asio6detail17executor_functionINS0_7binder1INS0_16range_connect_opINS_2ip3tcpENS_8executorENS4_22basic_resolver_resultsIS5_EENS0_25default_connect_conditionEZZN9SimpleWeb12SocketClientINS_19basic_stream_socketIS5_S6_EEE7connectEvENKUlRKSt10error_codeS8_E_clESH_S8_EUlSH_NS4_14basic_endpointIS5_EEE_EESF_EESaIvEED2Ev
FN:57,_ZN4asio6detail17executor_functionINS0_7binder2IZN9SimpleWeb12SocketClientINS_19basic_stream_socketINS_2ip3tcpENS_8executorEEEE7connectEvEUlRKSt10error_codeNS6_22basic_resolver_resultsIS7_EEE_SB_SF_EESaIvEED2Ev
FN:57,_ZN4asio6detail17executor_functionINS0_7binder2INS0_17read_dynbuf_v1_opINS_19basic_stream_socketINS_2ip3tcpENS_8executorEEENS_19basic_streambuf_refISaIcEEENS0_18transfer_exactly_tEZZN9SimpleWeb16SocketClientBaseIS8_E12read_messageERKSt10shared_ptrINSF_10ConnectionEEmENKUlRKSt10error_codemE_clESN_mEUlSN_mE0_EESL_mEESaIvEED2Ev
FN:60,_ZN4asio6detail17executor_functionINS0_7binder1IZN9SimpleWeb16SocketClientBaseINS_19basic_stream_socketINS_2ip3tcpENS_8executorEEEE10Connection11set_timeoutElEUlRKSt10error_codeE_SC_EESaIvEE3ptr5resetEv
FN:60,_ZN4asio6detail17executor_functionINS0_7binder2INS0_29read_until_delim_string_op_v1INS_19basic_stream_socketINS_2ip3tcpENS_8executorEEENS_19basic_streambuf_refISaIcEEEZZN9SimpleWeb16SocketClientBaseIS8_E7upgradeERKSt10shared_ptrINSE_10ConnectionEEENKUlRKSt10error_codemE_clESM_mEUlSM_mE_EESK_mEESaIvEE3ptr5resetEv
FN:60,_ZN4asio6detail17executor_functionINS0_7binder1INS0_16range_connect_opINS_2ip3tcpENS_8executorENS4_22basic_resolver_resultsIS5_EENS0_25default_connect_conditionEZZN9SimpleWeb12SocketClientINS_19basic_stream_socketIS5_S6_EEE7connectEvENKUlRKSt10error_codeS8_E_clESH_S8_EUlSH_NS4_14basic_endpointIS5_EEE_EESF_EESaIvEE3ptr5resetEv
FN:60,_ZN4asio6detail17executor_functionINS0_7binder2INS0_29read_until_delim_string_op_v1INS_19basic_stream_socketINS_2ip3tcpENS_8executorEEENS_19basic_streambuf_refISaIcEEEZZN9SimpleWeb16SocketClientBaseIS8_E7upgradeERKSt10shared_ptrINSE_10ConnectionEEENKUlRKSt10error_codemE_clESM_mEUlSM_mE_EESK_mEESaIvEE3ptr8allocateERKSR_
FN:60,_ZN4asio6detail17executor_functionINS0_7binder2INS0_17read_dynbuf_v1_opINS_19basic_stream_socketINS_2ip3tcpENS_8executorEEENS_19basic_streambuf_refISaIcEEENS0_18transfer_exactly_tEZZN9SimpleWeb16SocketClientBaseIS8_E12read_messageERKSt10shared_ptrINSF_10ConnectionEEmENKUlRKSt10error_codemE_clESN_mEUlSN_mE_EESL_mEESaIvEE3ptr5resetEv
FN:60,_ZN4asio6detail17executor_functionINS0_15work_dispatcherINS0_7binder1INS0_16range_connect_opINS_2ip3tcpENS_8executorENS5_22basic_resolver_resultsIS6_EENS0_25default_connect_conditionEZZN9SimpleWeb12SocketClientINS_19basic_stream_socketIS6_S7_EEE7connectEvENKUlRKSt10error_codeS9_E_clESI_S9_EUlSI_NS5_14basic_endpointIS6_EEE_EESG_EEEESaIvEE3ptr8allocateERKSQ_
FN:60,_ZN4asio6detail17executor_functionINS0_15work_dispatcherINS0_7binder1INS0_16range_connect_opINS_2ip3tcpENS_8executorENS5_22basic_resolver_resultsIS6_EENS0_25default_connect_conditionEZZN9SimpleWeb12SocketClientINS_19basic_stream_socketIS6_S7_EEE7connectEvENKUlRKSt10error_codeS9_E_clESI_S9_EUlSI_NS5_14basic_endpointIS6_EEE_EESG_EEEESaIvEE3ptrD2Ev
FN:60,_ZN4asio6detail17executor_functionINS0_15work_dispatcherINS0_7binder1INS0_16range_connect_opINS_2ip3tcpENS_8executorENS5_22basic_resolver_resultsIS6_EENS0_25default_connect_conditionEZZN9SimpleWeb12SocketClientINS_19basic_stream_socketIS6_S7_EEE7connectEvENKUlRKSt10error_codeS9_E_clESI_S9_EUlSI_NS5_14basic_endpointIS6_EEE_EESG_EEEESaIvEE3ptr5resetEv
FN:60,_ZN4asio6detail17executor_functionINS0_7binder1INS0_16range_connect_opINS_2ip3tcpENS_8executorENS4_22basic_resolver_resultsIS5_EENS0_25default_connect_conditionEZZN9SimpleWeb12SocketClientINS_19basic_stream_socketIS5_S6_EEE7connectEvENKUlRKSt10error_codeS8_E_clESH_S8_EUlSH_NS4_14basic_endpointIS5_EEE_EESF_EESaIvEE3ptrD2Ev
FN:60,_ZN4asio6detail17executor_functionINS0_7binder2INS0_8write_opINS_19basic_stream_socketINS_2ip3tcpENS_8executorEEENS_15const_buffers_1EPKNS_12const_bufferENS0_14transfer_all_tENS0_18write_dynbuf_v1_opIS8_NS_19basic_streambuf_refISaIcEEESD_ZN9SimpleWeb16SocketClientBaseIS8_E10Connection15send_from_queueEvEUlRKSt10error_codemE_EEEESM_mEESaIvEE3ptr5resetEv
FN:60,_ZN4asio6detail17executor_functionINS0_7binder1IZN9SimpleWeb16SocketClientBaseINS_19basic_stream_socketINS_2ip3tcpENS_8executorEEEE10Connection11set_timeoutElEUlRKSt10error_codeE_SC_EESaIvEE3ptr8allocateERKSH_
FN:60,_ZN4asio6detail17executor_functionINS0_7binder2INS0_17read_dynbuf_v1_opINS_19basic_stream_socketINS_2ip3tcpENS_8executorEEENS_19basic_streambuf_refISaIcEEENS0_18transfer_exactly_tEZN9SimpleWeb16SocketClientBaseIS8_E12read_messageERKSt10shared_ptrINSF_10ConnectionEEmEUlRKSt10error_codemE_EESL_mEESaIvEE3ptrD2Ev
FN:60,_ZN4asio6detail17executor_functionINS0_7binder2INS0_17read_dynbuf_v1_opINS_19basic_stream_socketINS_2ip3tcpENS_8executorEEENS_19basic_streambuf_refISaIcEEENS0_18transfer_exactly_tEZN9SimpleWeb16SocketClientBaseIS8_E20read_message_contentERKSt10shared_ptrINSF_10ConnectionEEmEUlRKSt10error_codemE_EESL_mEESaIvEE3ptr5resetEv
FN:60,_ZN4asio6detail17executor_functionINS0_7binder2INS0_17read_dynbuf_v1_opINS_19basic_stream_socketINS_2ip3tcpENS_8executorEEENS_19basic_streambuf_refISaIcEEENS0_18transfer_exactly_tEZN9SimpleWeb16SocketClientBaseIS8_E12read_messageERKSt10shared_ptrINSF_10ConnectionEEmEUlRKSt10error_codemE_EESL_mEESaIvEE3ptr8allocateERKSR_
FN:60,_ZN4asio6detail17executor_functionINS0_7binder2INS0_17read_dynbuf_v1_opINS_19basic_stream_socketINS_2ip3tcpENS_8executorEEENS_19basic_streambuf_refISaIcEEENS0_18transfer_exactly_tEZZN9SimpleWeb16SocketClientBaseIS8_E12read_messageERKSt10shared_ptrINSF_10ConnectionEEmENKUlRKSt10error_codemE_clESN_mEUlSN_mE_EESL_mEESaIvEE3ptrD2Ev
FN:60,_ZN4asio6detail17executor_functionINS0_7binder2INS0_17read_dynbuf_v1_opINS_19basic_stream_socketINS_2ip3tcpENS_8executorEEENS_19basic_streambuf_refISaIcEEENS0_18transfer_exactly_tEZZN9SimpleWeb16SocketClientBaseIS8_E12read_messageERKSt10shared_ptrINSF_10ConnectionEEmENKUlRKSt10error_codemE_clESN_mEUlSN_mE0_EESL_mEESaIvEE3ptrD2Ev
FN:60,_ZN4asio6detail17executor_functionINS0_7binder2INS0_17read_dynbuf_v1_opINS_19basic_stream_socketINS_2ip3tcpENS_8executorEEENS_19basic_streambuf_refISaIcEEENS0_18transfer_exactly_tEZZN9SimpleWeb16SocketClientBaseIS8_E12read_messageERKSt10shared_ptrINSF_10ConnectionEEmENKUlRKSt10error_codemE_clESN_mEUlSN_mE0_EESL_mEESaIvEE3ptr8allocateERKSS_
FN:60,_ZN4asio6detail17executor_functionINS0_7binder2INS0_17read_dynbuf_v1_opINS_19basic_stream_socketINS_2ip3tcpENS_8executorEEENS_19basic_streambuf_refISaIcEEENS0_18transfer_exactly_tEZN9SimpleWeb16SocketClientBaseIS8_E20read_message_contentERKSt10shared_ptrINSF_10ConnectionEEmEUlRKSt10error_codemE_EESL_mEESaIvEE3ptrD2Ev
FN:60,_ZN4asio6detail17executor_functionINS0_7binder2INS0_17read_dynbuf_v1_opINS_19basic_stream_socketINS_2ip3tcpENS_8executorEEENS_19basic_streambuf_refISaIcEEENS0_18transfer_exactly_tEZN9SimpleWeb16SocketClientBaseIS8_E20read_message_contentERKSt10shared_ptrINSF_10ConnectionEEmEUlRKSt10error_codemE_EESL_mEESaIvEE3ptr8allocateERKSR_
FN:60,_ZN4asio6detail17executor_functionINS0_7binder2INS0_8write_opINS_19basic_stream_socketINS_2ip3tcpENS_8executorEEENS_15const_buffers_1EPKNS_12const_bufferENS0_14transfer_all_tENS0_18write_dynbuf_v1_opIS8_NS_19basic_streambuf_refISaIcEEESD_ZN9SimpleWeb16SocketClientBaseIS8_E7upgradeERKSt10shared_ptrINSK_10ConnectionEEEUlRKSt10error_codemE_EEEESQ_mEESaIvEE3ptr8allocateERKSX_
FN:60,_ZN4asio6detail17executor_functionINS0_7binder2INS0_17read_dynbuf_v1_opINS_19basic_stream_socketINS_2ip3tcpENS_8executorEEENS_19basic_streambuf_refISaIcEEENS0_18transfer_exactly_tEZZN9SimpleWeb16SocketClientBaseIS8_E12read_messageERKSt10shared_ptrINSF_10ConnectionEEmENKUlRKSt10error_codemE_clESN_mEUlSN_mE_EESL_mEESaIvEE3ptr8allocateERKSS_
FN:60,_ZN4asio6detail17executor_functionINS0_7binder1IZN9SimpleWeb16SocketClientBaseINS_19basic_stream_socketINS_2ip3tcpENS_8executorEEEE10Connection11set_timeoutElEUlRKSt10error_codeE_SC_EESaIvEE3ptrD2Ev
FN:60,_ZN4asio6detail17executor_functionINS0_7binder2INS0_17read_dynbuf_v1_opINS_19basic_stream_socketINS_2ip3tcpENS_8executorEEENS_19basic_streambuf_refISaIcEEENS0_18transfer_exactly_tEZN9SimpleWeb16SocketClientBaseIS8_E12read_messageERKSt10shared_ptrINSF_10ConnectionEEmEUlRKSt10error_codemE_EESL_mEESaIvEE3ptr5resetEv
FN:60,_ZN4asio6detail17executor_functionINS0_7binder2IZN9SimpleWeb12SocketClientINS_19basic_stream_socketINS_2ip3tcpENS_8executorEEEE7connectEvEUlRKSt10error_codeNS6_22basic_resolver_resultsIS7_EEE_SB_SF_EESaIvEE3ptrD2Ev
FN:60,_ZN4asio6detail17executor_functionINS0_7binder2INS0_8write_opINS_19basic_stream_socketINS_2ip3tcpENS_8executorEEENS_15const_buffers_1EPKNS_12const_bufferENS0_14transfer_all_tENS0_18write_dynbuf_v1_opIS8_NS_19basic_streambuf_refISaIcEEESD_ZN9SimpleWeb16SocketClientBaseIS8_E10Connection15send_from_queueEvEUlRKSt10error_codemE_EEEESM_mEESaIvEE3ptr8allocateERKST_
FN:60,_ZN4asio6detail17executor_functionINS0_7binder2INS0_29read_until_delim_string_op_v1INS_19basic_stream_socketINS_2ip3tcpENS_8executorEEENS_19basic_streambuf_refISaIcEEEZZN9SimpleWeb16SocketClientBaseIS8_E7upgradeERKSt10shared_ptrINSE_10ConnectionEEENKUlRKSt10error_codemE_clESM_mEUlSM_mE_EESK_mEESaIvEE3ptrD2Ev
FN:60,_ZN4asio6detail17executor_functionINS0_7binder2IZN9SimpleWeb12SocketClientINS_19basic_stream_socketINS_2ip3tcpENS_8executorEEEE7connectEvEUlRKSt10error_codeNS6_22basic_resolver_resultsIS7_EEE_SB_SF_EESaIvEE3ptr5resetEv
FN:60,_ZN4asio6detail17executor_functionINS0_7binder2INS0_8write_opINS_19basic_stream_socketINS_2ip3tcpENS_8executorEEENS_15const_buffers_1EPKNS_12const_bufferENS0_14transfer_all_tENS0_18write_dynbuf_v1_opIS8_NS_19basic_streambuf_refISaIcEEESD_ZN9SimpleWeb16SocketClientBaseIS8_E10Connection15send_from_queueEvEUlRKSt10error_codemE_EEEESM_mEESaIvEE3ptrD2Ev
FN:60,_ZN4asio6detail17executor_functionINS0_7binder2INS0_8write_opINS_19basic_stream_socketINS_2ip3tcpENS_8executorEEENS_15const_buffers_1EPKNS_12const_bufferENS0_14transfer_all_tENS0_18write_dynbuf_v1_opIS8_NS_19basic_streambuf_refISaIcEEESD_ZN9SimpleWeb16SocketClientBaseIS8_E7upgradeERKSt10shared_ptrINSK_10ConnectionEEEUlRKSt10error_codemE_EEEESQ_mEESaIvEE3ptr5resetEv
FN:60,_ZN4asio6detail17executor_functionINS0_7binder2INS0_8write_opINS_19basic_stream_socketINS_2ip3tcpENS_8executorEEENS_15const_buffers_1EPKNS_12const_bufferENS0_14transfer_all_tENS0_18write_dynbuf_v1_opIS8_NS_19basic_streambuf_refISaIcEEESD_ZN9SimpleWeb16SocketClientBaseIS8_E7upgradeERKSt10shared_ptrINSK_10ConnectionEEEUlRKSt10error_codemE_EEEESQ_mEESaIvEE3ptrD2Ev
FN:60,_ZN4asio6detail17executor_functionINS0_7binder1INS0_16range_connect_opINS_2ip3tcpENS_8executorENS4_22basic_resolver_resultsIS5_EENS0_25default_connect_conditionEZZN9SimpleWeb12SocketClientINS_19basic_stream_socketIS5_S6_EEE7connectEvENKUlRKSt10error_codeS8_E_clESH_S8_EUlSH_NS4_14basic_endpointIS5_EEE_EESF_EESaIvEE3ptr8allocateERKSO_
FN:60,_ZN4asio6detail17executor_functionINS0_7binder2INS0_17read_dynbuf_v1_opINS_19basic_stream_socketINS_2ip3tcpENS_8executorEEENS_19basic_streambuf_refISaIcEEENS0_18transfer_exactly_tEZZN9SimpleWeb16SocketClientBaseIS8_E12read_messageERKSt10shared_ptrINSF_10ConnectionEEmENKUlRKSt10error_codemE_clESN_mEUlSN_mE0_EESL_mEESaIvEE3ptr5resetEv
FN:60,_ZN4asio6detail17executor_functionINS0_7binder2IZN9SimpleWeb12SocketClientINS_19basic_stream_socketINS_2ip3tcpENS_8executorEEEE7connectEvEUlRKSt10error_codeNS6_22basic_resolver_resultsIS7_EEE_SB_SF_EESaIvEE3ptr8allocateERKSI_
FN:64,_ZN4asio6detail17executor_functionINS0_7binder2INS0_8write_opINS_19basic_stream_socketINS_2ip3tcpENS_8executorEEENS_15const_buffers_1EPKNS_12const_bufferENS0_14transfer_all_tENS0_18write_dynbuf_v1_opIS8_NS_19basic_streambuf_refISaIcEEESD_ZN9SimpleWeb16SocketClientBaseIS8_E7upgradeERKSt10shared_ptrINSK_10ConnectionEEEUlRKSt10error_codemE_EEEESQ_mEESaIvEEC2ISW_EEOT_RKSX_
FN:64,_ZN4asio6detail17executor_functionINS0_7binder2INS0_17read_dynbuf_v1_opINS_19basic_stream_socketINS_2ip3tcpENS_8executorEEENS_19basic_streambuf_refISaIcEEENS0_18transfer_exactly_tEZZN9SimpleWeb16SocketClientBaseIS8_E12read_messageERKSt10shared_ptrINSF_10ConnectionEEmENKUlRKSt10error_codemE_clESN_mEUlSN_mE_EESL_mEESaIvEEC2ISR_EEOT_RKSS_
FN:64,_ZN4asio6detail17executor_functionINS0_7binder2IZN9SimpleWeb12SocketClientINS_19basic_stream_socketINS_2ip3tcpENS_8executorEEEE7connectEvEUlRKSt10error_codeNS6_22basic_resolver_resultsIS7_EEE_SB_SF_EESaIvEEC2ISH_EEOT_RKSI_
FN:64,_ZN4asio6detail17executor_functionINS0_7binder2INS0_17read_dynbuf_v1_opINS_19basic_stream_socketINS_2ip3tcpENS_8executorEEENS_19basic_streambuf_refISaIcEEENS0_18transfer_exactly_tEZZN9SimpleWeb16SocketClientBaseIS8_E12read_messageERKSt10shared_ptrINSF_10ConnectionEEmENKUlRKSt10error_codemE_clESN_mEUlSN_mE0_EESL_mEESaIvEEC2ISR_EEOT_RKSS_
FN:64,_ZN4asio6detail17executor_functionINS0_7binder1INS0_16range_connect_opINS_2ip3tcpENS_8executorENS4_22basic_resolver_resultsIS5_EENS0_25default_connect_conditionEZZN9SimpleWeb12SocketClientINS_19basic_stream_socketIS5_S6_EEE7connectEvENKUlRKSt10error_codeS8_E_clESH_S8_EUlSH_NS4_14basic_endpointIS5_EEE_EESF_EESaIvEEC2ISN_EEOT_RKSO_
FN:64,_ZN4asio6detail17executor_functionINS0_7binder2INS0_8write_opINS_19basic_stream_socketINS_2ip3tcpENS_8executorEEENS_15const_buffers_1EPKNS_12const_bufferENS0_14transfer_all_tENS0_18write_dynbuf_v1_opIS8_NS_19basic_streambuf_refISaIcEEESD_ZN9SimpleWeb16SocketClientBaseIS8_E10Connection15send_from_queueEvEUlRKSt10error_codemE_EEEESM_mEESaIvEEC2ISS_EEOT_RKST_
FN:64,_ZN4asio6detail17executor_functionINS0_7binder2INS0_17read_dynbuf_v1_opINS_19basic_stream_socketINS_2ip3tcpENS_8executorEEENS_19basic_streambuf_refISaIcEEENS0_18transfer_exactly_tEZN9SimpleWeb16SocketClientBaseIS8_E12read_messageERKSt10shared_ptrINSF_10ConnectionEEmEUlRKSt10error_codemE_EESL_mEESaIvEEC2ISQ_EEOT_RKSR_
FN:64,_ZN4asio6detail17executor_functionINS0_15work_dispatcherINS0_7binder1INS0_16range_connect_opINS_2ip3tcpENS_8executorENS5_22basic_resolver_resultsIS6_EENS0_25default_connect_conditionEZZN9SimpleWeb12SocketClientINS_19basic_stream_socketIS6_S7_EEE7connectEvENKUlRKSt10error_codeS9_E_clESI_S9_EUlSI_NS5_14basic_endpointIS6_EEE_EESG_EEEESaIvEEC2ISP_EEOT_RKSQ_
FN:64,_ZN4asio6detail17executor_functionINS0_7binder2INS0_29read_until_delim_string_op_v1INS_19basic_stream_socketINS_2ip3tcpENS_8executorEEENS_19basic_streambuf_refISaIcEEEZZN9SimpleWeb16SocketClientBaseIS8_E7upgradeERKSt10shared_ptrINSE_10ConnectionEEENKUlRKSt10error_codemE_clESM_mEUlSM_mE_EESK_mEESaIvEEC2ISQ_EEOT_RKSR_
FN:64,_ZN4asio6detail17executor_functionINS0_7binder2INS0_17read_dynbuf_v1_opINS_19basic_stream_socketINS_2ip3tcpENS_8executorEEENS_19basic_streambuf_refISaIcEEENS0_18transfer_exactly_tEZN9SimpleWeb16SocketClientBaseIS8_E20read_message_contentERKSt10shared_ptrINSF_10ConnectionEEmEUlRKSt10error_codemE_EESL_mEESaIvEEC2ISQ_EEOT_RKSR_
FN:64,_ZN4asio6detail17executor_functionINS0_7binder1IZN9SimpleWeb16SocketClientBaseINS_19basic_stream_socketINS_2ip3tcpENS_8executorEEEE10Connection11set_timeoutElEUlRKSt10error_codeE_SC_EESaIvEEC2ISG_EEOT_RKSH_
FN:71,_ZN4asio6detail17executor_functionINS0_7binder2INS0_17read_dynbuf_v1_opINS_19basic_stream_socketINS_2ip3tcpENS_8executorEEENS_19basic_streambuf_refISaIcEEENS0_18transfer_exactly_tEZZN9SimpleWeb16SocketClientBaseIS8_E12read_messageERKSt10shared_ptrINSF_10ConnectionEEmENKUlRKSt10error_codemE_clESN_mEUlSN_mE0_EESL_mEESaIvEE11do_completeEPNS0_22executor_function_baseEb
FN:71,_ZN4asio6detail17executor_functionINS0_7binder2INS0_17read_dynbuf_v1_opINS_19basic_stream_socketINS_2ip3tcpENS_8executorEEENS_19basic_streambuf_refISaIcEEENS0_18transfer_exactly_tEZN9SimpleWeb16SocketClientBaseIS8_E12read_messageERKSt10shared_ptrINSF_10ConnectionEEmEUlRKSt10error_codemE_EESL_mEESaIvEE11do_completeEPNS0_22executor_function_baseEb
FN:71,_ZN4asio6detail17executor_functionINS0_7binder2INS0_8write_opINS_19basic_stream_socketINS_2ip3tcpENS_8executorEEENS_15const_buffers_1EPKNS_12const_bufferENS0_14transfer_all_tENS0_18write_dynbuf_v1_opIS8_NS_19basic_streambuf_refISaIcEEESD_ZN9SimpleWeb16SocketClientBaseIS8_E7upgradeERKSt10shared_ptrINSK_10ConnectionEEEUlRKSt10error_codemE_EEEESQ_mEESaIvEE11do_completeEPNS0_22executor_function_baseEb
FN:71,_ZN4asio6detail17executor_functionINS0_15work_dispatcherINS0_7binder1INS0_16range_connect_opINS_2ip3tcpENS_8executorENS5_22basic_resolver_resultsIS6_EENS0_25default_connect_conditionEZZN9SimpleWeb12SocketClientINS_19basic_stream_socketIS6_S7_EEE7connectEvENKUlRKSt10error_codeS9_E_clESI_S9_EUlSI_NS5_14basic_endpointIS6_EEE_EESG_EEEESaIvEE11do_completeEPNS0_22executor_function_baseEb
FN:71,_ZN4asio6detail17executor_functionINS0_7binder2INS0_29read_until_delim_string_op_v1INS_19basic_stream_socketINS_2ip3tcpENS_8executorEEENS_19basic_streambuf_refISaIcEEEZZN9SimpleWeb16SocketClientBaseIS8_E7upgradeERKSt10shared_ptrINSE_10ConnectionEEENKUlRKSt10error_codemE_clESM_mEUlSM_mE_EESK_mEESaIvEE11do_completeEPNS0_22executor_function_baseEb
FN:71,_ZN4asio6detail17executor_functionINS0_7binder2INS0_17read_dynbuf_v1_opINS_19basic_stream_socketINS_2ip3tcpENS_8executorEEENS_19basic_streambuf_refISaIcEEENS0_18transfer_exactly_tEZZN9SimpleWeb16SocketClientBaseIS8_E12read_messageERKSt10shared_ptrINSF_10ConnectionEEmENKUlRKSt10error_codemE_clESN_mEUlSN_mE_EESL_mEESaIvEE11do_completeEPNS0_22executor_function_baseEb
FN:71,_ZN4asio6detail17executor_functionINS0_7binder1IZN9SimpleWeb16SocketClientBaseINS_19basic_stream_socketINS_2ip3tcpENS_8executorEEEE10Connection11set_timeoutElEUlRKSt10error_codeE_SC_EESaIvEE11do_completeEPNS0_22executor_function_baseEb
FN:71,_ZN4asio6detail17executor_functionINS0_7binder1INS0_16range_connect_opINS_2ip3tcpENS_8executorENS4_22basic_resolver_resultsIS5_EENS0_25default_connect_conditionEZZN9SimpleWeb12SocketClientINS_19basic_stream_socketIS5_S6_EEE7connectEvENKUlRKSt10error_codeS8_E_clESH_S8_EUlSH_NS4_14basic_endpointIS5_EEE_EESF_EESaIvEE11do_completeEPNS0_22executor_function_baseEb
FN:71,_ZN4asio6detail17executor_functionINS0_7binder2INS0_17read_dynbuf_v1_opINS_19basic_stream_socketINS_2ip3tcpENS_8executorEEENS_19basic_streambuf_refISaIcEEENS0_18transfer_exactly_tEZN9SimpleWeb16SocketClientBaseIS8_E20read_message_contentERKSt10shared_ptrINSF_10ConnectionEEmEUlRKSt10error_codemE_EESL_mEESaIvEE11do_completeEPNS0_22executor_function_baseEb
FN:71,_ZN4asio6detail17executor_functionINS0_7binder2INS0_8write_opINS_19basic_stream_socketINS_2ip3tcpENS_8executorEEENS_15const_buffers_1EPKNS_12const_bufferENS0_14transfer_all_tENS0_18write_dynbuf_v1_opIS8_NS_19basic_streambuf_refISaIcEEESD_ZN9SimpleWeb16SocketClientBaseIS8_E10Connection15send_from_queueEvEUlRKSt10error_codemE_EEEESM_mEESaIvEE11do_completeEPNS0_22executor_function_baseEb
FN:71,_ZN4asio6detail17executor_functionINS0_7binder2IZN9SimpleWeb12SocketClientINS_19basic_stream_socketINS_2ip3tcpENS_8executorEEEE7connectEvEUlRKSt10error_codeNS6_22basic_resolver_resultsIS7_EEE_SB_SF_EESaIvEE11do_completeEPNS0_22executor_function_baseEb
FNDA:0,_ZN4asio6detail22executor_function_base8completeEv
FNDA:0,_ZN4asio6detail22executor_function_base7destroyEv
FNDA:0,_ZN4asio6detail22executor_function_baseC2EPFvPS1_bE
FNDA:0,_ZN4asio6detail22executor_function_baseD2Ev
FNDA:0,_ZN4asio6detail17executor_functionINS0_7binder2INS0_8write_opINS_19basic_stream_socketINS_2ip3tcpENS_8executorEEENS_15const_buffers_1EPKNS_12const_bufferENS0_14transfer_all_tENS0_18write_dynbuf_v1_opIS8_NS_19basic_streambuf_refISaIcEEESD_ZN9SimpleWeb16SocketClientBaseIS8_E10Connection15send_from_queueEvEUlRKSt10error_codemE_EEEESM_mEESaIvEED2Ev
FNDA:0,_ZN4asio6detail17executor_functionINS0_7binder2INS0_8write_opINS_19basic_stream_socketINS_2ip3tcpENS_8executorEEENS_15const_buffers_1EPKNS_12const_bufferENS0_14transfer_all_tENS0_18write_dynbuf_v1_opIS8_NS_19basic_streambuf_refISaIcEEESD_ZN9SimpleWeb16SocketClientBaseIS8_E7upgradeERKSt10shared_ptrINSK_10ConnectionEEEUlRKSt10error_codemE_EEEESQ_mEESaIvEED2Ev
FNDA:0,_ZN4asio6detail17executor_functionINS0_7binder2INS0_17read_dynbuf_v1_opINS_19basic_stream_socketINS_2ip3tcpENS_8executorEEENS_19basic_streambuf_refISaIcEEENS0_18transfer_exactly_tEZN9SimpleWeb16SocketClientBaseIS8_E20read_message_contentERKSt10shared_ptrINSF_10ConnectionEEmEUlRKSt10error_codemE_EESL_mEESaIvEED2Ev
FNDA:0,_ZN4asio6detail17executor_functionINS0_7binder2INS0_17read_dynbuf_v1_opINS_19basic_stream_socketINS_2ip3tcpENS_8executorEEENS_19basic_streambuf_refISaIcEEENS0_18transfer_exactly_tEZN9SimpleWeb16SocketClientBaseIS8_E12read_messageERKSt10shared_ptrINSF_10ConnectionEEmEUlRKSt10error_codemE_EESL_mEESaIvEED2Ev
FNDA:0,_ZN4asio6detail17executor_functionINS0_7binder2INS0_17read_dynbuf_v1_opINS_19basic_stream_socketINS_2ip3tcpENS_8executorEEENS_19basic_streambuf_refISaIcEEENS0_18transfer_exactly_tEZZN9SimpleWeb16SocketClientBaseIS8_E12read_messageERKSt10shared_ptrINSF_10ConnectionEEmENKUlRKSt10error_codemE_clESN_mEUlSN_mE0_EESL_mEESaIvEED2Ev
FNDA:0,_ZN4asio6detail17executor_functionINS0_7binder2INS0_17read_dynbuf_v1_opINS_19basic_stream_socketINS_2ip3tcpENS_8executorEEENS_19basic_streambuf_refISaIcEEENS0_18transfer_exactly_tEZZN9SimpleWeb16SocketClientBaseIS8_E12read_messageERKSt10shared_ptrINSF_10ConnectionEEmENKUlRKSt10error_codemE_clESN_mEUlSN_mE_EESL_mEESaIvEED2Ev
FNDA:0,_ZN4asio6detail17executor_functionINS0_7binder2INS0_29read_until_delim_string_op_v1INS_19basic_stream_socketINS_2ip3tcpENS_8executorEEENS_19basic_streambuf_refISaIcEEEZZN9SimpleWeb16SocketClientBaseIS8_E7upgradeERKSt10shared_ptrINSE_10ConnectionEEENKUlRKSt10error_codemE_clESM_mEUlSM_mE_EESK_mEESaIvEED2Ev
FNDA:0,_ZN4asio6detail17executor_functionINS0_7binder1INS0_16range_connect_opINS_2ip3tcpENS_8executorENS4_22basic_resolver_resultsIS5_EENS0_25default_connect_conditionEZZN9SimpleWeb12SocketClientINS_19basic_stream_socketIS5_S6_EEE7connectEvENKUlRKSt10error_codeS8_E_clESH_S8_EUlSH_NS4_14basic_endpointIS5_EEE_EESF_EESaIvEED2Ev
FNDA:0,_ZN4asio6detail17executor_functionINS0_7binder2IZN9SimpleWeb12SocketClientINS_19basic_stream_socketINS_2ip3tcpENS_8executorEEEE7connectEvEUlRKSt10error_codeNS6_22basic_resolver_resultsIS7_EEE_SB_SF_EESaIvEED2Ev
FNDA:0,_ZN4asio6detail17executor_functionINS0_15work_dispatcherINS0_7binder1INS0_16range_connect_opINS_2ip3tcpENS_8executorENS5_22basic_resolver_resultsIS6_EENS0_25default_connect_conditionEZZN9SimpleWeb12SocketClientINS_19basic_stream_socketIS6_S7_EEE7connectEvENKUlRKSt10error_codeS9_E_clESI_S9_EUlSI_NS5_14basic_endpointIS6_EEE_EESG_EEEESaIvEED2Ev
FNDA:0,_ZN4asio6detail17executor_functionINS0_7binder1IZN9SimpleWeb16SocketClientBaseINS_19basic_stream_socketINS_2ip3tcpENS_8executorEEEE10Connection11set_timeoutElEUlRKSt10error_codeE_SC_EESaIvEED2Ev
FNDA:0,_ZN4asio6detail17executor_functionINS0_7binder2INS0_8write_opINS_19basic_stream_socketINS_2ip3tcpENS_8executorEEENS_15const_buffers_1EPKNS_12const_bufferENS0_14transfer_all_tENS0_18write_dynbuf_v1_opIS8_NS_19basic_streambuf_refISaIcEEESD_ZN9SimpleWeb16SocketClientBaseIS8_E10Connection15send_from_queueEvEUlRKSt10error_codemE_EEEESM_mEESaIvEE3ptr5resetEv
FNDA:0,_ZN4asio6detail17executor_functionINS0_7binder2INS0_8write_opINS_19basic_stream_socketINS_2ip3tcpENS_8executorEEENS_15const_buffers_1EPKNS_12const_bufferENS0_14transfer_all_tENS0_18write_dynbuf_v1_opIS8_NS_19basic_streambuf_refISaIcEEESD_ZN9SimpleWeb16SocketClientBaseIS8_E10Connection15send_from_queueEvEUlRKSt10error_codemE_EEEESM_mEESaIvEE3ptrD2Ev
FNDA:0,_ZN4asio6detail17executor_functionINS0_7binder2INS0_8write_opINS_19basic_stream_socketINS_2ip3tcpENS_8executorEEENS_15const_buffers_1EPKNS_12const_bufferENS0_14transfer_all_tENS0_18write_dynbuf_v1_opIS8_NS_19basic_streambuf_refISaIcEEESD_ZN9SimpleWeb16SocketClientBaseIS8_E10Connection15send_from_queueEvEUlRKSt10error_codemE_EEEESM_mEESaIvEE3ptr8allocateERKST_
FNDA:0,_ZN4asio6detail17executor_functionINS0_7binder2INS0_8write_opINS_19basic_stream_socketINS_2ip3tcpENS_8executorEEENS_15const_buffers_1EPKNS_12const_bufferENS0_14transfer_all_tENS0_18write_dynbuf_v1_opIS8_NS_19basic_streambuf_refISaIcEEESD_ZN9SimpleWeb16SocketClientBaseIS8_E7upgradeERKSt10shared_ptrINSK_10ConnectionEEEUlRKSt10error_codemE_EEEESQ_mEESaIvEE3ptr5resetEv
FNDA:0,_ZN4asio6detail17executor_functionINS0_7binder2INS0_8write_opINS_19basic_stream_socketINS_2ip3tcpENS_8executorEEENS_15const_buffers_1EPKNS_12const_bufferENS0_14transfer_all_tENS0_18write_dynbuf_v1_opIS8_NS_19basic_streambuf_refISaIcEEESD_ZN9SimpleWeb16SocketClientBaseIS8_E7upgradeERKSt10shared_ptrINSK_10ConnectionEEEUlRKSt10error_codemE_EEEESQ_mEESaIvEE3ptrD2Ev
FNDA:0,_ZN4asio6detail17executor_functionINS0_7binder2INS0_8write_opINS_19basic_stream_socketINS_2ip3tcpENS_8executorEEENS_15const_buffers_1EPKNS_12const_bufferENS0_14transfer_all_tENS0_18write_dynbuf_v1_opIS8_NS_19basic_streambuf_refISaIcEEESD_ZN9SimpleWeb16SocketClientBaseIS8_E7upgradeERKSt10shared_ptrINSK_10ConnectionEEEUlRKSt10error_codemE_EEEESQ_mEESaIvEE3ptr8allocateERKSX_
FNDA:0,_ZN4asio6detail17executor_functionINS0_7binder2INS0_17read_dynbuf_v1_opINS_19basic_stream_socketINS_2ip3tcpENS_8executorEEENS_19basic_streambuf_refISaIcEEENS0_18transfer_exactly_tEZN9SimpleWeb16SocketClientBaseIS8_E20read_message_contentERKSt10shared_ptrINSF_10ConnectionEEmEUlRKSt10error_codemE_EESL_mEESaIvEE3ptr5resetEv
FNDA:0,_ZN4asio6detail17executor_functionINS0_7binder2INS0_17read_dynbuf_v1_opINS_19basic_stream_socketINS_2ip3tcpENS_8executorEEENS_19basic_streambuf_refISaIcEEENS0_18transfer_exactly_tEZN9SimpleWeb16SocketClientBaseIS8_E12read_messageERKSt10shared_ptrINSF_10ConnectionEEmEUlRKSt10error_codemE_EESL_mEESaIvEE3ptr5resetEv
FNDA:0,_ZN4asio6detail17executor_functionINS0_7binder2INS0_17read_dynbuf_v1_opINS_19basic_stream_socketINS_2ip3tcpENS_8executorEEENS_19basic_streambuf_refISaIcEEENS0_18transfer_exactly_tEZZN9SimpleWeb16SocketClientBaseIS8_E12read_messageERKSt10shared_ptrINSF_10ConnectionEEmENKUlRKSt10error_codemE_clESN_mEUlSN_mE0_EESL_mEESaIvEE3ptr5resetEv
FNDA:0,_ZN4asio6detail17executor_functionINS0_7binder2INS0_17read_dynbuf_v1_opINS_19basic_stream_socketINS_2ip3tcpENS_8executorEEENS_19basic_streambuf_refISaIcEEENS0_18transfer_exactly_tEZZN9SimpleWeb16SocketClientBaseIS8_E12read_messageERKSt10shared_ptrINSF_10ConnectionEEmENKUlRKSt10error_codemE_clESN_mEUlSN_mE_EESL_mEESaIvEE3ptr5resetEv
FNDA:0,_ZN4asio6detail17executor_functionINS0_7binder2INS0_17read_dynbuf_v1_opINS_19basic_stream_socketINS_2ip3tcpENS_8executorEEENS_19basic_streambuf_refISaIcEEENS0_18transfer_exactly_tEZN9SimpleWeb16SocketClientBaseIS8_E20read_message_contentERKSt10shared_ptrINSF_10ConnectionEEmEUlRKSt10error_codemE_EESL_mEESaIvEE3ptrD2Ev
FNDA:0,_ZN4asio6detail17executor_functionINS0_7binder2INS0_17read_dynbuf_v1_opINS_19basic_stream_socketINS_2ip3tcpENS_8executorEEENS_19basic_streambuf_refISaIcEEENS0_18transfer_exactly_tEZN9SimpleWeb16SocketClientBaseIS8_E20read_message_contentERKSt10shared_ptrINSF_10ConnectionEEmEUlRKSt10error_codemE_EESL_mEESaIvEE3ptr8allocateERKSR_
FNDA:0,_ZN4asio6detail17executor_functionINS0_7binder2INS0_29read_until_delim_string_op_v1INS_19basic_stream_socketINS_2ip3tcpENS_8executorEEENS_19basic_streambuf_refISaIcEEEZZN9SimpleWeb16SocketClientBaseIS8_E7upgradeERKSt10shared_ptrINSE_10ConnectionEEENKUlRKSt10error_codemE_clESM_mEUlSM_mE_EESK_mEESaIvEE3ptr5resetEv
FNDA:0,_ZN4asio6detail17executor_functionINS0_7binder2INS0_17read_dynbuf_v1_opINS_19basic_stream_socketINS_2ip3tcpENS_8executorEEENS_19basic_streambuf_refISaIcEEENS0_18transfer_exactly_tEZN9SimpleWeb16SocketClientBaseIS8_E12read_messageERKSt10shared_ptrINSF_10ConnectionEEmEUlRKSt10error_codemE_EESL_mEESaIvEE3ptrD2Ev
FNDA:0,_ZN4asio6detail17executor_functionINS0_7binder2INS0_17read_dynbuf_v1_opINS_19basic_stream_socketINS_2ip3tcpENS_8executorEEENS_19basic_streambuf_refISaIcEEENS0_18transfer_exactly_tEZN9SimpleWeb16SocketClientBaseIS8_E12read_messageERKSt10shared_ptrINSF_10ConnectionEEmEUlRKSt10error_codemE_EESL_mEESaIvEE3ptr8allocateERKSR_
FNDA:0,_ZN4asio6detail17executor_functionINS0_7binder2INS0_17read_dynbuf_v1_opINS_19basic_stream_socketINS_2ip3tcpENS_8executorEEENS_19basic_streambuf_refISaIcEEENS0_18transfer_exactly_tEZZN9SimpleWeb16SocketClientBaseIS8_E12read_messageERKSt10shared_ptrINSF_10ConnectionEEmENKUlRKSt10error_codemE_clESN_mEUlSN_mE0_EESL_mEESaIvEE3ptrD2Ev
FNDA:0,_ZN4asio6detail17executor_functionINS0_7binder2INS0_17read_dynbuf_v1_opINS_19basic_stream_socketINS_2ip3tcpENS_8executorEEENS_19basic_streambuf_refISaIcEEENS0_18transfer_exactly_tEZZN9SimpleWeb16SocketClientBaseIS8_E12read_messageERKSt10shared_ptrINSF_10ConnectionEEmENKUlRKSt10error_codemE_clESN_mEUlSN_mE0_EESL_mEESaIvEE3ptr8allocateERKSS_
FNDA:0,_ZN4asio6detail17executor_functionINS0_7binder2INS0_17read_dynbuf_v1_opINS_19basic_stream_socketINS_2ip3tcpENS_8executorEEENS_19basic_streambuf_refISaIcEEENS0_18transfer_exactly_tEZZN9SimpleWeb16SocketClientBaseIS8_E12read_messageERKSt10shared_ptrINSF_10ConnectionEEmENKUlRKSt10error_codemE_clESN_mEUlSN_mE_EESL_mEESaIvEE3ptrD2Ev
FNDA:0,_ZN4asio6detail17executor_functionINS0_7binder2INS0_17read_dynbuf_v1_opINS_19basic_stream_socketINS_2ip3tcpENS_8executorEEENS_19basic_streambuf_refISaIcEEENS0_18transfer_exactly_tEZZN9SimpleWeb16SocketClientBaseIS8_E12read_messageERKSt10shared_ptrINSF_10ConnectionEEmENKUlRKSt10error_codemE_clESN_mEUlSN_mE_EESL_mEESaIvEE3ptr8allocateERKSS_
FNDA:0,_ZN4asio6detail17executor_functionINS0_7binder1INS0_16range_connect_opINS_2ip3tcpENS_8executorENS4_22basic_resolver_resultsIS5_EENS0_25default_connect_conditionEZZN9SimpleWeb12SocketClientINS_19basic_stream_socketIS5_S6_EEE7connectEvENKUlRKSt10error_codeS8_E_clESH_S8_EUlSH_NS4_14basic_endpointIS5_EEE_EESF_EESaIvEE3ptr5resetEv
FNDA:0,_ZN4asio6detail17executor_functionINS0_7binder2INS0_29read_until_delim_string_op_v1INS_19basic_stream_socketINS_2ip3tcpENS_8executorEEENS_19basic_streambuf_refISaIcEEEZZN9SimpleWeb16SocketClientBaseIS8_E7upgradeERKSt10shared_ptrINSE_10ConnectionEEENKUlRKSt10error_codemE_clESM_mEUlSM_mE_EESK_mEESaIvEE3ptrD2Ev
FNDA:0,_ZN4asio6detail17executor_functionINS0_7binder2INS0_29read_until_delim_string_op_v1INS_19basic_stream_socketINS_2ip3tcpENS_8executorEEENS_19basic_streambuf_refISaIcEEEZZN9SimpleWeb16SocketClientBaseIS8_E7upgradeERKSt10shared_ptrINSE_10ConnectionEEENKUlRKSt10error_codemE_clESM_mEUlSM_mE_EESK_mEESaIvEE3ptr8allocateERKSR_
FNDA:0,_ZN4asio6detail17executor_functionINS0_7binder1INS0_16range_connect_opINS_2ip3tcpENS_8executorENS4_22basic_resolver_resultsIS5_EENS0_25default_connect_conditionEZZN9SimpleWeb12SocketClientINS_19basic_stream_socketIS5_S6_EEE7connectEvENKUlRKSt10error_codeS8_E_clESH_S8_EUlSH_NS4_14basic_endpointIS5_EEE_EESF_EESaIvEE3ptrD2Ev
FNDA:0,_ZN4asio6detail17executor_functionINS0_7binder1INS0_16range_connect_opINS_2ip3tcpENS_8executorENS4_22basic_resolver_resultsIS5_EENS0_25default_connect_conditionEZZN9SimpleWeb12SocketClientINS_19basic_stream_socketIS5_S6_EEE7connectEvENKUlRKSt10error_codeS8_E_clESH_S8_EUlSH_NS4_14basic_endpointIS5_EEE_EESF_EESaIvEE3ptr8allocateERKSO_
FNDA:0,_ZN4asio6detail17executor_functionINS0_7binder2IZN9SimpleWeb12SocketClientINS_19basic_stream_socketINS_2ip3tcpENS_8executorEEEE7connectEvEUlRKSt10error_codeNS6_22basic_resolver_resultsIS7_EEE_SB_SF_EESaIvEE3ptr5resetEv
FNDA:0,_ZN4asio6detail17executor_functionINS0_7binder2IZN9SimpleWeb12SocketClientINS_19basic_stream_socketINS_2ip3tcpENS_8executorEEEE7connectEvEUlRKSt10error_codeNS6_22basic_resolver_resultsIS7_EEE_SB_SF_EESaIvEE3ptrD2Ev
FNDA:0,_ZN4asio6detail17executor_functionINS0_7binder2IZN9SimpleWeb12SocketClientINS_19basic_stream_socketINS_2ip3tcpENS_8executorEEEE7connectEvEUlRKSt10error_codeNS6_22basic_resolver_resultsIS7_EEE_SB_SF_EESaIvEE3ptr8allocateERKSI_
FNDA:0,_ZN4asio6detail17executor_functionINS0_15work_dispatcherINS0_7binder1INS0_16range_connect_opINS_2ip3tcpENS_8executorENS5_22basic_resolver_resultsIS6_EENS0_25default_connect_conditionEZZN9SimpleWeb12SocketClientINS_19basic_stream_socketIS6_S7_EEE7connectEvENKUlRKSt10error_codeS9_E_clESI_S9_EUlSI_NS5_14basic_endpointIS6_EEE_EESG_EEEESaIvEE3ptr5resetEv
FNDA:0,_ZN4asio6detail17executor_functionINS0_7binder1IZN9SimpleWeb16SocketClientBaseINS_19basic_stream_socketINS_2ip3tcpENS_8executorEEEE10Connection11set_timeoutElEUlRKSt10error_codeE_SC_EESaIvEE3ptr5resetEv
FNDA:0,_ZN4asio6detail17executor_functionINS0_15work_dispatcherINS0_7binder1INS0_16range_connect_opINS_2ip3tcpENS_8executorENS5_22basic_resolver_resultsIS6_EENS0_25default_connect_conditionEZZN9SimpleWeb12SocketClientINS_19basic_stream_socketIS6_S7_EEE7connectEvENKUlRKSt10error_codeS9_E_clESI_S9_EUlSI_NS5_14basic_endpointIS6_EEE_EESG_EEEESaIvEE3ptrD2Ev
FNDA:0,_ZN4asio6detail17executor_functionINS0_15work_dispatcherINS0_7binder1INS0_16range_connect_opINS_2ip3tcpENS_8executorENS5_22basic_resolver_resultsIS6_EENS0_25default_connect_conditionEZZN9SimpleWeb12SocketClientINS_19basic_stream_socketIS6_S7_EEE7connectEvENKUlRKSt10error_codeS9_E_clESI_S9_EUlSI_NS5_14basic_endpointIS6_EEE_EESG_EEEESaIvEE3ptr8allocateERKSQ_
FNDA:0,_ZN4asio6detail17executor_functionINS0_7binder1IZN9SimpleWeb16SocketClientBaseINS_19basic_stream_socketINS_2ip3tcpENS_8executorEEEE10Connection11set_timeoutElEUlRKSt10error_codeE_SC_EESaIvEE3ptrD2Ev
FNDA:0,_ZN4asio6detail17executor_functionINS0_7binder1IZN9SimpleWeb16SocketClientBaseINS_19basic_stream_socketINS_2ip3tcpENS_8executorEEEE10Connection11set_timeoutElEUlRKSt10error_codeE_SC_EESaIvEE3ptr8allocateERKSH_
FNDA:0,_ZN4asio6detail17executor_functionINS0_7binder2INS0_8write_opINS_19basic_stream_socketINS_2ip3tcpENS_8executorEEENS_15const_buffers_1EPKNS_12const_bufferENS0_14transfer_all_tENS0_18write_dynbuf_v1_opIS8_NS_19basic_streambuf_refISaIcEEESD_ZN9SimpleWeb16SocketClientBaseIS8_E10Connection15send_from_queueEvEUlRKSt10error_codemE_EEEESM_mEESaIvEEC2ISS_EEOT_RKST_
FNDA:0,_ZN4asio6detail17executor_functionINS0_7binder2INS0_8write_opINS_19basic_stream_socketINS_2ip3tcpENS_8executorEEENS_15const_buffers_1EPKNS_12const_bufferENS0_14transfer_all_tENS0_18write_dynbuf_v1_opIS8_NS_19basic_streambuf_refISaIcEEESD_ZN9SimpleWeb16SocketClientBaseIS8_E7upgradeERKSt10shared_ptrINSK_10ConnectionEEEUlRKSt10error_codemE_EEEESQ_mEESaIvEEC2ISW_EEOT_RKSX_
FNDA:0,_ZN4asio6detail17executor_functionINS0_7binder2INS0_17read_dynbuf_v1_opINS_19basic_stream_socketINS_2ip3tcpENS_8executorEEENS_19basic_streambuf_refISaIcEEENS0_18transfer_exactly_tEZN9SimpleWeb16SocketClientBaseIS8_E20read_message_contentERKSt10shared_ptrINSF_10ConnectionEEmEUlRKSt10error_codemE_EESL_mEESaIvEEC2ISQ_EEOT_RKSR_
FNDA:0,_ZN4asio6detail17executor_functionINS0_7binder2INS0_17read_dynbuf_v1_opINS_19basic_stream_socketINS_2ip3tcpENS_8executorEEENS_19basic_streambuf_refISaIcEEENS0_18transfer_exactly_tEZN9SimpleWeb16SocketClientBaseIS8_E12read_messageERKSt10shared_ptrINSF_10ConnectionEEmEUlRKSt10error_codemE_EESL_mEESaIvEEC2ISQ_EEOT_RKSR_
FNDA:0,_ZN4asio6detail17executor_functionINS0_7binder2INS0_17read_dynbuf_v1_opINS_19basic_stream_socketINS_2ip3tcpENS_8executorEEENS_19basic_streambuf_refISaIcEEENS0_18transfer_exactly_tEZZN9SimpleWeb16SocketClientBaseIS8_E12read_messageERKSt10shared_ptrINSF_10ConnectionEEmENKUlRKSt10error_codemE_clESN_mEUlSN_mE0_EESL_mEESaIvEEC2ISR_EEOT_RKSS_
FNDA:0,_ZN4asio6detail17executor_functionINS0_7binder2INS0_17read_dynbuf_v1_opINS_19basic_stream_socketINS_2ip3tcpENS_8executorEEENS_19basic_streambuf_refISaIcEEENS0_18transfer_exactly_tEZZN9SimpleWeb16SocketClientBaseIS8_E12read_messageERKSt10shared_ptrINSF_10ConnectionEEmENKUlRKSt10error_codemE_clESN_mEUlSN_mE_EESL_mEESaIvEEC2ISR_EEOT_RKSS_
FNDA:0,_ZN4asio6detail17executor_functionINS0_7binder2INS0_29read_until_delim_string_op_v1INS_19basic_stream_socketINS_2ip3tcpENS_8executorEEENS_19basic_streambuf_refISaIcEEEZZN9SimpleWeb16SocketClientBaseIS8_E7upgradeERKSt10shared_ptrINSE_10ConnectionEEENKUlRKSt10error_codemE_clESM_mEUlSM_mE_EESK_mEESaIvEEC2ISQ_EEOT_RKSR_
FNDA:0,_ZN4asio6detail17executor_functionINS0_7binder1INS0_16range_connect_opINS_2ip3tcpENS_8executorENS4_22basic_resolver_resultsIS5_EENS0_25default_connect_conditionEZZN9SimpleWeb12SocketClientINS_19basic_stream_socketIS5_S6_EEE7connectEvENKUlRKSt10error_codeS8_E_clESH_S8_EUlSH_NS4_14basic_endpointIS5_EEE_EESF_EESaIvEEC2ISN_EEOT_RKSO_
FNDA:0,_ZN4asio6detail17executor_functionINS0_7binder2IZN9SimpleWeb12SocketClientINS_19basic_stream_socketINS_2ip3tcpENS_8executorEEEE7connectEvEUlRKSt10error_codeNS6_22basic_resolver_resultsIS7_EEE_SB_SF_EESaIvEEC2ISH_EEOT_RKSI_
FNDA:0,_ZN4asio6detail17executor_functionINS0_15work_dispatcherINS0_7binder1INS0_16range_connect_opINS_2ip3tcpENS_8executorENS5_22basic_resolver_resultsIS6_EENS0_25default_connect_conditionEZZN9SimpleWeb12SocketClientINS_19basic_stream_socketIS6_S7_EEE7connectEvENKUlRKSt10error_codeS9_E_clESI_S9_EUlSI_NS5_14basic_endpointIS6_EEE_EESG_EEEESaIvEEC2ISP_EEOT_RKSQ_
FNDA:0,_ZN4asio6detail17executor_functionINS0_7binder1IZN9SimpleWeb16SocketClientBaseINS_19basic_stream_socketINS_2ip3tcpENS_8executorEEEE10Connection11set_timeoutElEUlRKSt10error_codeE_SC_EESaIvEEC2ISG_EEOT_RKSH_
FNDA:0,_ZN4asio6detail17executor_functionINS0_7binder2INS0_8write_opINS_19basic_stream_socketINS_2ip3tcpENS_8executorEEENS_15const_buffers_1EPKNS_12const_bufferENS0_14transfer_all_tENS0_18write_dynbuf_v1_opIS8_NS_19basic_streambuf_refISaIcEEESD_ZN9SimpleWeb16SocketClientBaseIS8_E10Connection15send_from_queueEvEUlRKSt10error_codemE_EEEESM_mEESaIvEE11do_completeEPNS0_22executor_function_baseEb
FNDA:0,_ZN4asio6detail17executor_functionINS0_7binder2INS0_8write_opINS_19basic_stream_socketINS_2ip3tcpENS_8executorEEENS_15const_buffers_1EPKNS_12const_bufferENS0_14transfer_all_tENS0_18write_dynbuf_v1_opIS8_NS_19basic_streambuf_refISaIcEEESD_ZN9SimpleWeb16SocketClientBaseIS8_E7upgradeERKSt10shared_ptrINSK_10ConnectionEEEUlRKSt10error_codemE_EEEESQ_mEESaIvEE11do_completeEPNS0_22executor_function_baseEb
FNDA:0,_ZN4asio6detail17executor_functionINS0_7binder2INS0_17read_dynbuf_v1_opINS_19basic_stream_socketINS_2ip3tcpENS_8executorEEENS_19basic_streambuf_refISaIcEEENS0_18transfer_exactly_tEZN9SimpleWeb16SocketClientBaseIS8_E20read_message_contentERKSt10shared_ptrINSF_10ConnectionEEmEUlRKSt10error_codemE_EESL_mEESaIvEE11do_completeEPNS0_22executor_function_baseEb
FNDA:0,_ZN4asio6detail17executor_functionINS0_7binder2INS0_17read_dynbuf_v1_opINS_19basic_stream_socketINS_2ip3tcpENS_8executorEEENS_19basic_streambuf_refISaIcEEENS0_18transfer_exactly_tEZN9SimpleWeb16SocketClientBaseIS8_E12read_messageERKSt10shared_ptrINSF_10ConnectionEEmEUlRKSt10error_codemE_EESL_mEESaIvEE11do_completeEPNS0_22executor_function_baseEb
FNDA:0,_ZN4asio6detail17executor_functionINS0_7binder2INS0_17read_dynbuf_v1_opINS_19basic_stream_socketINS_2ip3tcpENS_8executorEEENS_19basic_streambuf_refISaIcEEENS0_18transfer_exactly_tEZZN9SimpleWeb16SocketClientBaseIS8_E12read_messageERKSt10shared_ptrINSF_10ConnectionEEmENKUlRKSt10error_codemE_clESN_mEUlSN_mE0_EESL_mEESaIvEE11do_completeEPNS0_22executor_function_baseEb
FNDA:0,_ZN4asio6detail17executor_functionINS0_7binder2INS0_17read_dynbuf_v1_opINS_19basic_stream_socketINS_2ip3tcpENS_8executorEEENS_19basic_streambuf_refISaIcEEENS0_18transfer_exactly_tEZZN9SimpleWeb16SocketClientBaseIS8_E12read_messageERKSt10shared_ptrINSF_10ConnectionEEmENKUlRKSt10error_codemE_clESN_mEUlSN_mE_EESL_mEESaIvEE11do_completeEPNS0_22executor_function_baseEb
FNDA:0,_ZN4asio6detail17executor_functionINS0_7binder2INS0_29read_until_delim_string_op_v1INS_19basic_stream_socketINS_2ip3tcpENS_8executorEEENS_19basic_streambuf_refISaIcEEEZZN9SimpleWeb16SocketClientBaseIS8_E7upgradeERKSt10shared_ptrINSE_10ConnectionEEENKUlRKSt10error_codemE_clESM_mEUlSM_mE_EESK_mEESaIvEE11do_completeEPNS0_22executor_function_baseEb
FNDA:0,_ZN4asio6detail17executor_functionINS0_7binder1INS0_16range_connect_opINS_2ip3tcpENS_8executorENS4_22basic_resolver_resultsIS5_EENS0_25default_connect_conditionEZZN9SimpleWeb12SocketClientINS_19basic_stream_socketIS5_S6_EEE7connectEvENKUlRKSt10error_codeS8_E_clESH_S8_EUlSH_NS4_14basic_endpointIS5_EEE_EESF_EESaIvEE11do_completeEPNS0_22executor_function_baseEb
FNDA:0,_ZN4asio6detail17executor_functionINS0_7binder2IZN9SimpleWeb12SocketClientINS_19basic_stream_socketINS_2ip3tcpENS_8executorEEEE7connectEvEUlRKSt10error_codeNS6_22basic_resolver_resultsIS7_EEE_SB_SF_EESaIvEE11do_completeEPNS0_22executor_function_baseEb
FNDA:0,_ZN4asio6detail17executor_functionINS0_15work_dispatcherINS0_7binder1INS0_16range_connect_opINS_2ip3tcpENS_8executorENS5_22basic_resolver_resultsIS6_EENS0_25default_connect_conditionEZZN9SimpleWeb12SocketClientINS_19basic_stream_socketIS6_S7_EEE7connectEvENKUlRKSt10error_codeS9_E_clESI_S9_EUlSI_NS5_14basic_endpointIS6_EEE_EESG_EEEESaIvEE11do_completeEPNS0_22executor_function_baseEb
FNDA:0,_ZN4asio6detail17executor_functionINS0_7binder1IZN9SimpleWeb16SocketClientBaseINS_19basic_stream_socketINS_2ip3tcpENS_8executorEEEE10Connection11set_timeoutElEUlRKSt10error_codeE_SC_EESaIvEE11do_completeEPNS0_22executor_function_baseEb
FNF:70
FNH:0
DA:29,0
DA:31,0
DA:32,0
DA:34,0
DA:36,0
DA:37,0
DA:42,0
DA:43,0
DA:45,0
DA:48,0
DA:49,0
DA:50,0
DA:57,0
DA:60,0
DA:64,0
DA:67,0
DA:69,0
DA:71,0
DA:74,0
DA:76,0
DA:84,0
DA:85,0
DA:88,0
DA:90,0
DA:92,0
LF:25
LH:0
end_of_record
SF:/home/tistrauss/.conan/data/asio/1.13.0/_/_/package/5ab84d6acfe1f23c4fae0ab88f26e3a396351ac9/include/asio/detail/executor_op.hpp
FN:31,_ZN4asio6detail11executor_opINS_8executor8functionESaIvENS0_19scheduler_operationEED2Ev
FN:34,_ZN4asio6detail11executor_opINS_8executor8functionESaIvENS0_19scheduler_operationEE3ptr8allocateERKS4_
FN:34,_ZN4asio6detail11executor_opINS_8executor8functionESaIvENS0_19scheduler_operationEE3ptrD2Ev
FN:34,_ZN4asio6detail11executor_opINS_8executor8functionESaIvENS0_19scheduler_operationEE3ptr5resetEv
FN:37,_ZN4asio6detail11executor_opINS_8executor8functionESaIvENS0_19scheduler_operationEEC2IS3_EEOT_RKS4_
FN:44,_ZN4asio6detail11executor_opINS_8executor8functionESaIvENS0_19scheduler_operationEE11do_completeEPvPS5_RKSt10error_codem
FNDA:0,_ZN4asio6detail11executor_opINS_8executor8functionESaIvENS0_19scheduler_operationEED2Ev
FNDA:0,_ZN4asio6detail11executor_opINS_8executor8functionESaIvENS0_19scheduler_operationEE3ptr5resetEv
FNDA:0,_ZN4asio6detail11executor_opINS_8executor8functionESaIvENS0_19scheduler_operationEE3ptrD2Ev
FNDA:0,_ZN4asio6detail11executor_opINS_8executor8functionESaIvENS0_19scheduler_operationEE3ptr8allocateERKS4_
FNDA:0,_ZN4asio6detail11executor_opINS_8executor8functionESaIvENS0_19scheduler_operationEEC2IS3_EEOT_RKS4_
FNDA:0,_ZN4asio6detail11executor_opINS_8executor8functionESaIvENS0_19scheduler_operationEE11do_completeEPvPS5_RKSt10error_codem
FNF:6
FNH:0
DA:31,0
DA:34,0
DA:37,0
DA:40,0
DA:42,0
DA:44,0
DA:49,0
DA:51,0
DA:61,0
DA:62,0
DA:65,0
DA:67,0
DA:69,0
DA:72,0
LF:14
LH:0
end_of_record
SF:/home/tistrauss/.conan/data/asio/1.13.0/_/_/package/5ab84d6acfe1f23c4fae0ab88f26e3a396351ac9/include/asio/detail/handler_alloc_helpers.hpp
FN:33,_ZN26asio_handler_alloc_helpers8allocateIN4asio6detail18write_dynbuf_v1_opINS1_19basic_stream_socketINS1_2ip3tcpENS1_8executorEEENS1_19basic_streambuf_refISaIcEEENS2_14transfer_all_tEZN9SimpleWeb16SocketClientBaseIS8_E7upgradeERKSt10shared_ptrINSF_10ConnectionEEEUlRKSt10error_codemE_EEEEPvmRT_
FN:33,_ZN26asio_handler_alloc_helpers8allocateIN4asio6detail16range_connect_opINS1_2ip3tcpENS1_8executorENS4_22basic_resolver_resultsIS5_EENS2_25default_connect_conditionEZZN9SimpleWeb12SocketClientINS1_19basic_stream_socketIS5_S6_EEE7connectEvENKUlRKSt10error_codeS8_E_clESH_S8_EUlSH_NS4_14basic_endpointIS5_EEE_EEEEPvmRT_
FN:33,_ZN26asio_handler_alloc_helpers8allocateIZN9SimpleWeb16SocketClientBaseIN4asio19basic_stream_socketINS3_2ip3tcpENS3_8executorEEEE12read_messageERKSt10shared_ptrINS9_10ConnectionEEmEUlRKSt10error_codemE_EEPvmRT_
FN:33,_ZN26asio_handler_alloc_helpers8allocateIN4asio6detail29read_until_delim_string_op_v1INS1_19basic_stream_socketINS1_2ip3tcpENS1_8executorEEENS1_19basic_streambuf_refISaIcEEEZZN9SimpleWeb16SocketClientBaseIS8_E7upgradeERKSt10shared_ptrINSE_10ConnectionEEENKUlRKSt10error_codemE_clESM_mEUlSM_mE_EEEEPvmRT_
FN:33,_ZN26asio_handler_alloc_helpers8allocateIN4asio6detail17read_dynbuf_v1_opINS1_19basic_stream_socketINS1_2ip3tcpENS1_8executorEEENS1_19basic_streambuf_refISaIcEEENS2_18transfer_exactly_tEZZN9SimpleWeb16SocketClientBaseIS8_E12read_messageERKSt10shared_ptrINSF_10ConnectionEEmENKUlRKSt10error_codemE_clESN_mEUlSN_mE_EEEEPvmRT_
FN:33,_ZN26asio_handler_alloc_helpers8allocateIN4asio6detail17read_dynbuf_v1_opINS1_19basic_stream_socketINS1_2ip3tcpENS1_8executorEEENS1_19basic_streambuf_refISaIcEEENS2_18transfer_exactly_tEZN9SimpleWeb16SocketClientBaseIS8_E12read_messageERKSt10shared_ptrINSF_10ConnectionEEmEUlRKSt10error_codemE_EEEEPvmRT_
FN:33,_ZN26asio_handler_alloc_helpers8allocateIZN9SimpleWeb16SocketClientBaseIN4asio19basic_stream_socketINS3_2ip3tcpENS3_8executorEEEE20read_message_contentERKSt10shared_ptrINS9_10ConnectionEEmEUlRKSt10error_codemE_EEPvmRT_
FN:33,_ZN26asio_handler_alloc_helpers8allocateIZN9SimpleWeb16SocketClientBaseIN4asio19basic_stream_socketINS3_2ip3tcpENS3_8executorEEEE10Connection11set_timeoutElEUlRKSt10error_codeE_EEPvmRT_
FN:33,_ZN26asio_handler_alloc_helpers8allocateIN4asio6detail8write_opINS1_19basic_stream_socketINS1_2ip3tcpENS1_8executorEEENS1_15const_buffers_1EPKNS1_12const_bufferENS2_14transfer_all_tENS2_18write_dynbuf_v1_opIS8_NS1_19basic_streambuf_refISaIcEEESD_ZN9SimpleWeb16SocketClientBaseIS8_E7upgradeERKSt10shared_ptrINSK_10ConnectionEEEUlRKSt10error_codemE_EEEEEEPvmRT_
FN:33,_ZN26asio_handler_alloc_helpers8allocateIN4asio6detail17read_dynbuf_v1_opINS1_19basic_stream_socketINS1_2ip3tcpENS1_8executorEEENS1_19basic_streambuf_refISaIcEEENS2_18transfer_exactly_tEZN9SimpleWeb16SocketClientBaseIS8_E20read_message_contentERKSt10shared_ptrINSF_10ConnectionEEmEUlRKSt10error_codemE_EEEEPvmRT_
FN:33,_ZN26asio_handler_alloc_helpers8allocateIZN9SimpleWeb12SocketClientIN4asio19basic_stream_socketINS3_2ip3tcpENS3_8executorEEEE7connectEvEUlRKSt10error_codeNS5_22basic_resolver_resultsIS6_EEE_EEPvmRT_
FN:33,_ZN26asio_handler_alloc_helpers8allocateIN4asio6detail18write_dynbuf_v1_opINS1_19basic_stream_socketINS1_2ip3tcpENS1_8executorEEENS1_19basic_streambuf_refISaIcEEENS2_14transfer_all_tEZN9SimpleWeb16SocketClientBaseIS8_E10Connection15send_from_queueEvEUlRKSt10error_codemE_EEEEPvmRT_
FN:33,_ZN26asio_handler_alloc_helpers8allocateIN4asio6detail8write_opINS1_19basic_stream_socketINS1_2ip3tcpENS1_8executorEEENS1_15const_buffers_1EPKNS1_12const_bufferENS2_14transfer_all_tENS2_18write_dynbuf_v1_opIS8_NS1_19basic_streambuf_refISaIcEEESD_ZN9SimpleWeb16SocketClientBaseIS8_E10Connection15send_from_queueEvEUlRKSt10error_codemE_EEEEEEPvmRT_
FN:33,_ZN26asio_handler_alloc_helpers8allocateIZZN9SimpleWeb16SocketClientBaseIN4asio19basic_stream_socketINS3_2ip3tcpENS3_8executorEEEE7upgradeERKSt10shared_ptrINS9_10ConnectionEEENKUlRKSt10error_codemE_clESH_mEUlSH_mE_EEPvmRT_
FN:33,_ZN26asio_handler_alloc_helpers8allocateIZZN9SimpleWeb12SocketClientIN4asio19basic_stream_socketINS3_2ip3tcpENS3_8executorEEEE7connectEvENKUlRKSt10error_codeNS5_22basic_resolver_resultsIS6_EEE_clESC_SE_EUlSC_NS5_14basic_endpointIS6_EEE_EEPvmRT_
FN:33,_ZN26asio_handler_alloc_helpers8allocateIZZN9SimpleWeb16SocketClientBaseIN4asio19basic_stream_socketINS3_2ip3tcpENS3_8executorEEEE12read_messageERKSt10shared_ptrINS9_10ConnectionEEmENKUlRKSt10error_codemE_clESH_mEUlSH_mE_EEPvmRT_
FN:33,_ZN26asio_handler_alloc_helpers8allocateIZN9SimpleWeb16SocketClientBaseIN4asio19basic_stream_socketINS3_2ip3tcpENS3_8executorEEEE10Connection15send_from_queueEvEUlRKSt10error_codemE_EEPvmRT_
FN:33,_ZN26asio_handler_alloc_helpers8allocateIZN9SimpleWeb16SocketClientBaseIN4asio19basic_stream_socketINS3_2ip3tcpENS3_8executorEEEE7upgradeERKSt10shared_ptrINS9_10ConnectionEEEUlRKSt10error_codemE_EEPvmRT_
FN:33,_ZN26asio_handler_alloc_helpers8allocateIZZN9SimpleWeb16SocketClientBaseIN4asio19basic_stream_socketINS3_2ip3tcpENS3_8executorEEEE12read_messageERKSt10shared_ptrINS9_10ConnectionEEmENKUlRKSt10error_codemE_clESH_mEUlSH_mE0_EEPvmRT_
FN:33,_ZN26asio_handler_alloc_helpers8allocateIN4asio6detail17read_dynbuf_v1_opINS1_19basic_stream_socketINS1_2ip3tcpENS1_8executorEEENS1_19basic_streambuf_refISaIcEEENS2_18transfer_exactly_tEZZN9SimpleWeb16SocketClientBaseIS8_E12read_messageERKSt10shared_ptrINSF_10ConnectionEEmENKUlRKSt10error_codemE_clESN_mEUlSN_mE0_EEEEPvmRT_
FN:44,_ZN26asio_handler_alloc_helpers10deallocateIZZN9SimpleWeb12SocketClientIN4asio19basic_stream_socketINS3_2ip3tcpENS3_8executorEEEE7connectEvENKUlRKSt10error_codeNS5_22basic_resolver_resultsIS6_EEE_clESC_SE_EUlSC_NS5_14basic_endpointIS6_EEE_EEvPvmRT_
FN:44,_ZN26asio_handler_alloc_helpers10deallocateIN4asio6detail16range_connect_opINS1_2ip3tcpENS1_8executorENS4_22basic_resolver_resultsIS5_EENS2_25default_connect_conditionEZZN9SimpleWeb12SocketClientINS1_19basic_stream_socketIS5_S6_EEE7connectEvENKUlRKSt10error_codeS8_E_clESH_S8_EUlSH_NS4_14basic_endpointIS5_EEE_EEEEvPvmRT_
FN:44,_ZN26asio_handler_alloc_helpers10deallocateIN4asio6detail18write_dynbuf_v1_opINS1_19basic_stream_socketINS1_2ip3tcpENS1_8executorEEENS1_19basic_streambuf_refISaIcEEENS2_14transfer_all_tEZN9SimpleWeb16SocketClientBaseIS8_E7upgradeERKSt10shared_ptrINSF_10ConnectionEEEUlRKSt10error_codemE_EEEEvPvmRT_
FN:44,_ZN26asio_handler_alloc_helpers10deallocateIZZN9SimpleWeb16SocketClientBaseIN4asio19basic_stream_socketINS3_2ip3tcpENS3_8executorEEEE12read_messageERKSt10shared_ptrINS9_10ConnectionEEmENKUlRKSt10error_codemE_clESH_mEUlSH_mE0_EEvPvmRT_
FN:44,_ZN26asio_handler_alloc_helpers10deallocateIN4asio6detail17read_dynbuf_v1_opINS1_19basic_stream_socketINS1_2ip3tcpENS1_8executorEEENS1_19basic_streambuf_refISaIcEEENS2_18transfer_exactly_tEZN9SimpleWeb16SocketClientBaseIS8_E12read_messageERKSt10shared_ptrINSF_10ConnectionEEmEUlRKSt10error_codemE_EEEEvPvmRT_
FN:44,_ZN26asio_handler_alloc_helpers10deallocateIZZN9SimpleWeb16SocketClientBaseIN4asio19basic_stream_socketINS3_2ip3tcpENS3_8executorEEEE7upgradeERKSt10shared_ptrINS9_10ConnectionEEENKUlRKSt10error_codemE_clESH_mEUlSH_mE_EEvPvmRT_
FN:44,_ZN26asio_handler_alloc_helpers10deallocateIZN9SimpleWeb16SocketClientBaseIN4asio19basic_stream_socketINS3_2ip3tcpENS3_8executorEEEE12read_messageERKSt10shared_ptrINS9_10ConnectionEEmEUlRKSt10error_codemE_EEvPvmRT_
FN:44,_ZN26asio_handler_alloc_helpers10deallocateIZZN9SimpleWeb16SocketClientBaseIN4asio19basic_stream_socketINS3_2ip3tcpENS3_8executorEEEE12read_messageERKSt10shared_ptrINS9_10ConnectionEEmENKUlRKSt10error_codemE_clESH_mEUlSH_mE_EEvPvmRT_
FN:44,_ZN26asio_handler_alloc_helpers10deallocateIZN9SimpleWeb16SocketClientBaseIN4asio19basic_stream_socketINS3_2ip3tcpENS3_8executorEEEE20read_message_contentERKSt10shared_ptrINS9_10ConnectionEEmEUlRKSt10error_codemE_EEvPvmRT_
FN:44,_ZN26asio_handler_alloc_helpers10deallocateIN4asio6detail17read_dynbuf_v1_opINS1_19basic_stream_socketINS1_2ip3tcpENS1_8executorEEENS1_19basic_streambuf_refISaIcEEENS2_18transfer_exactly_tEZN9SimpleWeb16SocketClientBaseIS8_E20read_message_contentERKSt10shared_ptrINSF_10ConnectionEEmEUlRKSt10error_codemE_EEEEvPvmRT_
FN:44,_ZN26asio_handler_alloc_helpers10deallocateIZN9SimpleWeb16SocketClientBaseIN4asio19basic_stream_socketINS3_2ip3tcpENS3_8executorEEEE10Connection15send_from_queueEvEUlRKSt10error_codemE_EEvPvmRT_
FN:44,_ZN26asio_handler_alloc_helpers10deallocateIN4asio6detail8write_opINS1_19basic_stream_socketINS1_2ip3tcpENS1_8executorEEENS1_15const_buffers_1EPKNS1_12const_bufferENS2_14transfer_all_tENS2_18write_dynbuf_v1_opIS8_NS1_19basic_streambuf_refISaIcEEESD_ZN9SimpleWeb16SocketClientBaseIS8_E7upgradeERKSt10shared_ptrINSK_10ConnectionEEEUlRKSt10error_codemE_EEEEEEvPvmRT_
FN:44,_ZN26asio_handler_alloc_helpers10deallocateIN4asio6detail17read_dynbuf_v1_opINS1_19basic_stream_socketINS1_2ip3tcpENS1_8executorEEENS1_19basic_streambuf_refISaIcEEENS2_18transfer_exactly_tEZZN9SimpleWeb16SocketClientBaseIS8_E12read_messageERKSt10shared_ptrINSF_10ConnectionEEmENKUlRKSt10error_codemE_clESN_mEUlSN_mE0_EEEEvPvmRT_
FN:44,_ZN26asio_handler_alloc_helpers10deallocateIZN9SimpleWeb16SocketClientBaseIN4asio19basic_stream_socketINS3_2ip3tcpENS3_8executorEEEE10Connection11set_timeoutElEUlRKSt10error_codeE_EEvPvmRT_
FN:44,_ZN26asio_handler_alloc_helpers10deallocateIZN9SimpleWeb12SocketClientIN4asio19basic_stream_socketINS3_2ip3tcpENS3_8executorEEEE7connectEvEUlRKSt10error_codeNS5_22basic_resolver_resultsIS6_EEE_EEvPvmRT_
FN:44,_ZN26asio_handler_alloc_helpers10deallocateIN4asio6detail18write_dynbuf_v1_opINS1_19basic_stream_socketINS1_2ip3tcpENS1_8executorEEENS1_19basic_streambuf_refISaIcEEENS2_14transfer_all_tEZN9SimpleWeb16SocketClientBaseIS8_E10Connection15send_from_queueEvEUlRKSt10error_codemE_EEEEvPvmRT_
FN:44,_ZN26asio_handler_alloc_helpers10deallocateIN4asio6detail17read_dynbuf_v1_opINS1_19basic_stream_socketINS1_2ip3tcpENS1_8executorEEENS1_19basic_streambuf_refISaIcEEENS2_18transfer_exactly_tEZZN9SimpleWeb16SocketClientBaseIS8_E12read_messageERKSt10shared_ptrINSF_10ConnectionEEmENKUlRKSt10error_codemE_clESN_mEUlSN_mE_EEEEvPvmRT_
FN:44,_ZN26asio_handler_alloc_helpers10deallocateIN4asio6detail8write_opINS1_19basic_stream_socketINS1_2ip3tcpENS1_8executorEEENS1_15const_buffers_1EPKNS1_12const_bufferENS2_14transfer_all_tENS2_18write_dynbuf_v1_opIS8_NS1_19basic_streambuf_refISaIcEEESD_ZN9SimpleWeb16SocketClientBaseIS8_E10Connection15send_from_queueEvEUlRKSt10error_codemE_EEEEEEvPvmRT_
FN:44,_ZN26asio_handler_alloc_helpers10deallocateIN4asio6detail29read_until_delim_string_op_v1INS1_19basic_stream_socketINS1_2ip3tcpENS1_8executorEEENS1_19basic_streambuf_refISaIcEEEZZN9SimpleWeb16SocketClientBaseIS8_E7upgradeERKSt10shared_ptrINSE_10ConnectionEEENKUlRKSt10error_codemE_clESM_mEUlSM_mE_EEEEvPvmRT_
FN:44,_ZN26asio_handler_alloc_helpers10deallocateIZN9SimpleWeb16SocketClientBaseIN4asio19basic_stream_socketINS3_2ip3tcpENS3_8executorEEEE7upgradeERKSt10shared_ptrINS9_10ConnectionEEEUlRKSt10error_codemE_EEvPvmRT_
FN:77,_ZN4asio6detail14hook_allocatorINS0_8write_opINS_19basic_stream_socketINS_2ip3tcpENS_8executorEEENS_15const_buffers_1EPKNS_12const_bufferENS0_14transfer_all_tENS0_18write_dynbuf_v1_opIS7_NS_19basic_streambuf_refISaIcEEESC_ZN9SimpleWeb16SocketClientBaseIS7_E7upgradeERKSt10shared_ptrINSJ_10ConnectionEEEUlRKSt10error_codemE_EEEENS0_23reactive_socket_send_opIS8_SU_NS0_18io_object_executorIS6_EEEEEC2IvEERKNS1_ISU_T_EE
FN:77,_ZN4asio6detail14hook_allocatorIZN9SimpleWeb16SocketClientBaseINS_19basic_stream_socketINS_2ip3tcpENS_8executorEEEE10Connection11set_timeoutElEUlRKSt10error_codeE_NS0_12wait_handlerISE_NS0_18io_object_executorIS7_EEEEEC2IvEERKNS1_ISE_T_EE
FN:77,_ZN4asio6detail14hook_allocatorINS0_16range_connect_opINS_2ip3tcpENS_8executorENS3_22basic_resolver_resultsIS4_EENS0_25default_connect_conditionEZZN9SimpleWeb12SocketClientINS_19basic_stream_socketIS4_S5_EEE7connectEvENKUlRKSt10error_codeS7_E_clESG_S7_EUlSG_NS3_14basic_endpointIS4_EEE_EENS0_26reactive_socket_connect_opISL_NS0_18io_object_executorIS5_EEEEEC2IvEERKNS1_ISL_T_EE
FN:77,_ZN4asio6detail14hook_allocatorINS0_17read_dynbuf_v1_opINS_19basic_stream_socketINS_2ip3tcpENS_8executorEEENS_19basic_streambuf_refISaIcEEENS0_18transfer_exactly_tEZN9SimpleWeb16SocketClientBaseIS7_E20read_message_contentERKSt10shared_ptrINSE_10ConnectionEEmEUlRKSt10error_codemE_EENS0_23reactive_socket_recv_opINS_17mutable_buffers_1ESO_NS0_18io_object_executorIS6_EEEEEC2IvEERKNS1_ISO_T_EE
FN:77,_ZN4asio6detail14hook_allocatorINS0_17read_dynbuf_v1_opINS_19basic_stream_socketINS_2ip3tcpENS_8executorEEENS_19basic_streambuf_refISaIcEEENS0_18transfer_exactly_tEZZN9SimpleWeb16SocketClientBaseIS7_E12read_messageERKSt10shared_ptrINSE_10ConnectionEEmENKUlRKSt10error_codemE_clESM_mEUlSM_mE0_EENS0_23reactive_socket_recv_opINS_17mutable_buffers_1ESP_NS0_18io_object_executorIS6_EEEEEC2IvEERKNS1_ISP_T_EE
FN:77,_ZN4asio6detail14hook_allocatorINS0_17read_dynbuf_v1_opINS_19basic_stream_socketINS_2ip3tcpENS_8executorEEENS_19basic_streambuf_refISaIcEEENS0_18transfer_exactly_tEZZN9SimpleWeb16SocketClientBaseIS7_E12read_messageERKSt10shared_ptrINSE_10ConnectionEEmENKUlRKSt10error_codemE_clESM_mEUlSM_mE_EENS0_23reactive_socket_recv_opINS_17mutable_buffers_1ESP_NS0_18io_object_executorIS6_EEEEEC2IvEERKNS1_ISP_T_EE
FN:77,_ZN4asio6detail14hook_allocatorINS0_29read_until_delim_string_op_v1INS_19basic_stream_socketINS_2ip3tcpENS_8executorEEENS_19basic_streambuf_refISaIcEEEZZN9SimpleWeb16SocketClientBaseIS7_E7upgradeERKSt10shared_ptrINSD_10ConnectionEEENKUlRKSt10error_codemE_clESL_mEUlSL_mE_EENS0_23reactive_socket_recv_opINS_17mutable_buffers_1ESO_NS0_18io_object_executorIS6_EEEEEC2IvEERKNS1_ISO_T_EE
FN:77,_ZN4asio6detail14hook_allocatorINS0_8write_opINS_19basic_stream_socketINS_2ip3tcpENS_8executorEEENS_15const_buffers_1EPKNS_12const_bufferENS0_14transfer_all_tENS0_18write_dynbuf_v1_opIS7_NS_19basic_streambuf_refISaIcEEESC_ZN9SimpleWeb16SocketClientBaseIS7_E10Connection15send_from_queueEvEUlRKSt10error_codemE_EEEENS0_23reactive_socket_send_opIS8_SQ_NS0_18io_object_executorIS6_EEEEEC2IvEERKNS1_ISQ_T_EE
FN:77,_ZN4asio6detail14hook_allocatorIZN9SimpleWeb12SocketClientINS_19basic_stream_socketINS_2ip3tcpENS_8executorEEEE7connectEvEUlRKSt10error_codeNS5_22basic_resolver_resultsIS6_EEE_NS0_16resolve_query_opIS6_SF_NS0_18io_object_executorIS7_EEEEEC2IvEERKNS1_ISF_T_EE
FN:77,_ZN4asio6detail14hook_allocatorINS0_17read_dynbuf_v1_opINS_19basic_stream_socketINS_2ip3tcpENS_8executorEEENS_19basic_streambuf_refISaIcEEENS0_18transfer_exactly_tEZN9SimpleWeb16SocketClientBaseIS7_E12read_messageERKSt10shared_ptrINSE_10ConnectionEEmEUlRKSt10error_codemE_EENS0_23reactive_socket_recv_opINS_17mutable_buffers_1ESO_NS0_18io_object_executorIS6_EEEEEC2IvEERKNS1_ISO_T_EE
FN:82,_ZN4asio6detail14hook_allocatorINS0_17read_dynbuf_v1_opINS_19basic_stream_socketINS_2ip3tcpENS_8executorEEENS_19basic_streambuf_refISaIcEEENS0_18transfer_exactly_tEZZN9SimpleWeb16SocketClientBaseIS7_E12read_messageERKSt10shared_ptrINSE_10ConnectionEEmENKUlRKSt10error_codemE_clESM_mEUlSM_mE0_EENS0_23reactive_socket_recv_opINS_17mutable_buffers_1ESP_NS0_18io_object_executorIS6_EEEEE8allocateEm
FN:82,_ZN4asio6detail14hook_allocatorINS0_16range_connect_opINS_2ip3tcpENS_8executorENS3_22basic_resolver_resultsIS4_EENS0_25default_connect_conditionEZZN9SimpleWeb12SocketClientINS_19basic_stream_socketIS4_S5_EEE7connectEvENKUlRKSt10error_codeS7_E_clESG_S7_EUlSG_NS3_14basic_endpointIS4_EEE_EENS0_26reactive_socket_connect_opISL_NS0_18io_object_executorIS5_EEEEE8allocateEm
FN:82,_ZN4asio6detail14hook_allocatorIZN9SimpleWeb16SocketClientBaseINS_19basic_stream_socketINS_2ip3tcpENS_8executorEEEE10Connection11set_timeoutElEUlRKSt10error_codeE_NS0_12wait_handlerISE_NS0_18io_object_executorIS7_EEEEE8allocateEm
FN:82,_ZN4asio6detail14hook_allocatorINS0_29read_until_delim_string_op_v1INS_19basic_stream_socketINS_2ip3tcpENS_8executorEEENS_19basic_streambuf_refISaIcEEEZZN9SimpleWeb16SocketClientBaseIS7_E7upgradeERKSt10shared_ptrINSD_10ConnectionEEENKUlRKSt10error_codemE_clESL_mEUlSL_mE_EENS0_23reactive_socket_recv_opINS_17mutable_buffers_1ESO_NS0_18io_object_executorIS6_EEEEE8allocateEm
FN:82,_ZN4asio6detail14hook_allocatorINS0_17read_dynbuf_v1_opINS_19basic_stream_socketINS_2ip3tcpENS_8executorEEENS_19basic_streambuf_refISaIcEEENS0_18transfer_exactly_tEZN9SimpleWeb16SocketClientBaseIS7_E20read_message_contentERKSt10shared_ptrINSE_10ConnectionEEmEUlRKSt10error_codemE_EENS0_23reactive_socket_recv_opINS_17mutable_buffers_1ESO_NS0_18io_object_executorIS6_EEEEE8allocateEm
FN:82,_ZN4asio6detail14hook_allocatorINS0_17read_dynbuf_v1_opINS_19basic_stream_socketINS_2ip3tcpENS_8executorEEENS_19basic_streambuf_refISaIcEEENS0_18transfer_exactly_tEZZN9SimpleWeb16SocketClientBaseIS7_E12read_messageERKSt10shared_ptrINSE_10ConnectionEEmENKUlRKSt10error_codemE_clESM_mEUlSM_mE_EENS0_23reactive_socket_recv_opINS_17mutable_buffers_1ESP_NS0_18io_object_executorIS6_EEEEE8allocateEm
FN:82,_ZN4asio6detail14hook_allocatorINS0_8write_opINS_19basic_stream_socketINS_2ip3tcpENS_8executorEEENS_15const_buffers_1EPKNS_12const_bufferENS0_14transfer_all_tENS0_18write_dynbuf_v1_opIS7_NS_19basic_streambuf_refISaIcEEESC_ZN9SimpleWeb16SocketClientBaseIS7_E7upgradeERKSt10shared_ptrINSJ_10ConnectionEEEUlRKSt10error_codemE_EEEENS0_23reactive_socket_send_opIS8_SU_NS0_18io_object_executorIS6_EEEEE8allocateEm
FN:82,_ZN4asio6detail14hook_allocatorIZN9SimpleWeb12SocketClientINS_19basic_stream_socketINS_2ip3tcpENS_8executorEEEE7connectEvEUlRKSt10error_codeNS5_22basic_resolver_resultsIS6_EEE_NS0_16resolve_query_opIS6_SF_NS0_18io_object_executorIS7_EEEEE8allocateEm
FN:82,_ZN4asio6detail14hook_allocatorINS0_8write_opINS_19basic_stream_socketINS_2ip3tcpENS_8executorEEENS_15const_buffers_1EPKNS_12const_bufferENS0_14transfer_all_tENS0_18write_dynbuf_v1_opIS7_NS_19basic_streambuf_refISaIcEEESC_ZN9SimpleWeb16SocketClientBaseIS7_E10Connection15send_from_queueEvEUlRKSt10error_codemE_EEEENS0_23reactive_socket_send_opIS8_SQ_NS0_18io_object_executorIS6_EEEEE8allocateEm
FN:82,_ZN4asio6detail14hook_allocatorINS0_17read_dynbuf_v1_opINS_19basic_stream_socketINS_2ip3tcpENS_8executorEEENS_19basic_streambuf_refISaIcEEENS0_18transfer_exactly_tEZN9SimpleWeb16SocketClientBaseIS7_E12read_messageERKSt10shared_ptrINSE_10ConnectionEEmEUlRKSt10error_codemE_EENS0_23reactive_socket_recv_opINS_17mutable_buffers_1ESO_NS0_18io_object_executorIS6_EEEEE8allocateEm
FN:88,_ZN4asio6detail14hook_allocatorINS0_17read_dynbuf_v1_opINS_19basic_stream_socketINS_2ip3tcpENS_8executorEEENS_19basic_streambuf_refISaIcEEENS0_18transfer_exactly_tEZZN9SimpleWeb16SocketClientBaseIS7_E12read_messageERKSt10shared_ptrINSE_10ConnectionEEmENKUlRKSt10error_codemE_clESM_mEUlSM_mE_EENS0_23reactive_socket_recv_opINS_17mutable_buffers_1ESP_NS0_18io_object_executorIS6_EEEEE10deallocateEPSU_m
FN:88,_ZN4asio6detail14hook_allocatorINS0_8write_opINS_19basic_stream_socketINS_2ip3tcpENS_8executorEEENS_15const_buffers_1EPKNS_12const_bufferENS0_14transfer_all_tENS0_18write_dynbuf_v1_opIS7_NS_19basic_streambuf_refISaIcEEESC_ZN9SimpleWeb16SocketClientBaseIS7_E10Connection15send_from_queueEvEUlRKSt10error_codemE_EEEENS0_23reactive_socket_send_opIS8_SQ_NS0_18io_object_executorIS6_EEEEE10deallocateEPSU_m
FN:88,_ZN4asio6detail14hook_allocatorINS0_29read_until_delim_string_op_v1INS_19basic_stream_socketINS_2ip3tcpENS_8executorEEENS_19basic_streambuf_refISaIcEEEZZN9SimpleWeb16SocketClientBaseIS7_E7upgradeERKSt10shared_ptrINSD_10ConnectionEEENKUlRKSt10error_codemE_clESL_mEUlSL_mE_EENS0_23reactive_socket_recv_opINS_17mutable_buffers_1ESO_NS0_18io_object_executorIS6_EEEEE10deallocateEPST_m
FN:88,_ZN4asio6detail14hook_allocatorINS0_17read_dynbuf_v1_opINS_19basic_stream_socketINS_2ip3tcpENS_8executorEEENS_19basic_streambuf_refISaIcEEENS0_18transfer_exactly_tEZN9SimpleWeb16SocketClientBaseIS7_E12read_messageERKSt10shared_ptrINSE_10ConnectionEEmEUlRKSt10error_codemE_EENS0_23reactive_socket_recv_opINS_17mutable_buffers_1ESO_NS0_18io_object_executorIS6_EEEEE10deallocateEPST_m
FN:88,_ZN4asio6detail14hook_allocatorIZN9SimpleWeb12SocketClientINS_19basic_stream_socketINS_2ip3tcpENS_8executorEEEE7connectEvEUlRKSt10error_codeNS5_22basic_resolver_resultsIS6_EEE_NS0_16resolve_query_opIS6_SF_NS0_18io_object_executorIS7_EEEEE10deallocateEPSJ_m
FN:88,_ZN4asio6detail14hook_allocatorINS0_17read_dynbuf_v1_opINS_19basic_stream_socketINS_2ip3tcpENS_8executorEEENS_19basic_streambuf_refISaIcEEENS0_18transfer_exactly_tEZZN9SimpleWeb16SocketClientBaseIS7_E12read_messageERKSt10shared_ptrINSE_10ConnectionEEmENKUlRKSt10error_codemE_clESM_mEUlSM_mE0_EENS0_23reactive_socket_recv_opINS_17mutable_buffers_1ESP_NS0_18io_object_executorIS6_EEEEE10deallocateEPSU_m
FN:88,_ZN4asio6detail14hook_allocatorINS0_8write_opINS_19basic_stream_socketINS_2ip3tcpENS_8executorEEENS_15const_buffers_1EPKNS_12const_bufferENS0_14transfer_all_tENS0_18write_dynbuf_v1_opIS7_NS_19basic_streambuf_refISaIcEEESC_ZN9SimpleWeb16SocketClientBaseIS7_E7upgradeERKSt10shared_ptrINSJ_10ConnectionEEEUlRKSt10error_codemE_EEEENS0_23reactive_socket_send_opIS8_SU_NS0_18io_object_executorIS6_EEEEE10deallocateEPSY_m
FN:88,_ZN4asio6detail14hook_allocatorINS0_17read_dynbuf_v1_opINS_19basic_stream_socketINS_2ip3tcpENS_8executorEEENS_19basic_streambuf_refISaIcEEENS0_18transfer_exactly_tEZN9SimpleWeb16SocketClientBaseIS7_E20read_message_contentERKSt10shared_ptrINSE_10ConnectionEEmEUlRKSt10error_codemE_EENS0_23reactive_socket_recv_opINS_17mutable_buffers_1ESO_NS0_18io_object_executorIS6_EEEEE10deallocateEPST_m
FN:88,_ZN4asio6detail14hook_allocatorIZN9SimpleWeb16SocketClientBaseINS_19basic_stream_socketINS_2ip3tcpENS_8executorEEEE10Connection11set_timeoutElEUlRKSt10error_codeE_NS0_12wait_handlerISE_NS0_18io_object_executorIS7_EEEEE10deallocateEPSI_m
FN:88,_ZN4asio6detail14hook_allocatorINS0_16range_connect_opINS_2ip3tcpENS_8executorENS3_22basic_resolver_resultsIS4_EENS0_25default_connect_conditionEZZN9SimpleWeb12SocketClientINS_19basic_stream_socketIS4_S5_EEE7connectEvENKUlRKSt10error_codeS7_E_clESG_S7_EUlSG_NS3_14basic_endpointIS4_EEE_EENS0_26reactive_socket_connect_opISL_NS0_18io_object_executorIS5_EEEEE10deallocateEPSP_m
FN:109,_ZN4asio6detail14hook_allocatorINS0_29read_until_delim_string_op_v1INS_19basic_stream_socketINS_2ip3tcpENS_8executorEEENS_19basic_streambuf_refISaIcEEEZZN9SimpleWeb16SocketClientBaseIS7_E7upgradeERKSt10shared_ptrINSD_10ConnectionEEENKUlRKSt10error_codemE_clESL_mEUlSL_mE_EEvEC2ERSO_
FN:109,_ZN4asio6detail14hook_allocatorINS0_8write_opINS_19basic_stream_socketINS_2ip3tcpENS_8executorEEENS_15const_buffers_1EPKNS_12const_bufferENS0_14transfer_all_tENS0_18write_dynbuf_v1_opIS7_NS_19basic_streambuf_refISaIcEEESC_ZN9SimpleWeb16SocketClientBaseIS7_E10Connection15send_from_queueEvEUlRKSt10error_codemE_EEEEvEC2ERSQ_
FN:109,_ZN4asio6detail14hook_allocatorIZN9SimpleWeb12SocketClientINS_19basic_stream_socketINS_2ip3tcpENS_8executorEEEE7connectEvEUlRKSt10error_codeNS5_22basic_resolver_resultsIS6_EEE_vEC2ERSF_
FN:109,_ZN4asio6detail14hook_allocatorIZN9SimpleWeb16SocketClientBaseINS_19basic_stream_socketINS_2ip3tcpENS_8executorEEEE10Connection11set_timeoutElEUlRKSt10error_codeE_vEC2ERSE_
FN:109,_ZN4asio6detail14hook_allocatorINS0_16range_connect_opINS_2ip3tcpENS_8executorENS3_22basic_resolver_resultsIS4_EENS0_25default_connect_conditionEZZN9SimpleWeb12SocketClientINS_19basic_stream_socketIS4_S5_EEE7connectEvENKUlRKSt10error_codeS7_E_clESG_S7_EUlSG_NS3_14basic_endpointIS4_EEE_EEvEC2ERSL_
FN:109,_ZN4asio6detail14hook_allocatorINS0_17read_dynbuf_v1_opINS_19basic_stream_socketINS_2ip3tcpENS_8executorEEENS_19basic_streambuf_refISaIcEEENS0_18transfer_exactly_tEZZN9SimpleWeb16SocketClientBaseIS7_E12read_messageERKSt10shared_ptrINSE_10ConnectionEEmENKUlRKSt10error_codemE_clESM_mEUlSM_mE0_EEvEC2ERSP_
FN:109,_ZN4asio6detail14hook_allocatorINS0_8write_opINS_19basic_stream_socketINS_2ip3tcpENS_8executorEEENS_15const_buffers_1EPKNS_12const_bufferENS0_14transfer_all_tENS0_18write_dynbuf_v1_opIS7_NS_19basic_streambuf_refISaIcEEESC_ZN9SimpleWeb16SocketClientBaseIS7_E7upgradeERKSt10shared_ptrINSJ_10ConnectionEEEUlRKSt10error_codemE_EEEEvEC2ERSU_
FN:109,_ZN4asio6detail14hook_allocatorINS0_17read_dynbuf_v1_opINS_19basic_stream_socketINS_2ip3tcpENS_8executorEEENS_19basic_streambuf_refISaIcEEENS0_18transfer_exactly_tEZN9SimpleWeb16SocketClientBaseIS7_E20read_message_contentERKSt10shared_ptrINSE_10ConnectionEEmEUlRKSt10error_codemE_EEvEC2ERSO_
FN:109,_ZN4asio6detail14hook_allocatorINS0_17read_dynbuf_v1_opINS_19basic_stream_socketINS_2ip3tcpENS_8executorEEENS_19basic_streambuf_refISaIcEEENS0_18transfer_exactly_tEZN9SimpleWeb16SocketClientBaseIS7_E12read_messageERKSt10shared_ptrINSE_10ConnectionEEmEUlRKSt10error_codemE_EEvEC2ERSO_
FN:109,_ZN4asio6detail14hook_allocatorINS0_17read_dynbuf_v1_opINS_19basic_stream_socketINS_2ip3tcpENS_8executorEEENS_19basic_streambuf_refISaIcEEENS0_18transfer_exactly_tEZZN9SimpleWeb16SocketClientBaseIS7_E12read_messageERKSt10shared_ptrINSE_10ConnectionEEmENKUlRKSt10error_codemE_clESM_mEUlSM_mE_EEvEC2ERSP_
FN:140,_ZN4asio6detail18get_hook_allocatorINS0_29read_until_delim_string_op_v1INS_19basic_stream_socketINS_2ip3tcpENS_8executorEEENS_19basic_streambuf_refISaIcEEEZZN9SimpleWeb16SocketClientBaseIS7_E7upgradeERKSt10shared_ptrINSD_10ConnectionEEENKUlRKSt10error_codemE_clESL_mEUlSL_mE_EESaIvEE3getERSO_RKSP_
FN:140,_ZN4asio6detail18get_hook_allocatorIZN9SimpleWeb12SocketClientINS_19basic_stream_socketINS_2ip3tcpENS_8executorEEEE7connectEvEUlRKSt10error_codeNS5_22basic_resolver_resultsIS6_EEE_SaIvEE3getERSF_RKSG_
FN:140,_ZN4asio6detail18get_hook_allocatorINS0_17read_dynbuf_v1_opINS_19basic_stream_socketINS_2ip3tcpENS_8executorEEENS_19basic_streambuf_refISaIcEEENS0_18transfer_exactly_tEZN9SimpleWeb16SocketClientBaseIS7_E20read_message_contentERKSt10shared_ptrINSE_10ConnectionEEmEUlRKSt10error_codemE_EESaIvEE3getERSO_RKSP_
FN:140,_ZN4asio6detail18get_hook_allocatorINS0_17read_dynbuf_v1_opINS_19basic_stream_socketINS_2ip3tcpENS_8executorEEENS_19basic_streambuf_refISaIcEEENS0_18transfer_exactly_tEZN9SimpleWeb16SocketClientBaseIS7_E12read_messageERKSt10shared_ptrINSE_10ConnectionEEmEUlRKSt10error_codemE_EESaIvEE3getERSO_RKSP_
FN:140,_ZN4asio6detail18get_hook_allocatorINS0_8write_opINS_19basic_stream_socketINS_2ip3tcpENS_8executorEEENS_15const_buffers_1EPKNS_12const_bufferENS0_14transfer_all_tENS0_18write_dynbuf_v1_opIS7_NS_19basic_streambuf_refISaIcEEESC_ZN9SimpleWeb16SocketClientBaseIS7_E7upgradeERKSt10shared_ptrINSJ_10ConnectionEEEUlRKSt10error_codemE_EEEESaIvEE3getERSU_RKSV_
FN:140,_ZN4asio6detail18get_hook_allocatorIZN9SimpleWeb16SocketClientBaseINS_19basic_stream_socketINS_2ip3tcpENS_8executorEEEE10Connection11set_timeoutElEUlRKSt10error_codeE_SaIvEE3getERSE_RKSF_
FN:140,_ZN4asio6detail18get_hook_allocatorINS0_16range_connect_opINS_2ip3tcpENS_8executorENS3_22basic_resolver_resultsIS4_EENS0_25default_connect_conditionEZZN9SimpleWeb12SocketClientINS_19basic_stream_socketIS4_S5_EEE7connectEvENKUlRKSt10error_codeS7_E_clESG_S7_EUlSG_NS3_14basic_endpointIS4_EEE_EESaIvEE3getERSL_RKSM_
FN:140,_ZN4asio6detail18get_hook_allocatorINS0_8write_opINS_19basic_stream_socketINS_2ip3tcpENS_8executorEEENS_15const_buffers_1EPKNS_12const_bufferENS0_14transfer_all_tENS0_18write_dynbuf_v1_opIS7_NS_19basic_streambuf_refISaIcEEESC_ZN9SimpleWeb16SocketClientBaseIS7_E10Connection15send_from_queueEvEUlRKSt10error_codemE_EEEESaIvEE3getERSQ_RKSR_
FN:140,_ZN4asio6detail18get_hook_allocatorINS0_17read_dynbuf_v1_opINS_19basic_stream_socketINS_2ip3tcpENS_8executorEEENS_19basic_streambuf_refISaIcEEENS0_18transfer_exactly_tEZZN9SimpleWeb16SocketClientBaseIS7_E12read_messageERKSt10shared_ptrINSE_10ConnectionEEmENKUlRKSt10error_codemE_clESM_mEUlSM_mE0_EESaIvEE3getERSP_RKSQ_
FN:140,_ZN4asio6detail18get_hook_allocatorINS0_17read_dynbuf_v1_opINS_19basic_stream_socketINS_2ip3tcpENS_8executorEEENS_19basic_streambuf_refISaIcEEENS0_18transfer_exactly_tEZZN9SimpleWeb16SocketClientBaseIS7_E12read_messageERKSt10shared_ptrINSE_10ConnectionEEmENKUlRKSt10error_codemE_clESM_mEUlSM_mE_EESaIvEE3getERSP_RKSQ_
FNDA:0,_ZN26asio_handler_alloc_helpers8allocateIZN9SimpleWeb16SocketClientBaseIN4asio19basic_stream_socketINS3_2ip3tcpENS3_8executorEEEE10Connection15send_from_queueEvEUlRKSt10error_codemE_EEPvmRT_
FNDA:0,_ZN26asio_handler_alloc_helpers8allocateIN4asio6detail18write_dynbuf_v1_opINS1_19basic_stream_socketINS1_2ip3tcpENS1_8executorEEENS1_19basic_streambuf_refISaIcEEENS2_14transfer_all_tEZN9SimpleWeb16SocketClientBaseIS8_E10Connection15send_from_queueEvEUlRKSt10error_codemE_EEEEPvmRT_
FNDA:0,_ZN26asio_handler_alloc_helpers8allocateIZN9SimpleWeb16SocketClientBaseIN4asio19basic_stream_socketINS3_2ip3tcpENS3_8executorEEEE7upgradeERKSt10shared_ptrINS9_10ConnectionEEEUlRKSt10error_codemE_EEPvmRT_
FNDA:0,_ZN26asio_handler_alloc_helpers8allocateIN4asio6detail8write_opINS1_19basic_stream_socketINS1_2ip3tcpENS1_8executorEEENS1_15const_buffers_1EPKNS1_12const_bufferENS2_14transfer_all_tENS2_18write_dynbuf_v1_opIS8_NS1_19basic_streambuf_refISaIcEEESD_ZN9SimpleWeb16SocketClientBaseIS8_E10Connection15send_from_queueEvEUlRKSt10error_codemE_EEEEEEPvmRT_
FNDA:0,_ZN26asio_handler_alloc_helpers8allocateIN4asio6detail18write_dynbuf_v1_opINS1_19basic_stream_socketINS1_2ip3tcpENS1_8executorEEENS1_19basic_streambuf_refISaIcEEENS2_14transfer_all_tEZN9SimpleWeb16SocketClientBaseIS8_E7upgradeERKSt10shared_ptrINSF_10ConnectionEEEUlRKSt10error_codemE_EEEEPvmRT_
FNDA:0,_ZN26asio_handler_alloc_helpers8allocateIN4asio6detail8write_opINS1_19basic_stream_socketINS1_2ip3tcpENS1_8executorEEENS1_15const_buffers_1EPKNS1_12const_bufferENS2_14transfer_all_tENS2_18write_dynbuf_v1_opIS8_NS1_19basic_streambuf_refISaIcEEESD_ZN9SimpleWeb16SocketClientBaseIS8_E7upgradeERKSt10shared_ptrINSK_10ConnectionEEEUlRKSt10error_codemE_EEEEEEPvmRT_
FNDA:0,_ZN26asio_handler_alloc_helpers8allocateIZN9SimpleWeb16SocketClientBaseIN4asio19basic_stream_socketINS3_2ip3tcpENS3_8executorEEEE20read_message_contentERKSt10shared_ptrINS9_10ConnectionEEmEUlRKSt10error_codemE_EEPvmRT_
FNDA:0,_ZN26asio_handler_alloc_helpers8allocateIZN9SimpleWeb16SocketClientBaseIN4asio19basic_stream_socketINS3_2ip3tcpENS3_8executorEEEE12read_messageERKSt10shared_ptrINS9_10ConnectionEEmEUlRKSt10error_codemE_EEPvmRT_
FNDA:0,_ZN26asio_handler_alloc_helpers8allocateIZZN9SimpleWeb16SocketClientBaseIN4asio19basic_stream_socketINS3_2ip3tcpENS3_8executorEEEE12read_messageERKSt10shared_ptrINS9_10ConnectionEEmENKUlRKSt10error_codemE_clESH_mEUlSH_mE0_EEPvmRT_
FNDA:0,_ZN26asio_handler_alloc_helpers8allocateIZZN9SimpleWeb16SocketClientBaseIN4asio19basic_stream_socketINS3_2ip3tcpENS3_8executorEEEE12read_messageERKSt10shared_ptrINS9_10ConnectionEEmENKUlRKSt10error_codemE_clESH_mEUlSH_mE_EEPvmRT_
FNDA:0,_ZN26asio_handler_alloc_helpers8allocateIZZN9SimpleWeb16SocketClientBaseIN4asio19basic_stream_socketINS3_2ip3tcpENS3_8executorEEEE7upgradeERKSt10shared_ptrINS9_10ConnectionEEENKUlRKSt10error_codemE_clESH_mEUlSH_mE_EEPvmRT_
FNDA:0,_ZN26asio_handler_alloc_helpers8allocateIN4asio6detail17read_dynbuf_v1_opINS1_19basic_stream_socketINS1_2ip3tcpENS1_8executorEEENS1_19basic_streambuf_refISaIcEEENS2_18transfer_exactly_tEZN9SimpleWeb16SocketClientBaseIS8_E20read_message_contentERKSt10shared_ptrINSF_10ConnectionEEmEUlRKSt10error_codemE_EEEEPvmRT_
FNDA:0,_ZN26asio_handler_alloc_helpers8allocateIZZN9SimpleWeb12SocketClientIN4asio19basic_stream_socketINS3_2ip3tcpENS3_8executorEEEE7connectEvENKUlRKSt10error_codeNS5_22basic_resolver_resultsIS6_EEE_clESC_SE_EUlSC_NS5_14basic_endpointIS6_EEE_EEPvmRT_
FNDA:0,_ZN26asio_handler_alloc_helpers8allocateIN4asio6detail17read_dynbuf_v1_opINS1_19basic_stream_socketINS1_2ip3tcpENS1_8executorEEENS1_19basic_streambuf_refISaIcEEENS2_18transfer_exactly_tEZN9SimpleWeb16SocketClientBaseIS8_E12read_messageERKSt10shared_ptrINSF_10ConnectionEEmEUlRKSt10error_codemE_EEEEPvmRT_
FNDA:0,_ZN26asio_handler_alloc_helpers8allocateIN4asio6detail17read_dynbuf_v1_opINS1_19basic_stream_socketINS1_2ip3tcpENS1_8executorEEENS1_19basic_streambuf_refISaIcEEENS2_18transfer_exactly_tEZZN9SimpleWeb16SocketClientBaseIS8_E12read_messageERKSt10shared_ptrINSF_10ConnectionEEmENKUlRKSt10error_codemE_clESN_mEUlSN_mE0_EEEEPvmRT_
FNDA:0,_ZN26asio_handler_alloc_helpers8allocateIN4asio6detail17read_dynbuf_v1_opINS1_19basic_stream_socketINS1_2ip3tcpENS1_8executorEEENS1_19basic_streambuf_refISaIcEEENS2_18transfer_exactly_tEZZN9SimpleWeb16SocketClientBaseIS8_E12read_messageERKSt10shared_ptrINSF_10ConnectionEEmENKUlRKSt10error_codemE_clESN_mEUlSN_mE_EEEEPvmRT_
FNDA:0,_ZN26asio_handler_alloc_helpers8allocateIN4asio6detail29read_until_delim_string_op_v1INS1_19basic_stream_socketINS1_2ip3tcpENS1_8executorEEENS1_19basic_streambuf_refISaIcEEEZZN9SimpleWeb16SocketClientBaseIS8_E7upgradeERKSt10shared_ptrINSE_10ConnectionEEENKUlRKSt10error_codemE_clESM_mEUlSM_mE_EEEEPvmRT_
FNDA:0,_ZN26asio_handler_alloc_helpers8allocateIN4asio6detail16range_connect_opINS1_2ip3tcpENS1_8executorENS4_22basic_resolver_resultsIS5_EENS2_25default_connect_conditionEZZN9SimpleWeb12SocketClientINS1_19basic_stream_socketIS5_S6_EEE7connectEvENKUlRKSt10error_codeS8_E_clESH_S8_EUlSH_NS4_14basic_endpointIS5_EEE_EEEEPvmRT_
FNDA:0,_ZN26asio_handler_alloc_helpers8allocateIZN9SimpleWeb12SocketClientIN4asio19basic_stream_socketINS3_2ip3tcpENS3_8executorEEEE7connectEvEUlRKSt10error_codeNS5_22basic_resolver_resultsIS6_EEE_EEPvmRT_
FNDA:0,_ZN26asio_handler_alloc_helpers8allocateIZN9SimpleWeb16SocketClientBaseIN4asio19basic_stream_socketINS3_2ip3tcpENS3_8executorEEEE10Connection11set_timeoutElEUlRKSt10error_codeE_EEPvmRT_
FNDA:0,_ZN26asio_handler_alloc_helpers10deallocateIZN9SimpleWeb16SocketClientBaseIN4asio19basic_stream_socketINS3_2ip3tcpENS3_8executorEEEE10Connection15send_from_queueEvEUlRKSt10error_codemE_EEvPvmRT_
FNDA:0,_ZN26asio_handler_alloc_helpers10deallocateIN4asio6detail18write_dynbuf_v1_opINS1_19basic_stream_socketINS1_2ip3tcpENS1_8executorEEENS1_19basic_streambuf_refISaIcEEENS2_14transfer_all_tEZN9SimpleWeb16SocketClientBaseIS8_E10Connection15send_from_queueEvEUlRKSt10error_codemE_EEEEvPvmRT_
FNDA:0,_ZN26asio_handler_alloc_helpers10deallocateIZN9SimpleWeb16SocketClientBaseIN4asio19basic_stream_socketINS3_2ip3tcpENS3_8executorEEEE7upgradeERKSt10shared_ptrINS9_10ConnectionEEEUlRKSt10error_codemE_EEvPvmRT_
FNDA:0,_ZN26asio_handler_alloc_helpers10deallocateIN4asio6detail8write_opINS1_19basic_stream_socketINS1_2ip3tcpENS1_8executorEEENS1_15const_buffers_1EPKNS1_12const_bufferENS2_14transfer_all_tENS2_18write_dynbuf_v1_opIS8_NS1_19basic_streambuf_refISaIcEEESD_ZN9SimpleWeb16SocketClientBaseIS8_E10Connection15send_from_queueEvEUlRKSt10error_codemE_EEEEEEvPvmRT_
FNDA:0,_ZN26asio_handler_alloc_helpers10deallocateIN4asio6detail18write_dynbuf_v1_opINS1_19basic_stream_socketINS1_2ip3tcpENS1_8executorEEENS1_19basic_streambuf_refISaIcEEENS2_14transfer_all_tEZN9SimpleWeb16SocketClientBaseIS8_E7upgradeERKSt10shared_ptrINSF_10ConnectionEEEUlRKSt10error_codemE_EEEEvPvmRT_
FNDA:0,_ZN26asio_handler_alloc_helpers10deallocateIN4asio6detail8write_opINS1_19basic_stream_socketINS1_2ip3tcpENS1_8executorEEENS1_15const_buffers_1EPKNS1_12const_bufferENS2_14transfer_all_tENS2_18write_dynbuf_v1_opIS8_NS1_19basic_streambuf_refISaIcEEESD_ZN9SimpleWeb16SocketClientBaseIS8_E7upgradeERKSt10shared_ptrINSK_10ConnectionEEEUlRKSt10error_codemE_EEEEEEvPvmRT_
FNDA:0,_ZN26asio_handler_alloc_helpers10deallocateIZN9SimpleWeb16SocketClientBaseIN4asio19basic_stream_socketINS3_2ip3tcpENS3_8executorEEEE20read_message_contentERKSt10shared_ptrINS9_10ConnectionEEmEUlRKSt10error_codemE_EEvPvmRT_
FNDA:0,_ZN26asio_handler_alloc_helpers10deallocateIZN9SimpleWeb16SocketClientBaseIN4asio19basic_stream_socketINS3_2ip3tcpENS3_8executorEEEE12read_messageERKSt10shared_ptrINS9_10ConnectionEEmEUlRKSt10error_codemE_EEvPvmRT_
FNDA:0,_ZN26asio_handler_alloc_helpers10deallocateIZZN9SimpleWeb16SocketClientBaseIN4asio19basic_stream_socketINS3_2ip3tcpENS3_8executorEEEE12read_messageERKSt10shared_ptrINS9_10ConnectionEEmENKUlRKSt10error_codemE_clESH_mEUlSH_mE0_EEvPvmRT_
FNDA:0,_ZN26asio_handler_alloc_helpers10deallocateIZZN9SimpleWeb16SocketClientBaseIN4asio19basic_stream_socketINS3_2ip3tcpENS3_8executorEEEE12read_messageERKSt10shared_ptrINS9_10ConnectionEEmENKUlRKSt10error_codemE_clESH_mEUlSH_mE_EEvPvmRT_
FNDA:0,_ZN26asio_handler_alloc_helpers10deallocateIZZN9SimpleWeb16SocketClientBaseIN4asio19basic_stream_socketINS3_2ip3tcpENS3_8executorEEEE7upgradeERKSt10shared_ptrINS9_10ConnectionEEENKUlRKSt10error_codemE_clESH_mEUlSH_mE_EEvPvmRT_
FNDA:0,_ZN26asio_handler_alloc_helpers10deallocateIN4asio6detail17read_dynbuf_v1_opINS1_19basic_stream_socketINS1_2ip3tcpENS1_8executorEEENS1_19basic_streambuf_refISaIcEEENS2_18transfer_exactly_tEZN9SimpleWeb16SocketClientBaseIS8_E20read_message_contentERKSt10shared_ptrINSF_10ConnectionEEmEUlRKSt10error_codemE_EEEEvPvmRT_
FNDA:0,_ZN26asio_handler_alloc_helpers10deallocateIZZN9SimpleWeb12SocketClientIN4asio19basic_stream_socketINS3_2ip3tcpENS3_8executorEEEE7connectEvENKUlRKSt10error_codeNS5_22basic_resolver_resultsIS6_EEE_clESC_SE_EUlSC_NS5_14basic_endpointIS6_EEE_EEvPvmRT_
FNDA:0,_ZN26asio_handler_alloc_helpers10deallocateIN4asio6detail17read_dynbuf_v1_opINS1_19basic_stream_socketINS1_2ip3tcpENS1_8executorEEENS1_19basic_streambuf_refISaIcEEENS2_18transfer_exactly_tEZN9SimpleWeb16SocketClientBaseIS8_E12read_messageERKSt10shared_ptrINSF_10ConnectionEEmEUlRKSt10error_codemE_EEEEvPvmRT_
FNDA:0,_ZN26asio_handler_alloc_helpers10deallocateIN4asio6detail17read_dynbuf_v1_opINS1_19basic_stream_socketINS1_2ip3tcpENS1_8executorEEENS1_19basic_streambuf_refISaIcEEENS2_18transfer_exactly_tEZZN9SimpleWeb16SocketClientBaseIS8_E12read_messageERKSt10shared_ptrINSF_10ConnectionEEmENKUlRKSt10error_codemE_clESN_mEUlSN_mE0_EEEEvPvmRT_
FNDA:0,_ZN26asio_handler_alloc_helpers10deallocateIN4asio6detail17read_dynbuf_v1_opINS1_19basic_stream_socketINS1_2ip3tcpENS1_8executorEEENS1_19basic_streambuf_refISaIcEEENS2_18transfer_exactly_tEZZN9SimpleWeb16SocketClientBaseIS8_E12read_messageERKSt10shared_ptrINSF_10ConnectionEEmENKUlRKSt10error_codemE_clESN_mEUlSN_mE_EEEEvPvmRT_
FNDA:0,_ZN26asio_handler_alloc_helpers10deallocateIN4asio6detail29read_until_delim_string_op_v1INS1_19basic_stream_socketINS1_2ip3tcpENS1_8executorEEENS1_19basic_streambuf_refISaIcEEEZZN9SimpleWeb16SocketClientBaseIS8_E7upgradeERKSt10shared_ptrINSE_10ConnectionEEENKUlRKSt10error_codemE_clESM_mEUlSM_mE_EEEEvPvmRT_
FNDA:0,_ZN26asio_handler_alloc_helpers10deallocateIN4asio6detail16range_connect_opINS1_2ip3tcpENS1_8executorENS4_22basic_resolver_resultsIS5_EENS2_25default_connect_conditionEZZN9SimpleWeb12SocketClientINS1_19basic_stream_socketIS5_S6_EEE7connectEvENKUlRKSt10error_codeS8_E_clESH_S8_EUlSH_NS4_14basic_endpointIS5_EEE_EEEEvPvmRT_
FNDA:0,_ZN26asio_handler_alloc_helpers10deallocateIZN9SimpleWeb12SocketClientIN4asio19basic_stream_socketINS3_2ip3tcpENS3_8executorEEEE7connectEvEUlRKSt10error_codeNS5_22basic_resolver_resultsIS6_EEE_EEvPvmRT_
FNDA:0,_ZN26asio_handler_alloc_helpers10deallocateIZN9SimpleWeb16SocketClientBaseIN4asio19basic_stream_socketINS3_2ip3tcpENS3_8executorEEEE10Connection11set_timeoutElEUlRKSt10error_codeE_EEvPvmRT_
FNDA:0,_ZN4asio6detail14hook_allocatorINS0_8write_opINS_19basic_stream_socketINS_2ip3tcpENS_8executorEEENS_15const_buffers_1EPKNS_12const_bufferENS0_14transfer_all_tENS0_18write_dynbuf_v1_opIS7_NS_19basic_streambuf_refISaIcEEESC_ZN9SimpleWeb16SocketClientBaseIS7_E10Connection15send_from_queueEvEUlRKSt10error_codemE_EEEENS0_23reactive_socket_send_opIS8_SQ_NS0_18io_object_executorIS6_EEEEEC2IvEERKNS1_ISQ_T_EE
FNDA:0,_ZN4asio6detail14hook_allocatorINS0_8write_opINS_19basic_stream_socketINS_2ip3tcpENS_8executorEEENS_15const_buffers_1EPKNS_12const_bufferENS0_14transfer_all_tENS0_18write_dynbuf_v1_opIS7_NS_19basic_streambuf_refISaIcEEESC_ZN9SimpleWeb16SocketClientBaseIS7_E7upgradeERKSt10shared_ptrINSJ_10ConnectionEEEUlRKSt10error_codemE_EEEENS0_23reactive_socket_send_opIS8_SU_NS0_18io_object_executorIS6_EEEEEC2IvEERKNS1_ISU_T_EE
FNDA:0,_ZN4asio6detail14hook_allocatorINS0_17read_dynbuf_v1_opINS_19basic_stream_socketINS_2ip3tcpENS_8executorEEENS_19basic_streambuf_refISaIcEEENS0_18transfer_exactly_tEZN9SimpleWeb16SocketClientBaseIS7_E20read_message_contentERKSt10shared_ptrINSE_10ConnectionEEmEUlRKSt10error_codemE_EENS0_23reactive_socket_recv_opINS_17mutable_buffers_1ESO_NS0_18io_object_executorIS6_EEEEEC2IvEERKNS1_ISO_T_EE
FNDA:0,_ZN4asio6detail14hook_allocatorINS0_17read_dynbuf_v1_opINS_19basic_stream_socketINS_2ip3tcpENS_8executorEEENS_19basic_streambuf_refISaIcEEENS0_18transfer_exactly_tEZN9SimpleWeb16SocketClientBaseIS7_E12read_messageERKSt10shared_ptrINSE_10ConnectionEEmEUlRKSt10error_codemE_EENS0_23reactive_socket_recv_opINS_17mutable_buffers_1ESO_NS0_18io_object_executorIS6_EEEEEC2IvEERKNS1_ISO_T_EE
FNDA:0,_ZN4asio6detail14hook_allocatorINS0_17read_dynbuf_v1_opINS_19basic_stream_socketINS_2ip3tcpENS_8executorEEENS_19basic_streambuf_refISaIcEEENS0_18transfer_exactly_tEZZN9SimpleWeb16SocketClientBaseIS7_E12read_messageERKSt10shared_ptrINSE_10ConnectionEEmENKUlRKSt10error_codemE_clESM_mEUlSM_mE0_EENS0_23reactive_socket_recv_opINS_17mutable_buffers_1ESP_NS0_18io_object_executorIS6_EEEEEC2IvEERKNS1_ISP_T_EE
FNDA:0,_ZN4asio6detail14hook_allocatorINS0_17read_dynbuf_v1_opINS_19basic_stream_socketINS_2ip3tcpENS_8executorEEENS_19basic_streambuf_refISaIcEEENS0_18transfer_exactly_tEZZN9SimpleWeb16SocketClientBaseIS7_E12read_messageERKSt10shared_ptrINSE_10ConnectionEEmENKUlRKSt10error_codemE_clESM_mEUlSM_mE_EENS0_23reactive_socket_recv_opINS_17mutable_buffers_1ESP_NS0_18io_object_executorIS6_EEEEEC2IvEERKNS1_ISP_T_EE
FNDA:0,_ZN4asio6detail14hook_allocatorINS0_29read_until_delim_string_op_v1INS_19basic_stream_socketINS_2ip3tcpENS_8executorEEENS_19basic_streambuf_refISaIcEEEZZN9SimpleWeb16SocketClientBaseIS7_E7upgradeERKSt10shared_ptrINSD_10ConnectionEEENKUlRKSt10error_codemE_clESL_mEUlSL_mE_EENS0_23reactive_socket_recv_opINS_17mutable_buffers_1ESO_NS0_18io_object_executorIS6_EEEEEC2IvEERKNS1_ISO_T_EE
FNDA:0,_ZN4asio6detail14hook_allocatorINS0_16range_connect_opINS_2ip3tcpENS_8executorENS3_22basic_resolver_resultsIS4_EENS0_25default_connect_conditionEZZN9SimpleWeb12SocketClientINS_19basic_stream_socketIS4_S5_EEE7connectEvENKUlRKSt10error_codeS7_E_clESG_S7_EUlSG_NS3_14basic_endpointIS4_EEE_EENS0_26reactive_socket_connect_opISL_NS0_18io_object_executorIS5_EEEEEC2IvEERKNS1_ISL_T_EE
FNDA:0,_ZN4asio6detail14hook_allocatorIZN9SimpleWeb12SocketClientINS_19basic_stream_socketINS_2ip3tcpENS_8executorEEEE7connectEvEUlRKSt10error_codeNS5_22basic_resolver_resultsIS6_EEE_NS0_16resolve_query_opIS6_SF_NS0_18io_object_executorIS7_EEEEEC2IvEERKNS1_ISF_T_EE
FNDA:0,_ZN4asio6detail14hook_allocatorIZN9SimpleWeb16SocketClientBaseINS_19basic_stream_socketINS_2ip3tcpENS_8executorEEEE10Connection11set_timeoutElEUlRKSt10error_codeE_NS0_12wait_handlerISE_NS0_18io_object_executorIS7_EEEEEC2IvEERKNS1_ISE_T_EE
FNDA:0,_ZN4asio6detail14hook_allocatorINS0_8write_opINS_19basic_stream_socketINS_2ip3tcpENS_8executorEEENS_15const_buffers_1EPKNS_12const_bufferENS0_14transfer_all_tENS0_18write_dynbuf_v1_opIS7_NS_19basic_streambuf_refISaIcEEESC_ZN9SimpleWeb16SocketClientBaseIS7_E10Connection15send_from_queueEvEUlRKSt10error_codemE_EEEENS0_23reactive_socket_send_opIS8_SQ_NS0_18io_object_executorIS6_EEEEE8allocateEm
FNDA:0,_ZN4asio6detail14hook_allocatorINS0_8write_opINS_19basic_stream_socketINS_2ip3tcpENS_8executorEEENS_15const_buffers_1EPKNS_12const_bufferENS0_14transfer_all_tENS0_18write_dynbuf_v1_opIS7_NS_19basic_streambuf_refISaIcEEESC_ZN9SimpleWeb16SocketClientBaseIS7_E7upgradeERKSt10shared_ptrINSJ_10ConnectionEEEUlRKSt10error_codemE_EEEENS0_23reactive_socket_send_opIS8_SU_NS0_18io_object_executorIS6_EEEEE8allocateEm
FNDA:0,_ZN4asio6detail14hook_allocatorINS0_17read_dynbuf_v1_opINS_19basic_stream_socketINS_2ip3tcpENS_8executorEEENS_19basic_streambuf_refISaIcEEENS0_18transfer_exactly_tEZN9SimpleWeb16SocketClientBaseIS7_E20read_message_contentERKSt10shared_ptrINSE_10ConnectionEEmEUlRKSt10error_codemE_EENS0_23reactive_socket_recv_opINS_17mutable_buffers_1ESO_NS0_18io_object_executorIS6_EEEEE8allocateEm
FNDA:0,_ZN4asio6detail14hook_allocatorINS0_17read_dynbuf_v1_opINS_19basic_stream_socketINS_2ip3tcpENS_8executorEEENS_19basic_streambuf_refISaIcEEENS0_18transfer_exactly_tEZN9SimpleWeb16SocketClientBaseIS7_E12read_messageERKSt10shared_ptrINSE_10ConnectionEEmEUlRKSt10error_codemE_EENS0_23reactive_socket_recv_opINS_17mutable_buffers_1ESO_NS0_18io_object_executorIS6_EEEEE8allocateEm
FNDA:0,_ZN4asio6detail14hook_allocatorINS0_17read_dynbuf_v1_opINS_19basic_stream_socketINS_2ip3tcpENS_8executorEEENS_19basic_streambuf_refISaIcEEENS0_18transfer_exactly_tEZZN9SimpleWeb16SocketClientBaseIS7_E12read_messageERKSt10shared_ptrINSE_10ConnectionEEmENKUlRKSt10error_codemE_clESM_mEUlSM_mE0_EENS0_23reactive_socket_recv_opINS_17mutable_buffers_1ESP_NS0_18io_object_executorIS6_EEEEE8allocateEm
FNDA:0,_ZN4asio6detail14hook_allocatorINS0_17read_dynbuf_v1_opINS_19basic_stream_socketINS_2ip3tcpENS_8executorEEENS_19basic_streambuf_refISaIcEEENS0_18transfer_exactly_tEZZN9SimpleWeb16SocketClientBaseIS7_E12read_messageERKSt10shared_ptrINSE_10ConnectionEEmENKUlRKSt10error_codemE_clESM_mEUlSM_mE_EENS0_23reactive_socket_recv_opINS_17mutable_buffers_1ESP_NS0_18io_object_executorIS6_EEEEE8allocateEm
FNDA:0,_ZN4asio6detail14hook_allocatorINS0_29read_until_delim_string_op_v1INS_19basic_stream_socketINS_2ip3tcpENS_8executorEEENS_19basic_streambuf_refISaIcEEEZZN9SimpleWeb16SocketClientBaseIS7_E7upgradeERKSt10shared_ptrINSD_10ConnectionEEENKUlRKSt10error_codemE_clESL_mEUlSL_mE_EENS0_23reactive_socket_recv_opINS_17mutable_buffers_1ESO_NS0_18io_object_executorIS6_EEEEE8allocateEm
FNDA:0,_ZN4asio6detail14hook_allocatorINS0_16range_connect_opINS_2ip3tcpENS_8executorENS3_22basic_resolver_resultsIS4_EENS0_25default_connect_conditionEZZN9SimpleWeb12SocketClientINS_19basic_stream_socketIS4_S5_EEE7connectEvENKUlRKSt10error_codeS7_E_clESG_S7_EUlSG_NS3_14basic_endpointIS4_EEE_EENS0_26reactive_socket_connect_opISL_NS0_18io_object_executorIS5_EEEEE8allocateEm
FNDA:0,_ZN4asio6detail14hook_allocatorIZN9SimpleWeb12SocketClientINS_19basic_stream_socketINS_2ip3tcpENS_8executorEEEE7connectEvEUlRKSt10error_codeNS5_22basic_resolver_resultsIS6_EEE_NS0_16resolve_query_opIS6_SF_NS0_18io_object_executorIS7_EEEEE8allocateEm
FNDA:0,_ZN4asio6detail14hook_allocatorIZN9SimpleWeb16SocketClientBaseINS_19basic_stream_socketINS_2ip3tcpENS_8executorEEEE10Connection11set_timeoutElEUlRKSt10error_codeE_NS0_12wait_handlerISE_NS0_18io_object_executorIS7_EEEEE8allocateEm
FNDA:0,_ZN4asio6detail14hook_allocatorINS0_8write_opINS_19basic_stream_socketINS_2ip3tcpENS_8executorEEENS_15const_buffers_1EPKNS_12const_bufferENS0_14transfer_all_tENS0_18write_dynbuf_v1_opIS7_NS_19basic_streambuf_refISaIcEEESC_ZN9SimpleWeb16SocketClientBaseIS7_E10Connection15send_from_queueEvEUlRKSt10error_codemE_EEEENS0_23reactive_socket_send_opIS8_SQ_NS0_18io_object_executorIS6_EEEEE10deallocateEPSU_m
FNDA:0,_ZN4asio6detail14hook_allocatorINS0_8write_opINS_19basic_stream_socketINS_2ip3tcpENS_8executorEEENS_15const_buffers_1EPKNS_12const_bufferENS0_14transfer_all_tENS0_18write_dynbuf_v1_opIS7_NS_19basic_streambuf_refISaIcEEESC_ZN9SimpleWeb16SocketClientBaseIS7_E7upgradeERKSt10shared_ptrINSJ_10ConnectionEEEUlRKSt10error_codemE_EEEENS0_23reactive_socket_send_opIS8_SU_NS0_18io_object_executorIS6_EEEEE10deallocateEPSY_m
FNDA:0,_ZN4asio6detail14hook_allocatorINS0_17read_dynbuf_v1_opINS_19basic_stream_socketINS_2ip3tcpENS_8executorEEENS_19basic_streambuf_refISaIcEEENS0_18transfer_exactly_tEZN9SimpleWeb16SocketClientBaseIS7_E20read_message_contentERKSt10shared_ptrINSE_10ConnectionEEmEUlRKSt10error_codemE_EENS0_23reactive_socket_recv_opINS_17mutable_buffers_1ESO_NS0_18io_object_executorIS6_EEEEE10deallocateEPST_m
FNDA:0,_ZN4asio6detail14hook_allocatorINS0_17read_dynbuf_v1_opINS_19basic_stream_socketINS_2ip3tcpENS_8executorEEENS_19basic_streambuf_refISaIcEEENS0_18transfer_exactly_tEZN9SimpleWeb16SocketClientBaseIS7_E12read_messageERKSt10shared_ptrINSE_10ConnectionEEmEUlRKSt10error_codemE_EENS0_23reactive_socket_recv_opINS_17mutable_buffers_1ESO_NS0_18io_object_executorIS6_EEEEE10deallocateEPST_m
FNDA:0,_ZN4asio6detail14hook_allocatorINS0_17read_dynbuf_v1_opINS_19basic_stream_socketINS_2ip3tcpENS_8executorEEENS_19basic_streambuf_refISaIcEEENS0_18transfer_exactly_tEZZN9SimpleWeb16SocketClientBaseIS7_E12read_messageERKSt10shared_ptrINSE_10ConnectionEEmENKUlRKSt10error_codemE_clESM_mEUlSM_mE0_EENS0_23reactive_socket_recv_opINS_17mutable_buffers_1ESP_NS0_18io_object_executorIS6_EEEEE10deallocateEPSU_m
FNDA:0,_ZN4asio6detail14hook_allocatorINS0_17read_dynbuf_v1_opINS_19basic_stream_socketINS_2ip3tcpENS_8executorEEENS_19basic_streambuf_refISaIcEEENS0_18transfer_exactly_tEZZN9SimpleWeb16SocketClientBaseIS7_E12read_messageERKSt10shared_ptrINSE_10ConnectionEEmENKUlRKSt10error_codemE_clESM_mEUlSM_mE_EENS0_23reactive_socket_recv_opINS_17mutable_buffers_1ESP_NS0_18io_object_executorIS6_EEEEE10deallocateEPSU_m
FNDA:0,_ZN4asio6detail14hook_allocatorINS0_29read_until_delim_string_op_v1INS_19basic_stream_socketINS_2ip3tcpENS_8executorEEENS_19basic_streambuf_refISaIcEEEZZN9SimpleWeb16SocketClientBaseIS7_E7upgradeERKSt10shared_ptrINSD_10ConnectionEEENKUlRKSt10error_codemE_clESL_mEUlSL_mE_EENS0_23reactive_socket_recv_opINS_17mutable_buffers_1ESO_NS0_18io_object_executorIS6_EEEEE10deallocateEPST_m
FNDA:0,_ZN4asio6detail14hook_allocatorINS0_16range_connect_opINS_2ip3tcpENS_8executorENS3_22basic_resolver_resultsIS4_EENS0_25default_connect_conditionEZZN9SimpleWeb12SocketClientINS_19basic_stream_socketIS4_S5_EEE7connectEvENKUlRKSt10error_codeS7_E_clESG_S7_EUlSG_NS3_14basic_endpointIS4_EEE_EENS0_26reactive_socket_connect_opISL_NS0_18io_object_executorIS5_EEEEE10deallocateEPSP_m
FNDA:0,_ZN4asio6detail14hook_allocatorIZN9SimpleWeb12SocketClientINS_19basic_stream_socketINS_2ip3tcpENS_8executorEEEE7connectEvEUlRKSt10error_codeNS5_22basic_resolver_resultsIS6_EEE_NS0_16resolve_query_opIS6_SF_NS0_18io_object_executorIS7_EEEEE10deallocateEPSJ_m
FNDA:0,_ZN4asio6detail14hook_allocatorIZN9SimpleWeb16SocketClientBaseINS_19basic_stream_socketINS_2ip3tcpENS_8executorEEEE10Connection11set_timeoutElEUlRKSt10error_codeE_NS0_12wait_handlerISE_NS0_18io_object_executorIS7_EEEEE10deallocateEPSI_m
FNDA:0,_ZN4asio6detail14hook_allocatorINS0_8write_opINS_19basic_stream_socketINS_2ip3tcpENS_8executorEEENS_15const_buffers_1EPKNS_12const_bufferENS0_14transfer_all_tENS0_18write_dynbuf_v1_opIS7_NS_19basic_streambuf_refISaIcEEESC_ZN9SimpleWeb16SocketClientBaseIS7_E10Connection15send_from_queueEvEUlRKSt10error_codemE_EEEEvEC2ERSQ_
FNDA:0,_ZN4asio6detail14hook_allocatorINS0_8write_opINS_19basic_stream_socketINS_2ip3tcpENS_8executorEEENS_15const_buffers_1EPKNS_12const_bufferENS0_14transfer_all_tENS0_18write_dynbuf_v1_opIS7_NS_19basic_streambuf_refISaIcEEESC_ZN9SimpleWeb16SocketClientBaseIS7_E7upgradeERKSt10shared_ptrINSJ_10ConnectionEEEUlRKSt10error_codemE_EEEEvEC2ERSU_
FNDA:0,_ZN4asio6detail14hook_allocatorINS0_17read_dynbuf_v1_opINS_19basic_stream_socketINS_2ip3tcpENS_8executorEEENS_19basic_streambuf_refISaIcEEENS0_18transfer_exactly_tEZN9SimpleWeb16SocketClientBaseIS7_E20read_message_contentERKSt10shared_ptrINSE_10ConnectionEEmEUlRKSt10error_codemE_EEvEC2ERSO_
FNDA:0,_ZN4asio6detail14hook_allocatorINS0_17read_dynbuf_v1_opINS_19basic_stream_socketINS_2ip3tcpENS_8executorEEENS_19basic_streambuf_refISaIcEEENS0_18transfer_exactly_tEZN9SimpleWeb16SocketClientBaseIS7_E12read_messageERKSt10shared_ptrINSE_10ConnectionEEmEUlRKSt10error_codemE_EEvEC2ERSO_
FNDA:0,_ZN4asio6detail14hook_allocatorINS0_17read_dynbuf_v1_opINS_19basic_stream_socketINS_2ip3tcpENS_8executorEEENS_19basic_streambuf_refISaIcEEENS0_18transfer_exactly_tEZZN9SimpleWeb16SocketClientBaseIS7_E12read_messageERKSt10shared_ptrINSE_10ConnectionEEmENKUlRKSt10error_codemE_clESM_mEUlSM_mE0_EEvEC2ERSP_
FNDA:0,_ZN4asio6detail14hook_allocatorINS0_17read_dynbuf_v1_opINS_19basic_stream_socketINS_2ip3tcpENS_8executorEEENS_19basic_streambuf_refISaIcEEENS0_18transfer_exactly_tEZZN9SimpleWeb16SocketClientBaseIS7_E12read_messageERKSt10shared_ptrINSE_10ConnectionEEmENKUlRKSt10error_codemE_clESM_mEUlSM_mE_EEvEC2ERSP_
FNDA:0,_ZN4asio6detail14hook_allocatorINS0_29read_until_delim_string_op_v1INS_19basic_stream_socketINS_2ip3tcpENS_8executorEEENS_19basic_streambuf_refISaIcEEEZZN9SimpleWeb16SocketClientBaseIS7_E7upgradeERKSt10shared_ptrINSD_10ConnectionEEENKUlRKSt10error_codemE_clESL_mEUlSL_mE_EEvEC2ERSO_
FNDA:0,_ZN4asio6detail14hook_allocatorINS0_16range_connect_opINS_2ip3tcpENS_8executorENS3_22basic_resolver_resultsIS4_EENS0_25default_connect_conditionEZZN9SimpleWeb12SocketClientINS_19basic_stream_socketIS4_S5_EEE7connectEvENKUlRKSt10error_codeS7_E_clESG_S7_EUlSG_NS3_14basic_endpointIS4_EEE_EEvEC2ERSL_
FNDA:0,_ZN4asio6detail14hook_allocatorIZN9SimpleWeb12SocketClientINS_19basic_stream_socketINS_2ip3tcpENS_8executorEEEE7connectEvEUlRKSt10error_codeNS5_22basic_resolver_resultsIS6_EEE_vEC2ERSF_
FNDA:0,_ZN4asio6detail14hook_allocatorIZN9SimpleWeb16SocketClientBaseINS_19basic_stream_socketINS_2ip3tcpENS_8executorEEEE10Connection11set_timeoutElEUlRKSt10error_codeE_vEC2ERSE_
FNDA:0,_ZN4asio6detail18get_hook_allocatorINS0_8write_opINS_19basic_stream_socketINS_2ip3tcpENS_8executorEEENS_15const_buffers_1EPKNS_12const_bufferENS0_14transfer_all_tENS0_18write_dynbuf_v1_opIS7_NS_19basic_streambuf_refISaIcEEESC_ZN9SimpleWeb16SocketClientBaseIS7_E10Connection15send_from_queueEvEUlRKSt10error_codemE_EEEESaIvEE3getERSQ_RKSR_
FNDA:0,_ZN4asio6detail18get_hook_allocatorINS0_8write_opINS_19basic_stream_socketINS_2ip3tcpENS_8executorEEENS_15const_buffers_1EPKNS_12const_bufferENS0_14transfer_all_tENS0_18write_dynbuf_v1_opIS7_NS_19basic_streambuf_refISaIcEEESC_ZN9SimpleWeb16SocketClientBaseIS7_E7upgradeERKSt10shared_ptrINSJ_10ConnectionEEEUlRKSt10error_codemE_EEEESaIvEE3getERSU_RKSV_
FNDA:0,_ZN4asio6detail18get_hook_allocatorINS0_17read_dynbuf_v1_opINS_19basic_stream_socketINS_2ip3tcpENS_8executorEEENS_19basic_streambuf_refISaIcEEENS0_18transfer_exactly_tEZN9SimpleWeb16SocketClientBaseIS7_E20read_message_contentERKSt10shared_ptrINSE_10ConnectionEEmEUlRKSt10error_codemE_EESaIvEE3getERSO_RKSP_
FNDA:0,_ZN4asio6detail18get_hook_allocatorINS0_17read_dynbuf_v1_opINS_19basic_stream_socketINS_2ip3tcpENS_8executorEEENS_19basic_streambuf_refISaIcEEENS0_18transfer_exactly_tEZN9SimpleWeb16SocketClientBaseIS7_E12read_messageERKSt10shared_ptrINSE_10ConnectionEEmEUlRKSt10error_codemE_EESaIvEE3getERSO_RKSP_
FNDA:0,_ZN4asio6detail18get_hook_allocatorINS0_17read_dynbuf_v1_opINS_19basic_stream_socketINS_2ip3tcpENS_8executorEEENS_19basic_streambuf_refISaIcEEENS0_18transfer_exactly_tEZZN9SimpleWeb16SocketClientBaseIS7_E12read_messageERKSt10shared_ptrINSE_10ConnectionEEmENKUlRKSt10error_codemE_clESM_mEUlSM_mE0_EESaIvEE3getERSP_RKSQ_
FNDA:0,_ZN4asio6detail18get_hook_allocatorINS0_17read_dynbuf_v1_opINS_19basic_stream_socketINS_2ip3tcpENS_8executorEEENS_19basic_streambuf_refISaIcEEENS0_18transfer_exactly_tEZZN9SimpleWeb16SocketClientBaseIS7_E12read_messageERKSt10shared_ptrINSE_10ConnectionEEmENKUlRKSt10error_codemE_clESM_mEUlSM_mE_EESaIvEE3getERSP_RKSQ_
FNDA:0,_ZN4asio6detail18get_hook_allocatorINS0_29read_until_delim_string_op_v1INS_19basic_stream_socketINS_2ip3tcpENS_8executorEEENS_19basic_streambuf_refISaIcEEEZZN9SimpleWeb16SocketClientBaseIS7_E7upgradeERKSt10shared_ptrINSD_10ConnectionEEENKUlRKSt10error_codemE_clESL_mEUlSL_mE_EESaIvEE3getERSO_RKSP_
FNDA:0,_ZN4asio6detail18get_hook_allocatorINS0_16range_connect_opINS_2ip3tcpENS_8executorENS3_22basic_resolver_resultsIS4_EENS0_25default_connect_conditionEZZN9SimpleWeb12SocketClientINS_19basic_stream_socketIS4_S5_EEE7connectEvENKUlRKSt10error_codeS7_E_clESG_S7_EUlSG_NS3_14basic_endpointIS4_EEE_EESaIvEE3getERSL_RKSM_
FNDA:0,_ZN4asio6detail18get_hook_allocatorIZN9SimpleWeb12SocketClientINS_19basic_stream_socketINS_2ip3tcpENS_8executorEEEE7connectEvEUlRKSt10error_codeNS5_22basic_resolver_resultsIS6_EEE_SaIvEE3getERSF_RKSG_
FNDA:0,_ZN4asio6detail18get_hook_allocatorIZN9SimpleWeb16SocketClientBaseINS_19basic_stream_socketINS_2ip3tcpENS_8executorEEEE10Connection11set_timeoutElEUlRKSt10error_codeE_SaIvEE3getERSE_RKSF_
FNF:90
FNH:0
DA:33,0
DA:39,0
DA:44,0
DA:50,0
DA:52,0
DA:77,0
DA:78,0
DA:80,0
DA:82,0
DA:85,0
DA:88,0
DA:90,0
DA:91,0
DA:109,0
DA:110,0
DA:112,0
DA:140,0
DA:142,0
LF:18
LH:0
end_of_record
SF:/home/tistrauss/.conan/data/asio/1.13.0/_/_/package/5ab84d6acfe1f23c4fae0ab88f26e3a396351ac9/include/asio/detail/handler_cont_helpers.hpp
FN:30,_ZN25asio_handler_cont_helpers15is_continuationIN4asio6detail18write_dynbuf_v1_opINS1_19basic_stream_socketINS1_2ip3tcpENS1_8executorEEENS1_19basic_streambuf_refISaIcEEENS2_14transfer_all_tEZN9SimpleWeb16SocketClientBaseIS8_E10Connection15send_from_queueEvEUlRKSt10error_codemE_EEEEbRT_
FN:30,_ZN25asio_handler_cont_helpers15is_continuationIZN9SimpleWeb16SocketClientBaseIN4asio19basic_stream_socketINS3_2ip3tcpENS3_8executorEEEE12read_messageERKSt10shared_ptrINS9_10ConnectionEEmEUlRKSt10error_codemE_EEbRT_
FN:30,_ZN25asio_handler_cont_helpers15is_continuationIZN9SimpleWeb16SocketClientBaseIN4asio19basic_stream_socketINS3_2ip3tcpENS3_8executorEEEE20read_message_contentERKSt10shared_ptrINS9_10ConnectionEEmEUlRKSt10error_codemE_EEbRT_
FN:30,_ZN25asio_handler_cont_helpers15is_continuationIN4asio6detail17read_dynbuf_v1_opINS1_19basic_stream_socketINS1_2ip3tcpENS1_8executorEEENS1_19basic_streambuf_refISaIcEEENS2_18transfer_exactly_tEZZN9SimpleWeb16SocketClientBaseIS8_E12read_messageERKSt10shared_ptrINSF_10ConnectionEEmENKUlRKSt10error_codemE_clESN_mEUlSN_mE0_EEEEbRT_
FN:30,_ZN25asio_handler_cont_helpers15is_continuationIN4asio6detail17read_dynbuf_v1_opINS1_19basic_stream_socketINS1_2ip3tcpENS1_8executorEEENS1_19basic_streambuf_refISaIcEEENS2_18transfer_exactly_tEZN9SimpleWeb16SocketClientBaseIS8_E12read_messageERKSt10shared_ptrINSF_10ConnectionEEmEUlRKSt10error_codemE_EEEEbRT_
FN:30,_ZN25asio_handler_cont_helpers15is_continuationIN4asio6detail16range_connect_opINS1_2ip3tcpENS1_8executorENS4_22basic_resolver_resultsIS5_EENS2_25default_connect_conditionEZZN9SimpleWeb12SocketClientINS1_19basic_stream_socketIS5_S6_EEE7connectEvENKUlRKSt10error_codeS8_E_clESH_S8_EUlSH_NS4_14basic_endpointIS5_EEE_EEEEbRT_
FN:30,_ZN25asio_handler_cont_helpers15is_continuationIZZN9SimpleWeb16SocketClientBaseIN4asio19basic_stream_socketINS3_2ip3tcpENS3_8executorEEEE12read_messageERKSt10shared_ptrINS9_10ConnectionEEmENKUlRKSt10error_codemE_clESH_mEUlSH_mE0_EEbRT_
FN:30,_ZN25asio_handler_cont_helpers15is_continuationIN4asio6detail17read_dynbuf_v1_opINS1_19basic_stream_socketINS1_2ip3tcpENS1_8executorEEENS1_19basic_streambuf_refISaIcEEENS2_18transfer_exactly_tEZZN9SimpleWeb16SocketClientBaseIS8_E12read_messageERKSt10shared_ptrINSF_10ConnectionEEmENKUlRKSt10error_codemE_clESN_mEUlSN_mE_EEEEbRT_
FN:30,_ZN25asio_handler_cont_helpers15is_continuationIZZN9SimpleWeb16SocketClientBaseIN4asio19basic_stream_socketINS3_2ip3tcpENS3_8executorEEEE7upgradeERKSt10shared_ptrINS9_10ConnectionEEENKUlRKSt10error_codemE_clESH_mEUlSH_mE_EEbRT_
FN:30,_ZN25asio_handler_cont_helpers15is_continuationIZN9SimpleWeb16SocketClientBaseIN4asio19basic_stream_socketINS3_2ip3tcpENS3_8executorEEEE10Connection15send_from_queueEvEUlRKSt10error_codemE_EEbRT_
FN:30,_ZN25asio_handler_cont_helpers15is_continuationIN4asio6detail8write_opINS1_19basic_stream_socketINS1_2ip3tcpENS1_8executorEEENS1_15const_buffers_1EPKNS1_12const_bufferENS2_14transfer_all_tENS2_18write_dynbuf_v1_opIS8_NS1_19basic_streambuf_refISaIcEEESD_ZN9SimpleWeb16SocketClientBaseIS8_E10Connection15send_from_queueEvEUlRKSt10error_codemE_EEEEEEbRT_
FN:30,_ZN25asio_handler_cont_helpers15is_continuationIN4asio6detail18write_dynbuf_v1_opINS1_19basic_stream_socketINS1_2ip3tcpENS1_8executorEEENS1_19basic_streambuf_refISaIcEEENS2_14transfer_all_tEZN9SimpleWeb16SocketClientBaseIS8_E7upgradeERKSt10shared_ptrINSF_10ConnectionEEEUlRKSt10error_codemE_EEEEbRT_
FN:30,_ZN25asio_handler_cont_helpers15is_continuationIZZN9SimpleWeb12SocketClientIN4asio19basic_stream_socketINS3_2ip3tcpENS3_8executorEEEE7connectEvENKUlRKSt10error_codeNS5_22basic_resolver_resultsIS6_EEE_clESC_SE_EUlSC_NS5_14basic_endpointIS6_EEE_EEbRT_
FN:30,_ZN25asio_handler_cont_helpers15is_continuationIN4asio6detail29read_until_delim_string_op_v1INS1_19basic_stream_socketINS1_2ip3tcpENS1_8executorEEENS1_19basic_streambuf_refISaIcEEEZZN9SimpleWeb16SocketClientBaseIS8_E7upgradeERKSt10shared_ptrINSE_10ConnectionEEENKUlRKSt10error_codemE_clESM_mEUlSM_mE_EEEEbRT_
FN:30,_ZN25asio_handler_cont_helpers15is_continuationIZZN9SimpleWeb16SocketClientBaseIN4asio19basic_stream_socketINS3_2ip3tcpENS3_8executorEEEE12read_messageERKSt10shared_ptrINS9_10ConnectionEEmENKUlRKSt10error_codemE_clESH_mEUlSH_mE_EEbRT_
FN:30,_ZN25asio_handler_cont_helpers15is_continuationIN4asio6detail17read_dynbuf_v1_opINS1_19basic_stream_socketINS1_2ip3tcpENS1_8executorEEENS1_19basic_streambuf_refISaIcEEENS2_18transfer_exactly_tEZN9SimpleWeb16SocketClientBaseIS8_E20read_message_contentERKSt10shared_ptrINSF_10ConnectionEEmEUlRKSt10error_codemE_EEEEbRT_
FN:30,_ZN25asio_handler_cont_helpers15is_continuationIN4asio6detail8write_opINS1_19basic_stream_socketINS1_2ip3tcpENS1_8executorEEENS1_15const_buffers_1EPKNS1_12const_bufferENS2_14transfer_all_tENS2_18write_dynbuf_v1_opIS8_NS1_19basic_streambuf_refISaIcEEESD_ZN9SimpleWeb16SocketClientBaseIS8_E7upgradeERKSt10shared_ptrINSK_10ConnectionEEEUlRKSt10error_codemE_EEEEEEbRT_
FN:30,_ZN25asio_handler_cont_helpers15is_continuationIZN9SimpleWeb16SocketClientBaseIN4asio19basic_stream_socketINS3_2ip3tcpENS3_8executorEEEE7upgradeERKSt10shared_ptrINS9_10ConnectionEEEUlRKSt10error_codemE_EEbRT_
FNDA:0,_ZN25asio_handler_cont_helpers15is_continuationIZN9SimpleWeb16SocketClientBaseIN4asio19basic_stream_socketINS3_2ip3tcpENS3_8executorEEEE10Connection15send_from_queueEvEUlRKSt10error_codemE_EEbRT_
FNDA:0,_ZN25asio_handler_cont_helpers15is_continuationIN4asio6detail18write_dynbuf_v1_opINS1_19basic_stream_socketINS1_2ip3tcpENS1_8executorEEENS1_19basic_streambuf_refISaIcEEENS2_14transfer_all_tEZN9SimpleWeb16SocketClientBaseIS8_E10Connection15send_from_queueEvEUlRKSt10error_codemE_EEEEbRT_
FNDA:0,_ZN25asio_handler_cont_helpers15is_continuationIZN9SimpleWeb16SocketClientBaseIN4asio19basic_stream_socketINS3_2ip3tcpENS3_8executorEEEE7upgradeERKSt10shared_ptrINS9_10ConnectionEEEUlRKSt10error_codemE_EEbRT_
FNDA:0,_ZN25asio_handler_cont_helpers15is_continuationIN4asio6detail8write_opINS1_19basic_stream_socketINS1_2ip3tcpENS1_8executorEEENS1_15const_buffers_1EPKNS1_12const_bufferENS2_14transfer_all_tENS2_18write_dynbuf_v1_opIS8_NS1_19basic_streambuf_refISaIcEEESD_ZN9SimpleWeb16SocketClientBaseIS8_E10Connection15send_from_queueEvEUlRKSt10error_codemE_EEEEEEbRT_
FNDA:0,_ZN25asio_handler_cont_helpers15is_continuationIN4asio6detail18write_dynbuf_v1_opINS1_19basic_stream_socketINS1_2ip3tcpENS1_8executorEEENS1_19basic_streambuf_refISaIcEEENS2_14transfer_all_tEZN9SimpleWeb16SocketClientBaseIS8_E7upgradeERKSt10shared_ptrINSF_10ConnectionEEEUlRKSt10error_codemE_EEEEbRT_
FNDA:0,_ZN25asio_handler_cont_helpers15is_continuationIN4asio6detail8write_opINS1_19basic_stream_socketINS1_2ip3tcpENS1_8executorEEENS1_15const_buffers_1EPKNS1_12const_bufferENS2_14transfer_all_tENS2_18write_dynbuf_v1_opIS8_NS1_19basic_streambuf_refISaIcEEESD_ZN9SimpleWeb16SocketClientBaseIS8_E7upgradeERKSt10shared_ptrINSK_10ConnectionEEEUlRKSt10error_codemE_EEEEEEbRT_
FNDA:0,_ZN25asio_handler_cont_helpers15is_continuationIZN9SimpleWeb16SocketClientBaseIN4asio19basic_stream_socketINS3_2ip3tcpENS3_8executorEEEE20read_message_contentERKSt10shared_ptrINS9_10ConnectionEEmEUlRKSt10error_codemE_EEbRT_
FNDA:0,_ZN25asio_handler_cont_helpers15is_continuationIZN9SimpleWeb16SocketClientBaseIN4asio19basic_stream_socketINS3_2ip3tcpENS3_8executorEEEE12read_messageERKSt10shared_ptrINS9_10ConnectionEEmEUlRKSt10error_codemE_EEbRT_
FNDA:0,_ZN25asio_handler_cont_helpers15is_continuationIZZN9SimpleWeb16SocketClientBaseIN4asio19basic_stream_socketINS3_2ip3tcpENS3_8executorEEEE12read_messageERKSt10shared_ptrINS9_10ConnectionEEmENKUlRKSt10error_codemE_clESH_mEUlSH_mE0_EEbRT_
FNDA:0,_ZN25asio_handler_cont_helpers15is_continuationIZZN9SimpleWeb16SocketClientBaseIN4asio19basic_stream_socketINS3_2ip3tcpENS3_8executorEEEE12read_messageERKSt10shared_ptrINS9_10ConnectionEEmENKUlRKSt10error_codemE_clESH_mEUlSH_mE_EEbRT_
FNDA:0,_ZN25asio_handler_cont_helpers15is_continuationIZZN9SimpleWeb16SocketClientBaseIN4asio19basic_stream_socketINS3_2ip3tcpENS3_8executorEEEE7upgradeERKSt10shared_ptrINS9_10ConnectionEEENKUlRKSt10error_codemE_clESH_mEUlSH_mE_EEbRT_
FNDA:0,_ZN25asio_handler_cont_helpers15is_continuationIN4asio6detail17read_dynbuf_v1_opINS1_19basic_stream_socketINS1_2ip3tcpENS1_8executorEEENS1_19basic_streambuf_refISaIcEEENS2_18transfer_exactly_tEZN9SimpleWeb16SocketClientBaseIS8_E20read_message_contentERKSt10shared_ptrINSF_10ConnectionEEmEUlRKSt10error_codemE_EEEEbRT_
FNDA:0,_ZN25asio_handler_cont_helpers15is_continuationIZZN9SimpleWeb12SocketClientIN4asio19basic_stream_socketINS3_2ip3tcpENS3_8executorEEEE7connectEvENKUlRKSt10error_codeNS5_22basic_resolver_resultsIS6_EEE_clESC_SE_EUlSC_NS5_14basic_endpointIS6_EEE_EEbRT_
FNDA:0,_ZN25asio_handler_cont_helpers15is_continuationIN4asio6detail17read_dynbuf_v1_opINS1_19basic_stream_socketINS1_2ip3tcpENS1_8executorEEENS1_19basic_streambuf_refISaIcEEENS2_18transfer_exactly_tEZN9SimpleWeb16SocketClientBaseIS8_E12read_messageERKSt10shared_ptrINSF_10ConnectionEEmEUlRKSt10error_codemE_EEEEbRT_
FNDA:0,_ZN25asio_handler_cont_helpers15is_continuationIN4asio6detail17read_dynbuf_v1_opINS1_19basic_stream_socketINS1_2ip3tcpENS1_8executorEEENS1_19basic_streambuf_refISaIcEEENS2_18transfer_exactly_tEZZN9SimpleWeb16SocketClientBaseIS8_E12read_messageERKSt10shared_ptrINSF_10ConnectionEEmENKUlRKSt10error_codemE_clESN_mEUlSN_mE0_EEEEbRT_
FNDA:0,_ZN25asio_handler_cont_helpers15is_continuationIN4asio6detail17read_dynbuf_v1_opINS1_19basic_stream_socketINS1_2ip3tcpENS1_8executorEEENS1_19basic_streambuf_refISaIcEEENS2_18transfer_exactly_tEZZN9SimpleWeb16SocketClientBaseIS8_E12read_messageERKSt10shared_ptrINSF_10ConnectionEEmENKUlRKSt10error_codemE_clESN_mEUlSN_mE_EEEEbRT_
FNDA:0,_ZN25asio_handler_cont_helpers15is_continuationIN4asio6detail29read_until_delim_string_op_v1INS1_19basic_stream_socketINS1_2ip3tcpENS1_8executorEEENS1_19basic_streambuf_refISaIcEEEZZN9SimpleWeb16SocketClientBaseIS8_E7upgradeERKSt10shared_ptrINSE_10ConnectionEEENKUlRKSt10error_codemE_clESM_mEUlSM_mE_EEEEbRT_
FNDA:0,_ZN25asio_handler_cont_helpers15is_continuationIN4asio6detail16range_connect_opINS1_2ip3tcpENS1_8executorENS4_22basic_resolver_resultsIS5_EENS2_25default_connect_conditionEZZN9SimpleWeb12SocketClientINS1_19basic_stream_socketIS5_S6_EEE7connectEvENKUlRKSt10error_codeS8_E_clESH_S8_EUlSH_NS4_14basic_endpointIS5_EEE_EEEEbRT_
FNF:18
FNH:0
DA:30,0
DA:36,0
DA:37,0
LF:3
LH:0
end_of_record
SF:/home/tistrauss/.conan/data/asio/1.13.0/_/_/package/5ab84d6acfe1f23c4fae0ab88f26e3a396351ac9/include/asio/detail/handler_invoke_helpers.hpp
FN:30,_ZN27asio_handler_invoke_helpers6invokeIN4asio6detail7binder2INS2_29read_until_delim_string_op_v1INS1_19basic_stream_socketINS1_2ip3tcpENS1_8executorEEENS1_19basic_streambuf_refISaIcEEEZZN9SimpleWeb16SocketClientBaseIS9_E7upgradeERKSt10shared_ptrINSF_10ConnectionEEENKUlRKSt10error_codemE_clESN_mEUlSN_mE_EESL_mEESR_EEvRT_RT0_
FN:30,_ZN27asio_handler_invoke_helpers6invokeIN4asio6detail7binder2INS2_17read_dynbuf_v1_opINS1_19basic_stream_socketINS1_2ip3tcpENS1_8executorEEENS1_19basic_streambuf_refISaIcEEENS2_18transfer_exactly_tEZZN9SimpleWeb16SocketClientBaseIS9_E12read_messageERKSt10shared_ptrINSG_10ConnectionEEmENKUlRKSt10error_codemE_clESO_mEUlSO_mE0_EESM_mEESQ_EEvRT_RT0_
FN:30,_ZN27asio_handler_invoke_helpers6invokeIN4asio6detail7binder2INS2_17read_dynbuf_v1_opINS1_19basic_stream_socketINS1_2ip3tcpENS1_8executorEEENS1_19basic_streambuf_refISaIcEEENS2_18transfer_exactly_tEZN9SimpleWeb16SocketClientBaseIS9_E20read_message_contentERKSt10shared_ptrINSG_10ConnectionEEmEUlRKSt10error_codemE_EESM_mEESQ_EEvRT_RT0_
FN:30,_ZN27asio_handler_invoke_helpers6invokeIN4asio6detail7binder2IZN9SimpleWeb12SocketClientINS1_19basic_stream_socketINS1_2ip3tcpENS1_8executorEEEE7connectEvEUlRKSt10error_codeNS7_22basic_resolver_resultsIS8_EEE_SC_SG_EESH_EEvRT_RT0_
FN:30,_ZN27asio_handler_invoke_helpers6invokeIN4asio6detail7binder2INS2_17read_dynbuf_v1_opINS1_19basic_stream_socketINS1_2ip3tcpENS1_8executorEEENS1_19basic_streambuf_refISaIcEEENS2_18transfer_exactly_tEZN9SimpleWeb16SocketClientBaseIS9_E20read_message_contentERKSt10shared_ptrINSG_10ConnectionEEmEUlRKSt10error_codemE_EESM_mEESR_EEvRT_RT0_
FN:30,_ZN27asio_handler_invoke_helpers6invokeIN4asio6detail7binder2INS2_8write_opINS1_19basic_stream_socketINS1_2ip3tcpENS1_8executorEEENS1_15const_buffers_1EPKNS1_12const_bufferENS2_14transfer_all_tENS2_18write_dynbuf_v1_opIS9_NS1_19basic_streambuf_refISaIcEEESE_ZN9SimpleWeb16SocketClientBaseIS9_E7upgradeERKSt10shared_ptrINSL_10ConnectionEEEUlRKSt10error_codemE_EEEESR_mEESV_EEvRT_RT0_
FN:30,_ZN27asio_handler_invoke_helpers6invokeIN4asio6detail7binder2INS2_17read_dynbuf_v1_opINS1_19basic_stream_socketINS1_2ip3tcpENS1_8executorEEENS1_19basic_streambuf_refISaIcEEENS2_18transfer_exactly_tEZN9SimpleWeb16SocketClientBaseIS9_E12read_messageERKSt10shared_ptrINSG_10ConnectionEEmEUlRKSt10error_codemE_EESM_mEESQ_EEvRT_RT0_
FN:30,_ZN27asio_handler_invoke_helpers6invokeIN4asio6detail7binder1INS2_16range_connect_opINS1_2ip3tcpENS1_8executorENS5_22basic_resolver_resultsIS6_EENS2_25default_connect_conditionEZZN9SimpleWeb12SocketClientINS1_19basic_stream_socketIS6_S7_EEE7connectEvENKUlRKSt10error_codeS9_E_clESI_S9_EUlSI_NS5_14basic_endpointIS6_EEE_EESG_EESN_EEvRT_RT0_
FN:30,_ZN27asio_handler_invoke_helpers6invokeIN4asio6detail7binder2INS2_17read_dynbuf_v1_opINS1_19basic_stream_socketINS1_2ip3tcpENS1_8executorEEENS1_19basic_streambuf_refISaIcEEENS2_18transfer_exactly_tEZZN9SimpleWeb16SocketClientBaseIS9_E12read_messageERKSt10shared_ptrINSG_10ConnectionEEmENKUlRKSt10error_codemE_clESO_mEUlSO_mE0_EESM_mEESS_EEvRT_RT0_
FN:30,_ZN27asio_handler_invoke_helpers6invokeIN4asio6detail7binder2INS2_17read_dynbuf_v1_opINS1_19basic_stream_socketINS1_2ip3tcpENS1_8executorEEENS1_19basic_streambuf_refISaIcEEENS2_18transfer_exactly_tEZZN9SimpleWeb16SocketClientBaseIS9_E12read_messageERKSt10shared_ptrINSG_10ConnectionEEmENKUlRKSt10error_codemE_clESO_mEUlSO_mE_EESM_mEESR_EEvRT_RT0_
FN:30,_ZN27asio_handler_invoke_helpers6invokeIN4asio6detail7binder2INS2_17read_dynbuf_v1_opINS1_19basic_stream_socketINS1_2ip3tcpENS1_8executorEEENS1_19basic_streambuf_refISaIcEEENS2_18transfer_exactly_tEZZN9SimpleWeb16SocketClientBaseIS9_E12read_messageERKSt10shared_ptrINSG_10ConnectionEEmENKUlRKSt10error_codemE_clESO_mEUlSO_mE0_EESM_mEESR_EEvRT_RT0_
FN:30,_ZN27asio_handler_invoke_helpers6invokeIN4asio6detail7binder2INS2_17read_dynbuf_v1_opINS1_19basic_stream_socketINS1_2ip3tcpENS1_8executorEEENS1_19basic_streambuf_refISaIcEEENS2_18transfer_exactly_tEZZN9SimpleWeb16SocketClientBaseIS9_E12read_messageERKSt10shared_ptrINSG_10ConnectionEEmENKUlRKSt10error_codemE_clESO_mEUlSO_mE_EESM_mEESQ_EEvRT_RT0_
FN:30,_ZN27asio_handler_invoke_helpers6invokeIN4asio6detail7binder2INS2_8write_opINS1_19basic_stream_socketINS1_2ip3tcpENS1_8executorEEENS1_15const_buffers_1EPKNS1_12const_bufferENS2_14transfer_all_tENS2_18write_dynbuf_v1_opIS9_NS1_19basic_streambuf_refISaIcEEESE_ZN9SimpleWeb16SocketClientBaseIS9_E7upgradeERKSt10shared_ptrINSL_10ConnectionEEEUlRKSt10error_codemE_EEEESR_mEESX_EEvRT_RT0_
FN:30,_ZN27asio_handler_invoke_helpers6invokeIN4asio6detail7binder1IZN9SimpleWeb16SocketClientBaseINS1_19basic_stream_socketINS1_2ip3tcpENS1_8executorEEEE10Connection11set_timeoutElEUlRKSt10error_codeE_SD_EESH_EEvRT_RT0_
FN:30,_ZN27asio_handler_invoke_helpers6invokeIN4asio6detail7binder1INS2_16range_connect_opINS1_2ip3tcpENS1_8executorENS5_22basic_resolver_resultsIS6_EENS2_25default_connect_conditionEZZN9SimpleWeb12SocketClientINS1_19basic_stream_socketIS6_S7_EEE7connectEvENKUlRKSt10error_codeS9_E_clESI_S9_EUlSI_NS5_14basic_endpointIS6_EEE_EESG_EESO_EEvRT_RT0_
FN:30,_ZN27asio_handler_invoke_helpers6invokeIN4asio6detail7binder2INS2_8write_opINS1_19basic_stream_socketINS1_2ip3tcpENS1_8executorEEENS1_15const_buffers_1EPKNS1_12const_bufferENS2_14transfer_all_tENS2_18write_dynbuf_v1_opIS9_NS1_19basic_streambuf_refISaIcEEESE_ZN9SimpleWeb16SocketClientBaseIS9_E10Connection15send_from_queueEvEUlRKSt10error_codemE_EEEESN_mEESQ_EEvRT_RT0_
FN:30,_ZN27asio_handler_invoke_helpers6invokeIN4asio6detail7binder2INS2_17read_dynbuf_v1_opINS1_19basic_stream_socketINS1_2ip3tcpENS1_8executorEEENS1_19basic_streambuf_refISaIcEEENS2_18transfer_exactly_tEZN9SimpleWeb16SocketClientBaseIS9_E12read_messageERKSt10shared_ptrINSG_10ConnectionEEmEUlRKSt10error_codemE_EESM_mEESR_EEvRT_RT0_
FN:30,_ZN27asio_handler_invoke_helpers6invokeIN4asio8executor8functionES3_EEvRT_RT0_
FN:30,_ZN27asio_handler_invoke_helpers6invokeIN4asio6detail7binder1IZN9SimpleWeb16SocketClientBaseINS1_19basic_stream_socketINS1_2ip3tcpENS1_8executorEEEE10Connection11set_timeoutElEUlRKSt10error_codeE_SD_EESG_EEvRT_RT0_
FN:30,_ZN27asio_handler_invoke_helpers6invokeIN4asio6detail7binder2IZN9SimpleWeb12SocketClientINS1_19basic_stream_socketINS1_2ip3tcpENS1_8executorEEEE7connectEvEUlRKSt10error_codeNS7_22basic_resolver_resultsIS8_EEE_SC_SG_EESI_EEvRT_RT0_
FN:30,_ZN27asio_handler_invoke_helpers6invokeIN4asio6detail7binder2INS2_17read_dynbuf_v1_opINS1_19basic_stream_socketINS1_2ip3tcpENS1_8executorEEENS1_19basic_streambuf_refISaIcEEENS2_18transfer_exactly_tEZN9SimpleWeb16SocketClientBaseIS9_E20read_message_contentERKSt10shared_ptrINSG_10ConnectionEEmEUlRKSt10error_codemE_EESM_mEESP_EEvRT_RT0_
FN:30,_ZN27asio_handler_invoke_helpers6invokeIN4asio6detail7binder2INS2_8write_opINS1_19basic_stream_socketINS1_2ip3tcpENS1_8executorEEENS1_15const_buffers_1EPKNS1_12const_bufferENS2_14transfer_all_tENS2_18write_dynbuf_v1_opIS9_NS1_19basic_streambuf_refISaIcEEESE_ZN9SimpleWeb16SocketClientBaseIS9_E10Connection15send_from_queueEvEUlRKSt10error_codemE_EEEESN_mEESR_EEvRT_RT0_
FN:30,_ZN27asio_handler_invoke_helpers6invokeIN4asio6detail7binder2INS2_8write_opINS1_19basic_stream_socketINS1_2ip3tcpENS1_8executorEEENS1_15const_buffers_1EPKNS1_12const_bufferENS2_14transfer_all_tENS2_18write_dynbuf_v1_opIS9_NS1_19basic_streambuf_refISaIcEEESE_ZN9SimpleWeb16SocketClientBaseIS9_E7upgradeERKSt10shared_ptrINSL_10ConnectionEEEUlRKSt10error_codemE_EEEESR_mEESU_EEvRT_RT0_
FN:30,_ZN27asio_handler_invoke_helpers6invokeIN4asio6detail7binder2INS2_8write_opINS1_19basic_stream_socketINS1_2ip3tcpENS1_8executorEEENS1_15const_buffers_1EPKNS1_12const_bufferENS2_14transfer_all_tENS2_18write_dynbuf_v1_opIS9_NS1_19basic_streambuf_refISaIcEEESE_ZN9SimpleWeb16SocketClientBaseIS9_E7upgradeERKSt10shared_ptrINSL_10ConnectionEEEUlRKSt10error_codemE_EEEESR_mEESW_EEvRT_RT0_
FN:30,_ZN27asio_handler_invoke_helpers6invokeIN4asio6detail7binder2INS2_29read_until_delim_string_op_v1INS1_19basic_stream_socketINS1_2ip3tcpENS1_8executorEEENS1_19basic_streambuf_refISaIcEEEZZN9SimpleWeb16SocketClientBaseIS9_E7upgradeERKSt10shared_ptrINSF_10ConnectionEEENKUlRKSt10error_codemE_clESN_mEUlSN_mE_EESL_mEESP_EEvRT_RT0_
FN:30,_ZN27asio_handler_invoke_helpers6invokeIN4asio6detail7binder1INS2_16range_connect_opINS1_2ip3tcpENS1_8executorENS5_22basic_resolver_resultsIS6_EENS2_25default_connect_conditionEZZN9SimpleWeb12SocketClientINS1_19basic_stream_socketIS6_S7_EEE7connectEvENKUlRKSt10error_codeS9_E_clESI_S9_EUlSI_NS5_14basic_endpointIS6_EEE_EESG_EESM_EEvRT_RT0_
FN:30,_ZN27asio_handler_invoke_helpers6invokeIN4asio6detail7binder2INS2_17read_dynbuf_v1_opINS1_19basic_stream_socketINS1_2ip3tcpENS1_8executorEEENS1_19basic_streambuf_refISaIcEEENS2_18transfer_exactly_tEZZN9SimpleWeb16SocketClientBaseIS9_E12read_messageERKSt10shared_ptrINSG_10ConnectionEEmENKUlRKSt10error_codemE_clESO_mEUlSO_mE_EESM_mEESS_EEvRT_RT0_
FN:30,_ZN27asio_handler_invoke_helpers6invokeIN4asio6detail7binder2INS2_8write_opINS1_19basic_stream_socketINS1_2ip3tcpENS1_8executorEEENS1_15const_buffers_1EPKNS1_12const_bufferENS2_14transfer_all_tENS2_18write_dynbuf_v1_opIS9_NS1_19basic_streambuf_refISaIcEEESE_ZN9SimpleWeb16SocketClientBaseIS9_E10Connection15send_from_queueEvEUlRKSt10error_codemE_EEEESN_mEEST_EEvRT_RT0_
FN:30,_ZN27asio_handler_invoke_helpers6invokeIN4asio6detail7binder2INS2_8write_opINS1_19basic_stream_socketINS1_2ip3tcpENS1_8executorEEENS1_15const_buffers_1EPKNS1_12const_bufferENS2_14transfer_all_tENS2_18write_dynbuf_v1_opIS9_NS1_19basic_streambuf_refISaIcEEESE_ZN9SimpleWeb16SocketClientBaseIS9_E10Connection15send_from_queueEvEUlRKSt10error_codemE_EEEESN_mEESS_EEvRT_RT0_
FN:30,_ZN27asio_handler_invoke_helpers6invokeIN4asio6detail7binder2INS2_29read_until_delim_string_op_v1INS1_19basic_stream_socketINS1_2ip3tcpENS1_8executorEEENS1_19basic_streambuf_refISaIcEEEZZN9SimpleWeb16SocketClientBaseIS9_E7upgradeERKSt10shared_ptrINSF_10ConnectionEEENKUlRKSt10error_codemE_clESN_mEUlSN_mE_EESL_mEESQ_EEvRT_RT0_
FN:30,_ZN27asio_handler_invoke_helpers6invokeIN4asio6detail7binder2INS2_17read_dynbuf_v1_opINS1_19basic_stream_socketINS1_2ip3tcpENS1_8executorEEENS1_19basic_streambuf_refISaIcEEENS2_18transfer_exactly_tEZN9SimpleWeb16SocketClientBaseIS9_E12read_messageERKSt10shared_ptrINSG_10ConnectionEEmEUlRKSt10error_codemE_EESM_mEESP_EEvRT_RT0_
FNDA:0,_ZN27asio_handler_invoke_helpers6invokeIN4asio8executor8functionES3_EEvRT_RT0_
FNDA:0,_ZN27asio_handler_invoke_helpers6invokeIN4asio6detail7binder2INS2_8write_opINS1_19basic_stream_socketINS1_2ip3tcpENS1_8executorEEENS1_15const_buffers_1EPKNS1_12const_bufferENS2_14transfer_all_tENS2_18write_dynbuf_v1_opIS9_NS1_19basic_streambuf_refISaIcEEESE_ZN9SimpleWeb16SocketClientBaseIS9_E10Connection15send_from_queueEvEUlRKSt10error_codemE_EEEESN_mEESQ_EEvRT_RT0_
FNDA:0,_ZN27asio_handler_invoke_helpers6invokeIN4asio6detail7binder2INS2_8write_opINS1_19basic_stream_socketINS1_2ip3tcpENS1_8executorEEENS1_15const_buffers_1EPKNS1_12const_bufferENS2_14transfer_all_tENS2_18write_dynbuf_v1_opIS9_NS1_19basic_streambuf_refISaIcEEESE_ZN9SimpleWeb16SocketClientBaseIS9_E10Connection15send_from_queueEvEUlRKSt10error_codemE_EEEESN_mEESR_EEvRT_RT0_
FNDA:0,_ZN27asio_handler_invoke_helpers6invokeIN4asio6detail7binder2INS2_8write_opINS1_19basic_stream_socketINS1_2ip3tcpENS1_8executorEEENS1_15const_buffers_1EPKNS1_12const_bufferENS2_14transfer_all_tENS2_18write_dynbuf_v1_opIS9_NS1_19basic_streambuf_refISaIcEEESE_ZN9SimpleWeb16SocketClientBaseIS9_E7upgradeERKSt10shared_ptrINSL_10ConnectionEEEUlRKSt10error_codemE_EEEESR_mEESU_EEvRT_RT0_
FNDA:0,_ZN27asio_handler_invoke_helpers6invokeIN4asio6detail7binder2INS2_8write_opINS1_19basic_stream_socketINS1_2ip3tcpENS1_8executorEEENS1_15const_buffers_1EPKNS1_12const_bufferENS2_14transfer_all_tENS2_18write_dynbuf_v1_opIS9_NS1_19basic_streambuf_refISaIcEEESE_ZN9SimpleWeb16SocketClientBaseIS9_E10Connection15send_from_queueEvEUlRKSt10error_codemE_EEEESN_mEESS_EEvRT_RT0_
FNDA:0,_ZN27asio_handler_invoke_helpers6invokeIN4asio6detail7binder2INS2_8write_opINS1_19basic_stream_socketINS1_2ip3tcpENS1_8executorEEENS1_15const_buffers_1EPKNS1_12const_bufferENS2_14transfer_all_tENS2_18write_dynbuf_v1_opIS9_NS1_19basic_streambuf_refISaIcEEESE_ZN9SimpleWeb16SocketClientBaseIS9_E7upgradeERKSt10shared_ptrINSL_10ConnectionEEEUlRKSt10error_codemE_EEEESR_mEESV_EEvRT_RT0_
FNDA:0,_ZN27asio_handler_invoke_helpers6invokeIN4asio6detail7binder2INS2_8write_opINS1_19basic_stream_socketINS1_2ip3tcpENS1_8executorEEENS1_15const_buffers_1EPKNS1_12const_bufferENS2_14transfer_all_tENS2_18write_dynbuf_v1_opIS9_NS1_19basic_streambuf_refISaIcEEESE_ZN9SimpleWeb16SocketClientBaseIS9_E10Connection15send_from_queueEvEUlRKSt10error_codemE_EEEESN_mEEST_EEvRT_RT0_
FNDA:0,_ZN27asio_handler_invoke_helpers6invokeIN4asio6detail7binder2INS2_8write_opINS1_19basic_stream_socketINS1_2ip3tcpENS1_8executorEEENS1_15const_buffers_1EPKNS1_12const_bufferENS2_14transfer_all_tENS2_18write_dynbuf_v1_opIS9_NS1_19basic_streambuf_refISaIcEEESE_ZN9SimpleWeb16SocketClientBaseIS9_E7upgradeERKSt10shared_ptrINSL_10ConnectionEEEUlRKSt10error_codemE_EEEESR_mEESW_EEvRT_RT0_
FNDA:0,_ZN27asio_handler_invoke_helpers6invokeIN4asio6detail7binder2INS2_8write_opINS1_19basic_stream_socketINS1_2ip3tcpENS1_8executorEEENS1_15const_buffers_1EPKNS1_12const_bufferENS2_14transfer_all_tENS2_18write_dynbuf_v1_opIS9_NS1_19basic_streambuf_refISaIcEEESE_ZN9SimpleWeb16SocketClientBaseIS9_E7upgradeERKSt10shared_ptrINSL_10ConnectionEEEUlRKSt10error_codemE_EEEESR_mEESX_EEvRT_RT0_
FNDA:0,_ZN27asio_handler_invoke_helpers6invokeIN4asio6detail7binder2INS2_17read_dynbuf_v1_opINS1_19basic_stream_socketINS1_2ip3tcpENS1_8executorEEENS1_19basic_streambuf_refISaIcEEENS2_18transfer_exactly_tEZN9SimpleWeb16SocketClientBaseIS9_E20read_message_contentERKSt10shared_ptrINSG_10ConnectionEEmEUlRKSt10error_codemE_EESM_mEESP_EEvRT_RT0_
FNDA:0,_ZN27asio_handler_invoke_helpers6invokeIN4asio6detail7binder2INS2_17read_dynbuf_v1_opINS1_19basic_stream_socketINS1_2ip3tcpENS1_8executorEEENS1_19basic_streambuf_refISaIcEEENS2_18transfer_exactly_tEZN9SimpleWeb16SocketClientBaseIS9_E12read_messageERKSt10shared_ptrINSG_10ConnectionEEmEUlRKSt10error_codemE_EESM_mEESP_EEvRT_RT0_
FNDA:0,_ZN27asio_handler_invoke_helpers6invokeIN4asio6detail7binder2INS2_17read_dynbuf_v1_opINS1_19basic_stream_socketINS1_2ip3tcpENS1_8executorEEENS1_19basic_streambuf_refISaIcEEENS2_18transfer_exactly_tEZZN9SimpleWeb16SocketClientBaseIS9_E12read_messageERKSt10shared_ptrINSG_10ConnectionEEmENKUlRKSt10error_codemE_clESO_mEUlSO_mE0_EESM_mEESQ_EEvRT_RT0_
FNDA:0,_ZN27asio_handler_invoke_helpers6invokeIN4asio6detail7binder2INS2_17read_dynbuf_v1_opINS1_19basic_stream_socketINS1_2ip3tcpENS1_8executorEEENS1_19basic_streambuf_refISaIcEEENS2_18transfer_exactly_tEZZN9SimpleWeb16SocketClientBaseIS9_E12read_messageERKSt10shared_ptrINSG_10ConnectionEEmENKUlRKSt10error_codemE_clESO_mEUlSO_mE_EESM_mEESQ_EEvRT_RT0_
FNDA:0,_ZN27asio_handler_invoke_helpers6invokeIN4asio6detail7binder2INS2_29read_until_delim_string_op_v1INS1_19basic_stream_socketINS1_2ip3tcpENS1_8executorEEENS1_19basic_streambuf_refISaIcEEEZZN9SimpleWeb16SocketClientBaseIS9_E7upgradeERKSt10shared_ptrINSF_10ConnectionEEENKUlRKSt10error_codemE_clESN_mEUlSN_mE_EESL_mEESP_EEvRT_RT0_
FNDA:0,_ZN27asio_handler_invoke_helpers6invokeIN4asio6detail7binder2INS2_17read_dynbuf_v1_opINS1_19basic_stream_socketINS1_2ip3tcpENS1_8executorEEENS1_19basic_streambuf_refISaIcEEENS2_18transfer_exactly_tEZN9SimpleWeb16SocketClientBaseIS9_E20read_message_contentERKSt10shared_ptrINSG_10ConnectionEEmEUlRKSt10error_codemE_EESM_mEESQ_EEvRT_RT0_
FNDA:0,_ZN27asio_handler_invoke_helpers6invokeIN4asio6detail7binder1INS2_16range_connect_opINS1_2ip3tcpENS1_8executorENS5_22basic_resolver_resultsIS6_EENS2_25default_connect_conditionEZZN9SimpleWeb12SocketClientINS1_19basic_stream_socketIS6_S7_EEE7connectEvENKUlRKSt10error_codeS9_E_clESI_S9_EUlSI_NS5_14basic_endpointIS6_EEE_EESG_EESM_EEvRT_RT0_
FNDA:0,_ZN27asio_handler_invoke_helpers6invokeIN4asio6detail7binder2INS2_17read_dynbuf_v1_opINS1_19basic_stream_socketINS1_2ip3tcpENS1_8executorEEENS1_19basic_streambuf_refISaIcEEENS2_18transfer_exactly_tEZN9SimpleWeb16SocketClientBaseIS9_E12read_messageERKSt10shared_ptrINSG_10ConnectionEEmEUlRKSt10error_codemE_EESM_mEESQ_EEvRT_RT0_
FNDA:0,_ZN27asio_handler_invoke_helpers6invokeIN4asio6detail7binder2INS2_17read_dynbuf_v1_opINS1_19basic_stream_socketINS1_2ip3tcpENS1_8executorEEENS1_19basic_streambuf_refISaIcEEENS2_18transfer_exactly_tEZZN9SimpleWeb16SocketClientBaseIS9_E12read_messageERKSt10shared_ptrINSG_10ConnectionEEmENKUlRKSt10error_codemE_clESO_mEUlSO_mE0_EESM_mEESR_EEvRT_RT0_
FNDA:0,_ZN27asio_handler_invoke_helpers6invokeIN4asio6detail7binder2INS2_17read_dynbuf_v1_opINS1_19basic_stream_socketINS1_2ip3tcpENS1_8executorEEENS1_19basic_streambuf_refISaIcEEENS2_18transfer_exactly_tEZZN9SimpleWeb16SocketClientBaseIS9_E12read_messageERKSt10shared_ptrINSG_10ConnectionEEmENKUlRKSt10error_codemE_clESO_mEUlSO_mE_EESM_mEESR_EEvRT_RT0_
FNDA:0,_ZN27asio_handler_invoke_helpers6invokeIN4asio6detail7binder2INS2_29read_until_delim_string_op_v1INS1_19basic_stream_socketINS1_2ip3tcpENS1_8executorEEENS1_19basic_streambuf_refISaIcEEEZZN9SimpleWeb16SocketClientBaseIS9_E7upgradeERKSt10shared_ptrINSF_10ConnectionEEENKUlRKSt10error_codemE_clESN_mEUlSN_mE_EESL_mEESQ_EEvRT_RT0_
FNDA:0,_ZN27asio_handler_invoke_helpers6invokeIN4asio6detail7binder2INS2_17read_dynbuf_v1_opINS1_19basic_stream_socketINS1_2ip3tcpENS1_8executorEEENS1_19basic_streambuf_refISaIcEEENS2_18transfer_exactly_tEZN9SimpleWeb16SocketClientBaseIS9_E20read_message_contentERKSt10shared_ptrINSG_10ConnectionEEmEUlRKSt10error_codemE_EESM_mEESR_EEvRT_RT0_
FNDA:0,_ZN27asio_handler_invoke_helpers6invokeIN4asio6detail7binder1INS2_16range_connect_opINS1_2ip3tcpENS1_8executorENS5_22basic_resolver_resultsIS6_EENS2_25default_connect_conditionEZZN9SimpleWeb12SocketClientINS1_19basic_stream_socketIS6_S7_EEE7connectEvENKUlRKSt10error_codeS9_E_clESI_S9_EUlSI_NS5_14basic_endpointIS6_EEE_EESG_EESN_EEvRT_RT0_
FNDA:0,_ZN27asio_handler_invoke_helpers6invokeIN4asio6detail7binder2INS2_17read_dynbuf_v1_opINS1_19basic_stream_socketINS1_2ip3tcpENS1_8executorEEENS1_19basic_streambuf_refISaIcEEENS2_18transfer_exactly_tEZN9SimpleWeb16SocketClientBaseIS9_E12read_messageERKSt10shared_ptrINSG_10ConnectionEEmEUlRKSt10error_codemE_EESM_mEESR_EEvRT_RT0_
FNDA:0,_ZN27asio_handler_invoke_helpers6invokeIN4asio6detail7binder2INS2_17read_dynbuf_v1_opINS1_19basic_stream_socketINS1_2ip3tcpENS1_8executorEEENS1_19basic_streambuf_refISaIcEEENS2_18transfer_exactly_tEZZN9SimpleWeb16SocketClientBaseIS9_E12read_messageERKSt10shared_ptrINSG_10ConnectionEEmENKUlRKSt10error_codemE_clESO_mEUlSO_mE0_EESM_mEESS_EEvRT_RT0_
FNDA:0,_ZN27asio_handler_invoke_helpers6invokeIN4asio6detail7binder2INS2_17read_dynbuf_v1_opINS1_19basic_stream_socketINS1_2ip3tcpENS1_8executorEEENS1_19basic_streambuf_refISaIcEEENS2_18transfer_exactly_tEZZN9SimpleWeb16SocketClientBaseIS9_E12read_messageERKSt10shared_ptrINSG_10ConnectionEEmENKUlRKSt10error_codemE_clESO_mEUlSO_mE_EESM_mEESS_EEvRT_RT0_
FNDA:0,_ZN27asio_handler_invoke_helpers6invokeIN4asio6detail7binder2INS2_29read_until_delim_string_op_v1INS1_19basic_stream_socketINS1_2ip3tcpENS1_8executorEEENS1_19basic_streambuf_refISaIcEEEZZN9SimpleWeb16SocketClientBaseIS9_E7upgradeERKSt10shared_ptrINSF_10ConnectionEEENKUlRKSt10error_codemE_clESN_mEUlSN_mE_EESL_mEESR_EEvRT_RT0_
FNDA:0,_ZN27asio_handler_invoke_helpers6invokeIN4asio6detail7binder1INS2_16range_connect_opINS1_2ip3tcpENS1_8executorENS5_22basic_resolver_resultsIS6_EENS2_25default_connect_conditionEZZN9SimpleWeb12SocketClientINS1_19basic_stream_socketIS6_S7_EEE7connectEvENKUlRKSt10error_codeS9_E_clESI_S9_EUlSI_NS5_14basic_endpointIS6_EEE_EESG_EESO_EEvRT_RT0_
FNDA:0,_ZN27asio_handler_invoke_helpers6invokeIN4asio6detail7binder2IZN9SimpleWeb12SocketClientINS1_19basic_stream_socketINS1_2ip3tcpENS1_8executorEEEE7connectEvEUlRKSt10error_codeNS7_22basic_resolver_resultsIS8_EEE_SC_SG_EESH_EEvRT_RT0_
FNDA:0,_ZN27asio_handler_invoke_helpers6invokeIN4asio6detail7binder1IZN9SimpleWeb16SocketClientBaseINS1_19basic_stream_socketINS1_2ip3tcpENS1_8executorEEEE10Connection11set_timeoutElEUlRKSt10error_codeE_SD_EESG_EEvRT_RT0_
FNDA:0,_ZN27asio_handler_invoke_helpers6invokeIN4asio6detail7binder2IZN9SimpleWeb12SocketClientINS1_19basic_stream_socketINS1_2ip3tcpENS1_8executorEEEE7connectEvEUlRKSt10error_codeNS7_22basic_resolver_resultsIS8_EEE_SC_SG_EESI_EEvRT_RT0_
FNDA:0,_ZN27asio_handler_invoke_helpers6invokeIN4asio6detail7binder1IZN9SimpleWeb16SocketClientBaseINS1_19basic_stream_socketINS1_2ip3tcpENS1_8executorEEEE10Connection11set_timeoutElEUlRKSt10error_codeE_SD_EESH_EEvRT_RT0_
FNF:31
FNH:0
DA:30,0
DA:37,0
DA:39,0
LF:3
LH:0
end_of_record
SF:/home/tistrauss/.conan/data/asio/1.13.0/_/_/package/5ab84d6acfe1f23c4fae0ab88f26e3a396351ac9/include/asio/detail/handler_work.hpp
FN:42,_ZN4asio6detail12handler_workIZN9SimpleWeb16SocketClientBaseINS_19basic_stream_socketINS_2ip3tcpENS_8executorEEEE10Connection11set_timeoutElEUlRKSt10error_codeE_NS0_18io_object_executorIS7_EESG_EC2ERSE_RKSG_
FN:42,_ZN4asio6detail12handler_workINS0_17read_dynbuf_v1_opINS_19basic_stream_socketINS_2ip3tcpENS_8executorEEENS_19basic_streambuf_refISaIcEEENS0_18transfer_exactly_tEZN9SimpleWeb16SocketClientBaseIS7_E12read_messageERKSt10shared_ptrINSE_10ConnectionEEmEUlRKSt10error_codemE_EENS0_18io_object_executorIS6_EESQ_EC2ERSO_RKSQ_
FN:42,_ZN4asio6detail12handler_workIZN9SimpleWeb12SocketClientINS_19basic_stream_socketINS_2ip3tcpENS_8executorEEEE7connectEvEUlRKSt10error_codeNS5_22basic_resolver_resultsIS6_EEE_NS0_18io_object_executorIS7_EESH_EC2ERSF_RKSH_
FN:42,_ZN4asio6detail12handler_workINS0_8write_opINS_19basic_stream_socketINS_2ip3tcpENS_8executorEEENS_15const_buffers_1EPKNS_12const_bufferENS0_14transfer_all_tENS0_18write_dynbuf_v1_opIS7_NS_19basic_streambuf_refISaIcEEESC_ZN9SimpleWeb16SocketClientBaseIS7_E7upgradeERKSt10shared_ptrINSJ_10ConnectionEEEUlRKSt10error_codemE_EEEENS0_18io_object_executorIS6_EESW_EC2ERSU_RKSW_
FN:42,_ZN4asio6detail12handler_workINS0_17read_dynbuf_v1_opINS_19basic_stream_socketINS_2ip3tcpENS_8executorEEENS_19basic_streambuf_refISaIcEEENS0_18transfer_exactly_tEZZN9SimpleWeb16SocketClientBaseIS7_E12read_messageERKSt10shared_ptrINSE_10ConnectionEEmENKUlRKSt10error_codemE_clESM_mEUlSM_mE_EENS0_18io_object_executorIS6_EESR_EC2ERSP_RKSR_
FN:42,_ZN4asio6detail12handler_workINS0_16range_connect_opINS_2ip3tcpENS_8executorENS3_22basic_resolver_resultsIS4_EENS0_25default_connect_conditionEZZN9SimpleWeb12SocketClientINS_19basic_stream_socketIS4_S5_EEE7connectEvENKUlRKSt10error_codeS7_E_clESG_S7_EUlSG_NS3_14basic_endpointIS4_EEE_EENS0_18io_object_executorIS5_EESN_EC2ERSL_RKSN_
FN:42,_ZN4asio6detail12handler_workINS0_17read_dynbuf_v1_opINS_19basic_stream_socketINS_2ip3tcpENS_8executorEEENS_19basic_streambuf_refISaIcEEENS0_18transfer_exactly_tEZN9SimpleWeb16SocketClientBaseIS7_E20read_message_contentERKSt10shared_ptrINSE_10ConnectionEEmEUlRKSt10error_codemE_EENS0_18io_object_executorIS6_EESQ_EC2ERSO_RKSQ_
FN:42,_ZN4asio6detail12handler_workINS0_17read_dynbuf_v1_opINS_19basic_stream_socketINS_2ip3tcpENS_8executorEEENS_19basic_streambuf_refISaIcEEENS0_18transfer_exactly_tEZZN9SimpleWeb16SocketClientBaseIS7_E12read_messageERKSt10shared_ptrINSE_10ConnectionEEmENKUlRKSt10error_codemE_clESM_mEUlSM_mE0_EENS0_18io_object_executorIS6_EESR_EC2ERSP_RKSR_
FN:42,_ZN4asio6detail12handler_workINS0_8write_opINS_19basic_stream_socketINS_2ip3tcpENS_8executorEEENS_15const_buffers_1EPKNS_12const_bufferENS0_14transfer_all_tENS0_18write_dynbuf_v1_opIS7_NS_19basic_streambuf_refISaIcEEESC_ZN9SimpleWeb16SocketClientBaseIS7_E10Connection15send_from_queueEvEUlRKSt10error_codemE_EEEENS0_18io_object_executorIS6_EESS_EC2ERSQ_RKSS_
FN:42,_ZN4asio6detail12handler_workINS0_29read_until_delim_string_op_v1INS_19basic_stream_socketINS_2ip3tcpENS_8executorEEENS_19basic_streambuf_refISaIcEEEZZN9SimpleWeb16SocketClientBaseIS7_E7upgradeERKSt10shared_ptrINSD_10ConnectionEEENKUlRKSt10error_codemE_clESL_mEUlSL_mE_EENS0_18io_object_executorIS6_EESQ_EC2ERSO_RKSQ_
FN:54,_ZN4asio6detail12handler_workINS0_17read_dynbuf_v1_opINS_19basic_stream_socketINS_2ip3tcpENS_8executorEEENS_19basic_streambuf_refISaIcEEENS0_18transfer_exactly_tEZN9SimpleWeb16SocketClientBaseIS7_E12read_messageERKSt10shared_ptrINSE_10ConnectionEEmEUlRKSt10error_codemE_EENS0_18io_object_executorIS6_EESQ_E5startERSO_RKSQ_
FN:54,_ZN4asio6detail12handler_workINS0_8write_opINS_19basic_stream_socketINS_2ip3tcpENS_8executorEEENS_15const_buffers_1EPKNS_12const_bufferENS0_14transfer_all_tENS0_18write_dynbuf_v1_opIS7_NS_19basic_streambuf_refISaIcEEESC_ZN9SimpleWeb16SocketClientBaseIS7_E10Connection15send_from_queueEvEUlRKSt10error_codemE_EEEENS0_18io_object_executorIS6_EESS_E5startERSQ_RKSS_
FN:54,_ZN4asio6detail12handler_workIZN9SimpleWeb16SocketClientBaseINS_19basic_stream_socketINS_2ip3tcpENS_8executorEEEE10Connection11set_timeoutElEUlRKSt10error_codeE_NS0_18io_object_executorIS7_EESG_E5startERSE_RKSG_
FN:54,_ZN4asio6detail12handler_workINS0_17read_dynbuf_v1_opINS_19basic_stream_socketINS_2ip3tcpENS_8executorEEENS_19basic_streambuf_refISaIcEEENS0_18transfer_exactly_tEZN9SimpleWeb16SocketClientBaseIS7_E20read_message_contentERKSt10shared_ptrINSE_10ConnectionEEmEUlRKSt10error_codemE_EENS0_18io_object_executorIS6_EESQ_E5startERSO_RKSQ_
FN:54,_ZN4asio6detail12handler_workIZN9SimpleWeb12SocketClientINS_19basic_stream_socketINS_2ip3tcpENS_8executorEEEE7connectEvEUlRKSt10error_codeNS5_22basic_resolver_resultsIS6_EEE_NS0_18io_object_executorIS7_EESH_E5startERSF_RKSH_
FN:54,_ZN4asio6detail12handler_workINS0_17read_dynbuf_v1_opINS_19basic_stream_socketINS_2ip3tcpENS_8executorEEENS_19basic_streambuf_refISaIcEEENS0_18transfer_exactly_tEZZN9SimpleWeb16SocketClientBaseIS7_E12read_messageERKSt10shared_ptrINSE_10ConnectionEEmENKUlRKSt10error_codemE_clESM_mEUlSM_mE_EENS0_18io_object_executorIS6_EESR_E5startERSP_RKSR_
FN:54,_ZN4asio6detail12handler_workINS0_17read_dynbuf_v1_opINS_19basic_stream_socketINS_2ip3tcpENS_8executorEEENS_19basic_streambuf_refISaIcEEENS0_18transfer_exactly_tEZZN9SimpleWeb16SocketClientBaseIS7_E12read_messageERKSt10shared_ptrINSE_10ConnectionEEmENKUlRKSt10error_codemE_clESM_mEUlSM_mE0_EENS0_18io_object_executorIS6_EESR_E5startERSP_RKSR_
FN:54,_ZN4asio6detail12handler_workINS0_16range_connect_opINS_2ip3tcpENS_8executorENS3_22basic_resolver_resultsIS4_EENS0_25default_connect_conditionEZZN9SimpleWeb12SocketClientINS_19basic_stream_socketIS4_S5_EEE7connectEvENKUlRKSt10error_codeS7_E_clESG_S7_EUlSG_NS3_14basic_endpointIS4_EEE_EENS0_18io_object_executorIS5_EESN_E5startERSL_RKSN_
FN:54,_ZN4asio6detail12handler_workINS0_8write_opINS_19basic_stream_socketINS_2ip3tcpENS_8executorEEENS_15const_buffers_1EPKNS_12const_bufferENS0_14transfer_all_tENS0_18write_dynbuf_v1_opIS7_NS_19basic_streambuf_refISaIcEEESC_ZN9SimpleWeb16SocketClientBaseIS7_E7upgradeERKSt10shared_ptrINSJ_10ConnectionEEEUlRKSt10error_codemE_EEEENS0_18io_object_executorIS6_EESW_E5startERSU_RKSW_
FN:54,_ZN4asio6detail12handler_workINS0_29read_until_delim_string_op_v1INS_19basic_stream_socketINS_2ip3tcpENS_8executorEEENS_19basic_streambuf_refISaIcEEEZZN9SimpleWeb16SocketClientBaseIS7_E7upgradeERKSt10shared_ptrINSD_10ConnectionEEENKUlRKSt10error_codemE_clESL_mEUlSL_mE_EENS0_18io_object_executorIS6_EESQ_E5startERSO_RKSQ_
FN:62,_ZN4asio6detail12handler_workINS0_16range_connect_opINS_2ip3tcpENS_8executorENS3_22basic_resolver_resultsIS4_EENS0_25default_connect_conditionEZZN9SimpleWeb12SocketClientINS_19basic_stream_socketIS4_S5_EEE7connectEvENKUlRKSt10error_codeS7_E_clESG_S7_EUlSG_NS3_14basic_endpointIS4_EEE_EENS0_18io_object_executorIS5_EESN_ED2Ev
FN:62,_ZN4asio6detail12handler_workINS0_29read_until_delim_string_op_v1INS_19basic_stream_socketINS_2ip3tcpENS_8executorEEENS_19basic_streambuf_refISaIcEEEZZN9SimpleWeb16SocketClientBaseIS7_E7upgradeERKSt10shared_ptrINSD_10ConnectionEEENKUlRKSt10error_codemE_clESL_mEUlSL_mE_EENS0_18io_object_executorIS6_EESQ_ED2Ev
FN:62,_ZN4asio6detail12handler_workINS0_17read_dynbuf_v1_opINS_19basic_stream_socketINS_2ip3tcpENS_8executorEEENS_19basic_streambuf_refISaIcEEENS0_18transfer_exactly_tEZZN9SimpleWeb16SocketClientBaseIS7_E12read_messageERKSt10shared_ptrINSE_10ConnectionEEmENKUlRKSt10error_codemE_clESM_mEUlSM_mE0_EENS0_18io_object_executorIS6_EESR_ED2Ev
FN:62,_ZN4asio6detail12handler_workIZN9SimpleWeb16SocketClientBaseINS_19basic_stream_socketINS_2ip3tcpENS_8executorEEEE10Connection11set_timeoutElEUlRKSt10error_codeE_NS0_18io_object_executorIS7_EESG_ED2Ev
FN:62,_ZN4asio6detail12handler_workINS0_8write_opINS_19basic_stream_socketINS_2ip3tcpENS_8executorEEENS_15const_buffers_1EPKNS_12const_bufferENS0_14transfer_all_tENS0_18write_dynbuf_v1_opIS7_NS_19basic_streambuf_refISaIcEEESC_ZN9SimpleWeb16SocketClientBaseIS7_E7upgradeERKSt10shared_ptrINSJ_10ConnectionEEEUlRKSt10error_codemE_EEEENS0_18io_object_executorIS6_EESW_ED2Ev
FN:62,_ZN4asio6detail12handler_workIZN9SimpleWeb12SocketClientINS_19basic_stream_socketINS_2ip3tcpENS_8executorEEEE7connectEvEUlRKSt10error_codeNS5_22basic_resolver_resultsIS6_EEE_NS0_18io_object_executorIS7_EESH_ED2Ev
FN:62,_ZN4asio6detail12handler_workINS0_17read_dynbuf_v1_opINS_19basic_stream_socketINS_2ip3tcpENS_8executorEEENS_19basic_streambuf_refISaIcEEENS0_18transfer_exactly_tEZN9SimpleWeb16SocketClientBaseIS7_E12read_messageERKSt10shared_ptrINSE_10ConnectionEEmEUlRKSt10error_codemE_EENS0_18io_object_executorIS6_EESQ_ED2Ev
FN:62,_ZN4asio6detail12handler_workINS0_17read_dynbuf_v1_opINS_19basic_stream_socketINS_2ip3tcpENS_8executorEEENS_19basic_streambuf_refISaIcEEENS0_18transfer_exactly_tEZN9SimpleWeb16SocketClientBaseIS7_E20read_message_contentERKSt10shared_ptrINSE_10ConnectionEEmEUlRKSt10error_codemE_EENS0_18io_object_executorIS6_EESQ_ED2Ev
FN:62,_ZN4asio6detail12handler_workINS0_8write_opINS_19basic_stream_socketINS_2ip3tcpENS_8executorEEENS_15const_buffers_1EPKNS_12const_bufferENS0_14transfer_all_tENS0_18write_dynbuf_v1_opIS7_NS_19basic_streambuf_refISaIcEEESC_ZN9SimpleWeb16SocketClientBaseIS7_E10Connection15send_from_queueEvEUlRKSt10error_codemE_EEEENS0_18io_object_executorIS6_EESS_ED2Ev
FN:62,_ZN4asio6detail12handler_workINS0_17read_dynbuf_v1_opINS_19basic_stream_socketINS_2ip3tcpENS_8executorEEENS_19basic_streambuf_refISaIcEEENS0_18transfer_exactly_tEZZN9SimpleWeb16SocketClientBaseIS7_E12read_messageERKSt10shared_ptrINSE_10ConnectionEEmENKUlRKSt10error_codemE_clESM_mEUlSM_mE_EENS0_18io_object_executorIS6_EESR_ED2Ev
FN:69,_ZN4asio6detail12handler_workIZN9SimpleWeb12SocketClientINS_19basic_stream_socketINS_2ip3tcpENS_8executorEEEE7connectEvEUlRKSt10error_codeNS5_22basic_resolver_resultsIS6_EEE_NS0_18io_object_executorIS7_EESH_E8completeINS0_7binder2ISF_SA_SE_EEEEvRT_RSF_
FN:69,_ZN4asio6detail12handler_workINS0_17read_dynbuf_v1_opINS_19basic_stream_socketINS_2ip3tcpENS_8executorEEENS_19basic_streambuf_refISaIcEEENS0_18transfer_exactly_tEZZN9SimpleWeb16SocketClientBaseIS7_E12read_messageERKSt10shared_ptrINSE_10ConnectionEEmENKUlRKSt10error_codemE_clESM_mEUlSM_mE_EENS0_18io_object_executorIS6_EESR_E8completeINS0_7binder2ISP_SK_mEEEEvRT_RSP_
FN:69,_ZN4asio6detail12handler_workINS0_17read_dynbuf_v1_opINS_19basic_stream_socketINS_2ip3tcpENS_8executorEEENS_19basic_streambuf_refISaIcEEENS0_18transfer_exactly_tEZZN9SimpleWeb16SocketClientBaseIS7_E12read_messageERKSt10shared_ptrINSE_10ConnectionEEmENKUlRKSt10error_codemE_clESM_mEUlSM_mE0_EENS0_18io_object_executorIS6_EESR_E8completeINS0_7binder2ISP_SK_mEEEEvRT_RSP_
FN:69,_ZN4asio6detail12handler_workINS0_29read_until_delim_string_op_v1INS_19basic_stream_socketINS_2ip3tcpENS_8executorEEENS_19basic_streambuf_refISaIcEEEZZN9SimpleWeb16SocketClientBaseIS7_E7upgradeERKSt10shared_ptrINSD_10ConnectionEEENKUlRKSt10error_codemE_clESL_mEUlSL_mE_EENS0_18io_object_executorIS6_EESQ_E8completeINS0_7binder2ISO_SJ_mEEEEvRT_RSO_
FN:69,_ZN4asio6detail12handler_workINS0_8write_opINS_19basic_stream_socketINS_2ip3tcpENS_8executorEEENS_15const_buffers_1EPKNS_12const_bufferENS0_14transfer_all_tENS0_18write_dynbuf_v1_opIS7_NS_19basic_streambuf_refISaIcEEESC_ZN9SimpleWeb16SocketClientBaseIS7_E10Connection15send_from_queueEvEUlRKSt10error_codemE_EEEENS0_18io_object_executorIS6_EESS_E8completeINS0_7binder2ISQ_SL_mEEEEvRT_RSQ_
FN:69,_ZN4asio6detail12handler_workINS0_17read_dynbuf_v1_opINS_19basic_stream_socketINS_2ip3tcpENS_8executorEEENS_19basic_streambuf_refISaIcEEENS0_18transfer_exactly_tEZN9SimpleWeb16SocketClientBaseIS7_E12read_messageERKSt10shared_ptrINSE_10ConnectionEEmEUlRKSt10error_codemE_EENS0_18io_object_executorIS6_EESQ_E8completeINS0_7binder2ISO_SK_mEEEEvRT_RSO_
FN:69,_ZN4asio6detail12handler_workINS0_17read_dynbuf_v1_opINS_19basic_stream_socketINS_2ip3tcpENS_8executorEEENS_19basic_streambuf_refISaIcEEENS0_18transfer_exactly_tEZN9SimpleWeb16SocketClientBaseIS7_E20read_message_contentERKSt10shared_ptrINSE_10ConnectionEEmEUlRKSt10error_codemE_EENS0_18io_object_executorIS6_EESQ_E8completeINS0_7binder2ISO_SK_mEEEEvRT_RSO_
FN:69,_ZN4asio6detail12handler_workINS0_8write_opINS_19basic_stream_socketINS_2ip3tcpENS_8executorEEENS_15const_buffers_1EPKNS_12const_bufferENS0_14transfer_all_tENS0_18write_dynbuf_v1_opIS7_NS_19basic_streambuf_refISaIcEEESC_ZN9SimpleWeb16SocketClientBaseIS7_E7upgradeERKSt10shared_ptrINSJ_10ConnectionEEEUlRKSt10error_codemE_EEEENS0_18io_object_executorIS6_EESW_E8completeINS0_7binder2ISU_SP_mEEEEvRT_RSU_
FN:69,_ZN4asio6detail12handler_workINS0_16range_connect_opINS_2ip3tcpENS_8executorENS3_22basic_resolver_resultsIS4_EENS0_25default_connect_conditionEZZN9SimpleWeb12SocketClientINS_19basic_stream_socketIS4_S5_EEE7connectEvENKUlRKSt10error_codeS7_E_clESG_S7_EUlSG_NS3_14basic_endpointIS4_EEE_EENS0_18io_object_executorIS5_EESN_E8completeINS0_7binder1ISL_SE_EEEEvRT_RSL_
FN:69,_ZN4asio6detail12handler_workIZN9SimpleWeb16SocketClientBaseINS_19basic_stream_socketINS_2ip3tcpENS_8executorEEEE10Connection11set_timeoutElEUlRKSt10error_codeE_NS0_18io_object_executorIS7_EESG_E8completeINS0_7binder1ISE_SB_EEEEvRT_RSE_
FNDA:0,_ZN4asio6detail12handler_workINS0_8write_opINS_19basic_stream_socketINS_2ip3tcpENS_8executorEEENS_15const_buffers_1EPKNS_12const_bufferENS0_14transfer_all_tENS0_18write_dynbuf_v1_opIS7_NS_19basic_streambuf_refISaIcEEESC_ZN9SimpleWeb16SocketClientBaseIS7_E10Connection15send_from_queueEvEUlRKSt10error_codemE_EEEENS0_18io_object_executorIS6_EESS_EC2ERSQ_RKSS_
FNDA:0,_ZN4asio6detail12handler_workINS0_8write_opINS_19basic_stream_socketINS_2ip3tcpENS_8executorEEENS_15const_buffers_1EPKNS_12const_bufferENS0_14transfer_all_tENS0_18write_dynbuf_v1_opIS7_NS_19basic_streambuf_refISaIcEEESC_ZN9SimpleWeb16SocketClientBaseIS7_E7upgradeERKSt10shared_ptrINSJ_10ConnectionEEEUlRKSt10error_codemE_EEEENS0_18io_object_executorIS6_EESW_EC2ERSU_RKSW_
FNDA:0,_ZN4asio6detail12handler_workINS0_17read_dynbuf_v1_opINS_19basic_stream_socketINS_2ip3tcpENS_8executorEEENS_19basic_streambuf_refISaIcEEENS0_18transfer_exactly_tEZN9SimpleWeb16SocketClientBaseIS7_E20read_message_contentERKSt10shared_ptrINSE_10ConnectionEEmEUlRKSt10error_codemE_EENS0_18io_object_executorIS6_EESQ_EC2ERSO_RKSQ_
FNDA:0,_ZN4asio6detail12handler_workINS0_17read_dynbuf_v1_opINS_19basic_stream_socketINS_2ip3tcpENS_8executorEEENS_19basic_streambuf_refISaIcEEENS0_18transfer_exactly_tEZN9SimpleWeb16SocketClientBaseIS7_E12read_messageERKSt10shared_ptrINSE_10ConnectionEEmEUlRKSt10error_codemE_EENS0_18io_object_executorIS6_EESQ_EC2ERSO_RKSQ_
FNDA:0,_ZN4asio6detail12handler_workINS0_17read_dynbuf_v1_opINS_19basic_stream_socketINS_2ip3tcpENS_8executorEEENS_19basic_streambuf_refISaIcEEENS0_18transfer_exactly_tEZZN9SimpleWeb16SocketClientBaseIS7_E12read_messageERKSt10shared_ptrINSE_10ConnectionEEmENKUlRKSt10error_codemE_clESM_mEUlSM_mE0_EENS0_18io_object_executorIS6_EESR_EC2ERSP_RKSR_
FNDA:0,_ZN4asio6detail12handler_workINS0_17read_dynbuf_v1_opINS_19basic_stream_socketINS_2ip3tcpENS_8executorEEENS_19basic_streambuf_refISaIcEEENS0_18transfer_exactly_tEZZN9SimpleWeb16SocketClientBaseIS7_E12read_messageERKSt10shared_ptrINSE_10ConnectionEEmENKUlRKSt10error_codemE_clESM_mEUlSM_mE_EENS0_18io_object_executorIS6_EESR_EC2ERSP_RKSR_
FNDA:0,_ZN4asio6detail12handler_workINS0_29read_until_delim_string_op_v1INS_19basic_stream_socketINS_2ip3tcpENS_8executorEEENS_19basic_streambuf_refISaIcEEEZZN9SimpleWeb16SocketClientBaseIS7_E7upgradeERKSt10shared_ptrINSD_10ConnectionEEENKUlRKSt10error_codemE_clESL_mEUlSL_mE_EENS0_18io_object_executorIS6_EESQ_EC2ERSO_RKSQ_
FNDA:0,_ZN4asio6detail12handler_workINS0_16range_connect_opINS_2ip3tcpENS_8executorENS3_22basic_resolver_resultsIS4_EENS0_25default_connect_conditionEZZN9SimpleWeb12SocketClientINS_19basic_stream_socketIS4_S5_EEE7connectEvENKUlRKSt10error_codeS7_E_clESG_S7_EUlSG_NS3_14basic_endpointIS4_EEE_EENS0_18io_object_executorIS5_EESN_EC2ERSL_RKSN_
FNDA:0,_ZN4asio6detail12handler_workIZN9SimpleWeb12SocketClientINS_19basic_stream_socketINS_2ip3tcpENS_8executorEEEE7connectEvEUlRKSt10error_codeNS5_22basic_resolver_resultsIS6_EEE_NS0_18io_object_executorIS7_EESH_EC2ERSF_RKSH_
FNDA:0,_ZN4asio6detail12handler_workIZN9SimpleWeb16SocketClientBaseINS_19basic_stream_socketINS_2ip3tcpENS_8executorEEEE10Connection11set_timeoutElEUlRKSt10error_codeE_NS0_18io_object_executorIS7_EESG_EC2ERSE_RKSG_
FNDA:0,_ZN4asio6detail12handler_workINS0_8write_opINS_19basic_stream_socketINS_2ip3tcpENS_8executorEEENS_15const_buffers_1EPKNS_12const_bufferENS0_14transfer_all_tENS0_18write_dynbuf_v1_opIS7_NS_19basic_streambuf_refISaIcEEESC_ZN9SimpleWeb16SocketClientBaseIS7_E10Connection15send_from_queueEvEUlRKSt10error_codemE_EEEENS0_18io_object_executorIS6_EESS_E5startERSQ_RKSS_
FNDA:0,_ZN4asio6detail12handler_workINS0_8write_opINS_19basic_stream_socketINS_2ip3tcpENS_8executorEEENS_15const_buffers_1EPKNS_12const_bufferENS0_14transfer_all_tENS0_18write_dynbuf_v1_opIS7_NS_19basic_streambuf_refISaIcEEESC_ZN9SimpleWeb16SocketClientBaseIS7_E7upgradeERKSt10shared_ptrINSJ_10ConnectionEEEUlRKSt10error_codemE_EEEENS0_18io_object_executorIS6_EESW_E5startERSU_RKSW_
FNDA:0,_ZN4asio6detail12handler_workINS0_17read_dynbuf_v1_opINS_19basic_stream_socketINS_2ip3tcpENS_8executorEEENS_19basic_streambuf_refISaIcEEENS0_18transfer_exactly_tEZN9SimpleWeb16SocketClientBaseIS7_E20read_message_contentERKSt10shared_ptrINSE_10ConnectionEEmEUlRKSt10error_codemE_EENS0_18io_object_executorIS6_EESQ_E5startERSO_RKSQ_
FNDA:0,_ZN4asio6detail12handler_workINS0_17read_dynbuf_v1_opINS_19basic_stream_socketINS_2ip3tcpENS_8executorEEENS_19basic_streambuf_refISaIcEEENS0_18transfer_exactly_tEZN9SimpleWeb16SocketClientBaseIS7_E12read_messageERKSt10shared_ptrINSE_10ConnectionEEmEUlRKSt10error_codemE_EENS0_18io_object_executorIS6_EESQ_E5startERSO_RKSQ_
FNDA:0,_ZN4asio6detail12handler_workINS0_17read_dynbuf_v1_opINS_19basic_stream_socketINS_2ip3tcpENS_8executorEEENS_19basic_streambuf_refISaIcEEENS0_18transfer_exactly_tEZZN9SimpleWeb16SocketClientBaseIS7_E12read_messageERKSt10shared_ptrINSE_10ConnectionEEmENKUlRKSt10error_codemE_clESM_mEUlSM_mE0_EENS0_18io_object_executorIS6_EESR_E5startERSP_RKSR_
FNDA:0,_ZN4asio6detail12handler_workINS0_17read_dynbuf_v1_opINS_19basic_stream_socketINS_2ip3tcpENS_8executorEEENS_19basic_streambuf_refISaIcEEENS0_18transfer_exactly_tEZZN9SimpleWeb16SocketClientBaseIS7_E12read_messageERKSt10shared_ptrINSE_10ConnectionEEmENKUlRKSt10error_codemE_clESM_mEUlSM_mE_EENS0_18io_object_executorIS6_EESR_E5startERSP_RKSR_
FNDA:0,_ZN4asio6detail12handler_workINS0_29read_until_delim_string_op_v1INS_19basic_stream_socketINS_2ip3tcpENS_8executorEEENS_19basic_streambuf_refISaIcEEEZZN9SimpleWeb16SocketClientBaseIS7_E7upgradeERKSt10shared_ptrINSD_10ConnectionEEENKUlRKSt10error_codemE_clESL_mEUlSL_mE_EENS0_18io_object_executorIS6_EESQ_E5startERSO_RKSQ_
FNDA:0,_ZN4asio6detail12handler_workINS0_16range_connect_opINS_2ip3tcpENS_8executorENS3_22basic_resolver_resultsIS4_EENS0_25default_connect_conditionEZZN9SimpleWeb12SocketClientINS_19basic_stream_socketIS4_S5_EEE7connectEvENKUlRKSt10error_codeS7_E_clESG_S7_EUlSG_NS3_14basic_endpointIS4_EEE_EENS0_18io_object_executorIS5_EESN_E5startERSL_RKSN_
FNDA:0,_ZN4asio6detail12handler_workIZN9SimpleWeb12SocketClientINS_19basic_stream_socketINS_2ip3tcpENS_8executorEEEE7connectEvEUlRKSt10error_codeNS5_22basic_resolver_resultsIS6_EEE_NS0_18io_object_executorIS7_EESH_E5startERSF_RKSH_
FNDA:0,_ZN4asio6detail12handler_workIZN9SimpleWeb16SocketClientBaseINS_19basic_stream_socketINS_2ip3tcpENS_8executorEEEE10Connection11set_timeoutElEUlRKSt10error_codeE_NS0_18io_object_executorIS7_EESG_E5startERSE_RKSG_
FNDA:0,_ZN4asio6detail12handler_workINS0_8write_opINS_19basic_stream_socketINS_2ip3tcpENS_8executorEEENS_15const_buffers_1EPKNS_12const_bufferENS0_14transfer_all_tENS0_18write_dynbuf_v1_opIS7_NS_19basic_streambuf_refISaIcEEESC_ZN9SimpleWeb16SocketClientBaseIS7_E10Connection15send_from_queueEvEUlRKSt10error_codemE_EEEENS0_18io_object_executorIS6_EESS_ED2Ev
FNDA:0,_ZN4asio6detail12handler_workINS0_8write_opINS_19basic_stream_socketINS_2ip3tcpENS_8executorEEENS_15const_buffers_1EPKNS_12const_bufferENS0_14transfer_all_tENS0_18write_dynbuf_v1_opIS7_NS_19basic_streambuf_refISaIcEEESC_ZN9SimpleWeb16SocketClientBaseIS7_E7upgradeERKSt10shared_ptrINSJ_10ConnectionEEEUlRKSt10error_codemE_EEEENS0_18io_object_executorIS6_EESW_ED2Ev
FNDA:0,_ZN4asio6detail12handler_workINS0_17read_dynbuf_v1_opINS_19basic_stream_socketINS_2ip3tcpENS_8executorEEENS_19basic_streambuf_refISaIcEEENS0_18transfer_exactly_tEZN9SimpleWeb16SocketClientBaseIS7_E20read_message_contentERKSt10shared_ptrINSE_10ConnectionEEmEUlRKSt10error_codemE_EENS0_18io_object_executorIS6_EESQ_ED2Ev
FNDA:0,_ZN4asio6detail12handler_workINS0_17read_dynbuf_v1_opINS_19basic_stream_socketINS_2ip3tcpENS_8executorEEENS_19basic_streambuf_refISaIcEEENS0_18transfer_exactly_tEZN9SimpleWeb16SocketClientBaseIS7_E12read_messageERKSt10shared_ptrINSE_10ConnectionEEmEUlRKSt10error_codemE_EENS0_18io_object_executorIS6_EESQ_ED2Ev
FNDA:0,_ZN4asio6detail12handler_workINS0_17read_dynbuf_v1_opINS_19basic_stream_socketINS_2ip3tcpENS_8executorEEENS_19basic_streambuf_refISaIcEEENS0_18transfer_exactly_tEZZN9SimpleWeb16SocketClientBaseIS7_E12read_messageERKSt10shared_ptrINSE_10ConnectionEEmENKUlRKSt10error_codemE_clESM_mEUlSM_mE0_EENS0_18io_object_executorIS6_EESR_ED2Ev
FNDA:0,_ZN4asio6detail12handler_workINS0_17read_dynbuf_v1_opINS_19basic_stream_socketINS_2ip3tcpENS_8executorEEENS_19basic_streambuf_refISaIcEEENS0_18transfer_exactly_tEZZN9SimpleWeb16SocketClientBaseIS7_E12read_messageERKSt10shared_ptrINSE_10ConnectionEEmENKUlRKSt10error_codemE_clESM_mEUlSM_mE_EENS0_18io_object_executorIS6_EESR_ED2Ev
FNDA:0,_ZN4asio6detail12handler_workINS0_29read_until_delim_string_op_v1INS_19basic_stream_socketINS_2ip3tcpENS_8executorEEENS_19basic_streambuf_refISaIcEEEZZN9SimpleWeb16SocketClientBaseIS7_E7upgradeERKSt10shared_ptrINSD_10ConnectionEEENKUlRKSt10error_codemE_clESL_mEUlSL_mE_EENS0_18io_object_executorIS6_EESQ_ED2Ev
FNDA:0,_ZN4asio6detail12handler_workINS0_16range_connect_opINS_2ip3tcpENS_8executorENS3_22basic_resolver_resultsIS4_EENS0_25default_connect_conditionEZZN9SimpleWeb12SocketClientINS_19basic_stream_socketIS4_S5_EEE7connectEvENKUlRKSt10error_codeS7_E_clESG_S7_EUlSG_NS3_14basic_endpointIS4_EEE_EENS0_18io_object_executorIS5_EESN_ED2Ev
FNDA:0,_ZN4asio6detail12handler_workIZN9SimpleWeb12SocketClientINS_19basic_stream_socketINS_2ip3tcpENS_8executorEEEE7connectEvEUlRKSt10error_codeNS5_22basic_resolver_resultsIS6_EEE_NS0_18io_object_executorIS7_EESH_ED2Ev
FNDA:0,_ZN4asio6detail12handler_workIZN9SimpleWeb16SocketClientBaseINS_19basic_stream_socketINS_2ip3tcpENS_8executorEEEE10Connection11set_timeoutElEUlRKSt10error_codeE_NS0_18io_object_executorIS7_EESG_ED2Ev
FNDA:0,_ZN4asio6detail12handler_workINS0_8write_opINS_19basic_stream_socketINS_2ip3tcpENS_8executorEEENS_15const_buffers_1EPKNS_12const_bufferENS0_14transfer_all_tENS0_18write_dynbuf_v1_opIS7_NS_19basic_streambuf_refISaIcEEESC_ZN9SimpleWeb16SocketClientBaseIS7_E10Connection15send_from_queueEvEUlRKSt10error_codemE_EEEENS0_18io_object_executorIS6_EESS_E8completeINS0_7binder2ISQ_SL_mEEEEvRT_RSQ_
FNDA:0,_ZN4asio6detail12handler_workINS0_8write_opINS_19basic_stream_socketINS_2ip3tcpENS_8executorEEENS_15const_buffers_1EPKNS_12const_bufferENS0_14transfer_all_tENS0_18write_dynbuf_v1_opIS7_NS_19basic_streambuf_refISaIcEEESC_ZN9SimpleWeb16SocketClientBaseIS7_E7upgradeERKSt10shared_ptrINSJ_10ConnectionEEEUlRKSt10error_codemE_EEEENS0_18io_object_executorIS6_EESW_E8completeINS0_7binder2ISU_SP_mEEEEvRT_RSU_
FNDA:0,_ZN4asio6detail12handler_workINS0_17read_dynbuf_v1_opINS_19basic_stream_socketINS_2ip3tcpENS_8executorEEENS_19basic_streambuf_refISaIcEEENS0_18transfer_exactly_tEZN9SimpleWeb16SocketClientBaseIS7_E20read_message_contentERKSt10shared_ptrINSE_10ConnectionEEmEUlRKSt10error_codemE_EENS0_18io_object_executorIS6_EESQ_E8completeINS0_7binder2ISO_SK_mEEEEvRT_RSO_
FNDA:0,_ZN4asio6detail12handler_workINS0_17read_dynbuf_v1_opINS_19basic_stream_socketINS_2ip3tcpENS_8executorEEENS_19basic_streambuf_refISaIcEEENS0_18transfer_exactly_tEZN9SimpleWeb16SocketClientBaseIS7_E12read_messageERKSt10shared_ptrINSE_10ConnectionEEmEUlRKSt10error_codemE_EENS0_18io_object_executorIS6_EESQ_E8completeINS0_7binder2ISO_SK_mEEEEvRT_RSO_
FNDA:0,_ZN4asio6detail12handler_workINS0_17read_dynbuf_v1_opINS_19basic_stream_socketINS_2ip3tcpENS_8executorEEENS_19basic_streambuf_refISaIcEEENS0_18transfer_exactly_tEZZN9SimpleWeb16SocketClientBaseIS7_E12read_messageERKSt10shared_ptrINSE_10ConnectionEEmENKUlRKSt10error_codemE_clESM_mEUlSM_mE0_EENS0_18io_object_executorIS6_EESR_E8completeINS0_7binder2ISP_SK_mEEEEvRT_RSP_
FNDA:0,_ZN4asio6detail12handler_workINS0_17read_dynbuf_v1_opINS_19basic_stream_socketINS_2ip3tcpENS_8executorEEENS_19basic_streambuf_refISaIcEEENS0_18transfer_exactly_tEZZN9SimpleWeb16SocketClientBaseIS7_E12read_messageERKSt10shared_ptrINSE_10ConnectionEEmENKUlRKSt10error_codemE_clESM_mEUlSM_mE_EENS0_18io_object_executorIS6_EESR_E8completeINS0_7binder2ISP_SK_mEEEEvRT_RSP_
FNDA:0,_ZN4asio6detail12handler_workINS0_29read_until_delim_string_op_v1INS_19basic_stream_socketINS_2ip3tcpENS_8executorEEENS_19basic_streambuf_refISaIcEEEZZN9SimpleWeb16SocketClientBaseIS7_E7upgradeERKSt10shared_ptrINSD_10ConnectionEEENKUlRKSt10error_codemE_clESL_mEUlSL_mE_EENS0_18io_object_executorIS6_EESQ_E8completeINS0_7binder2ISO_SJ_mEEEEvRT_RSO_
FNDA:0,_ZN4asio6detail12handler_workINS0_16range_connect_opINS_2ip3tcpENS_8executorENS3_22basic_resolver_resultsIS4_EENS0_25default_connect_conditionEZZN9SimpleWeb12SocketClientINS_19basic_stream_socketIS4_S5_EEE7connectEvENKUlRKSt10error_codeS7_E_clESG_S7_EUlSG_NS3_14basic_endpointIS4_EEE_EENS0_18io_object_executorIS5_EESN_E8completeINS0_7binder1ISL_SE_EEEEvRT_RSL_
FNDA:0,_ZN4asio6detail12handler_workIZN9SimpleWeb12SocketClientINS_19basic_stream_socketINS_2ip3tcpENS_8executorEEEE7connectEvEUlRKSt10error_codeNS5_22basic_resolver_resultsIS6_EEE_NS0_18io_object_executorIS7_EESH_E8completeINS0_7binder2ISF_SA_SE_EEEEvRT_RSF_
FNDA:0,_ZN4asio6detail12handler_workIZN9SimpleWeb16SocketClientBaseINS_19basic_stream_socketINS_2ip3tcpENS_8executorEEEE10Connection11set_timeoutElEUlRKSt10error_codeE_NS0_18io_object_executorIS7_EESG_E8completeINS0_7binder1ISE_SB_EEEEvRT_RSE_
FNF:40
FNH:0
DA:42,0
DA:44,0
DA:46,0
DA:54,0
DA:57,0
DA:58,0
DA:59,0
DA:60,0
DA:62,0
DA:64,0
DA:65,0
DA:66,0
DA:69,0
DA:71,0
DA:72,0
DA:73,0
LF:16
LH:0
end_of_record
SF:/home/tistrauss/.conan/data/asio/1.13.0/_/_/package/5ab84d6acfe1f23c4fae0ab88f26e3a396351ac9/include/asio/detail/impl/epoll_reactor.hpp
FN:26,_ZN4asio6detail13epoll_reactor15add_timer_queueINS0_18chrono_time_traitsINSt6chrono3_V212steady_clockENS_11wait_traitsIS6_EEEEEEvRNS0_11timer_queueIT_EE
FN:32,_ZN4asio6detail13epoll_reactor18remove_timer_queueINS0_18chrono_time_traitsINSt6chrono3_V212steady_clockENS_11wait_traitsIS6_EEEEEEvRNS0_11timer_queueIT_EE
FN:38,_ZN4asio6detail13epoll_reactor14schedule_timerINS0_18chrono_time_traitsINSt6chrono3_V212steady_clockENS_11wait_traitsIS6_EEEEEEvRNS0_11timer_queueIT_EERKNSB_9time_typeERNSC_14per_timer_dataEPNS0_7wait_opE
FN:57,_ZN4asio6detail13epoll_reactor12cancel_timerINS0_18chrono_time_traitsINSt6chrono3_V212steady_clockENS_11wait_traitsIS6_EEEEEEmRNS0_11timer_queueIT_EERNSC_14per_timer_dataEm
FNDA:0,_ZN4asio6detail13epoll_reactor15add_timer_queueINS0_18chrono_time_traitsINSt6chrono3_V212steady_clockENS_11wait_traitsIS6_EEEEEEvRNS0_11timer_queueIT_EE
FNDA:0,_ZN4asio6detail13epoll_reactor18remove_timer_queueINS0_18chrono_time_traitsINSt6chrono3_V212steady_clockENS_11wait_traitsIS6_EEEEEEvRNS0_11timer_queueIT_EE
FNDA:0,_ZN4asio6detail13epoll_reactor14schedule_timerINS0_18chrono_time_traitsINSt6chrono3_V212steady_clockENS_11wait_traitsIS6_EEEEEEvRNS0_11timer_queueIT_EERKNSB_9time_typeERNSC_14per_timer_dataEPNS0_7wait_opE
FNDA:0,_ZN4asio6detail13epoll_reactor12cancel_timerINS0_18chrono_time_traitsINSt6chrono3_V212steady_clockENS_11wait_traitsIS6_EEEEEEmRNS0_11timer_queueIT_EERNSC_14per_timer_dataEm
FNF:4
FNH:0
DA:26,0
DA:28,0
DA:29,0
DA:32,0
DA:34,0
DA:35,0
DA:38,0
DA:42,0
DA:44,0
DA:46,0
DA:47,0
DA:50,0
DA:51,0
DA:52,0
DA:53,0
DA:57,0
DA:61,0
DA:62,0
DA:63,0
DA:64,0
DA:65,0
DA:66,0
LF:22
LH:0
end_of_record
SF:/home/tistrauss/.conan/data/asio/1.13.0/_/_/package/5ab84d6acfe1f23c4fae0ab88f26e3a396351ac9/include/asio/detail/impl/epoll_reactor.ipp
FN:37,_ZN4asio6detail13epoll_reactorC2ERNS_17execution_contextE
FN:64,_ZN4asio6detail13epoll_reactorD0Ev
FN:64,_ZN4asio6detail13epoll_reactorD2Ev
FN:72,_ZN4asio6detail13epoll_reactor8shutdownEv
FN:93,_ZN4asio6detail13epoll_reactor11notify_forkENS_17execution_context10fork_eventE
FN:145,_ZN4asio6detail13epoll_reactor9init_taskEv
FN:150,_ZN4asio6detail13epoll_reactor19register_descriptorEiRPNS1_16descriptor_stateE
FN:231,_ZN4asio6detail13epoll_reactor8start_opEiiRPNS1_16descriptor_stateEPNS0_10reactor_opEbb
FN:321,_ZN4asio6detail13epoll_reactor10cancel_opsEiRPNS1_16descriptor_stateE
FN:345,_ZN4asio6detail13epoll_reactor21deregister_descriptorEiRPNS1_16descriptor_stateEb
FN:436,_ZN4asio6detail13epoll_reactor23cleanup_descriptor_dataERPNS1_16descriptor_stateE
FN:446,_ZN4asio6detail13epoll_reactor3runElRNS0_8op_queueINS0_19scheduler_operationEEE
FN:567,_ZN4asio6detail13epoll_reactor9interruptEv
FN:575,_ZN4asio6detail13epoll_reactor15do_epoll_createEv
FN:601,_ZN4asio6detail13epoll_reactor17do_timerfd_createEv
FN:624,_ZN4asio6detail13epoll_reactor25allocate_descriptor_stateEv
FN:631,_ZN4asio6detail13epoll_reactor21free_descriptor_stateEPNS1_16descriptor_stateE
FN:637,_ZN4asio6detail13epoll_reactor18do_add_timer_queueERNS0_16timer_queue_baseE
FN:643,_ZN4asio6detail13epoll_reactor21do_remove_timer_queueERNS0_16timer_queue_baseE
FN:649,_ZN4asio6detail13epoll_reactor14update_timeoutEv
FN:664,_ZN4asio6detail13epoll_reactor11get_timeoutEi
FN:674,_ZN4asio6detail13epoll_reactor11get_timeoutER10itimerspec
FN:689,_ZN4asio6detail13epoll_reactor32perform_io_cleanup_on_block_exitC2EPS1_
FN:694,_ZN4asio6detail13epoll_reactor32perform_io_cleanup_on_block_exitD2Ev
FN:720,_ZN4asio6detail13epoll_reactor16descriptor_stateC2Eb
FN:726,_ZN4asio6detail13epoll_reactor16descriptor_state10perform_ioEj
FN:765,_ZN4asio6detail13epoll_reactor16descriptor_state11do_completeEPvPNS0_19scheduler_operationERKSt10error_codem
FNDA:0,_ZN4asio6detail13epoll_reactorC2ERNS_17execution_contextE
FNDA:0,_ZN4asio6detail13epoll_reactorD0Ev
FNDA:0,_ZN4asio6detail13epoll_reactorD2Ev
FNDA:0,_ZN4asio6detail13epoll_reactor8shutdownEv
FNDA:0,_ZN4asio6detail13epoll_reactor11notify_forkENS_17execution_context10fork_eventE
FNDA:0,_ZN4asio6detail13epoll_reactor9init_taskEv
FNDA:0,_ZN4asio6detail13epoll_reactor19register_descriptorEiRPNS1_16descriptor_stateE
FNDA:0,_ZN4asio6detail13epoll_reactor8start_opEiiRPNS1_16descriptor_stateEPNS0_10reactor_opEbb
FNDA:0,_ZN4asio6detail13epoll_reactor10cancel_opsEiRPNS1_16descriptor_stateE
FNDA:0,_ZN4asio6detail13epoll_reactor21deregister_descriptorEiRPNS1_16descriptor_stateEb
FNDA:0,_ZN4asio6detail13epoll_reactor23cleanup_descriptor_dataERPNS1_16descriptor_stateE
FNDA:0,_ZN4asio6detail13epoll_reactor3runElRNS0_8op_queueINS0_19scheduler_operationEEE
FNDA:0,_ZN4asio6detail13epoll_reactor9interruptEv
FNDA:0,_ZN4asio6detail13epoll_reactor15do_epoll_createEv
FNDA:0,_ZN4asio6detail13epoll_reactor17do_timerfd_createEv
FNDA:0,_ZN4asio6detail13epoll_reactor25allocate_descriptor_stateEv
FNDA:0,_ZN4asio6detail13epoll_reactor21free_descriptor_stateEPNS1_16descriptor_stateE
FNDA:0,_ZN4asio6detail13epoll_reactor18do_add_timer_queueERNS0_16timer_queue_baseE
FNDA:0,_ZN4asio6detail13epoll_reactor21do_remove_timer_queueERNS0_16timer_queue_baseE
FNDA:0,_ZN4asio6detail13epoll_reactor14update_timeoutEv
FNDA:0,_ZN4asio6detail13epoll_reactor11get_timeoutEi
FNDA:0,_ZN4asio6detail13epoll_reactor11get_timeoutER10itimerspec
FNDA:0,_ZN4asio6detail13epoll_reactor32perform_io_cleanup_on_block_exitC2EPS1_
FNDA:0,_ZN4asio6detail13epoll_reactor32perform_io_cleanup_on_block_exitD2Ev
FNDA:0,_ZN4asio6detail13epoll_reactor16descriptor_stateC2Eb
FNDA:0,_ZN4asio6detail13epoll_reactor16descriptor_state10perform_ioEj
FNDA:0,_ZN4asio6detail13epoll_reactor16descriptor_state11do_completeEPvPNS0_19scheduler_operationERKSt10error_codem
FNF:27
FNH:0
DA:37,0
DA:39,0
DA:40,0
DA:43,0
DA:44,0
DA:46,0
DA:49,0
DA:50,0
DA:51,0
DA:52,0
DA:53,0
DA:56,0
DA:58,0
DA:59,0
DA:60,0
DA:62,0
DA:64,0
DA:66,0
DA:67,0
DA:68,0
DA:69,0
DA:70,0
DA:72,0
DA:74,0
DA:75,0
DA:76,0
DA:78,0
DA:80,0
DA:82,0
DA:83,0
DA:84,0
DA:85,0
DA:86,0
DA:88,0
DA:90,0
DA:91,0
DA:93,0
DA:96,0
DA:98,0
DA:99,0
DA:100,0
DA:101,0
DA:103,0
DA:104,0
DA:105,0
DA:106,0
DA:108,0
DA:111,0
DA:112,0
DA:113,0
DA:114,0
DA:115,0
DA:118,0
DA:120,0
DA:121,0
DA:122,0
DA:125,0
DA:128,0
DA:129,0
DA:130,0
DA:132,0
DA:133,0
DA:134,0
DA:135,0
DA:137,0
DA:138,0
DA:139,0
DA:143,0
DA:145,0
DA:147,0
DA:148,0
DA:150,0
DA:153,0
DA:160,0
DA:162,0
DA:163,0
DA:164,0
DA:165,0
DA:166,0
DA:169,0
DA:170,0
DA:171,0
DA:172,0
DA:173,0
DA:174,0
DA:176,0
DA:182,0
DA:183,0
DA:185,0
DA:188,0
DA:231,0
DA:235,0
DA:237,0
DA:238,0
DA:239,0
DA:242,0
DA:244,0
DA:246,0
DA:247,0
DA:250,0
DA:252,0
DA:253,0
DA:254,0
DA:256,0
DA:258,0
DA:260,0
DA:261,0
DA:262,0
DA:263,0
DA:264,0
DA:265,0
DA:269,0
DA:271,0
DA:272,0
DA:273,0
DA:276,0
DA:278,0
DA:280,0
DA:281,0
DA:282,0
DA:283,0
DA:285,0
DA:289,0
DA:290,0
DA:291,0
DA:292,0
DA:297,0
DA:299,0
DA:300,0
DA:301,0
DA:305,0
DA:307,0
DA:310,0
DA:311,0
DA:312,0
DA:313,0
DA:317,0
DA:318,0
DA:321,0
DA:324,0
DA:325,0
DA:327,0
DA:329,0
DA:330,0
DA:332,0
DA:334,0
DA:335,0
DA:336,0
DA:337,0
DA:340,0
DA:342,0
DA:345,0
DA:348,0
DA:349,0
DA:351,0
DA:353,0
DA:355,0
DA:360,0
DA:362,0
DA:363,0
DA:366,0
DA:367,0
DA:369,0
DA:371,0
DA:372,0
DA:373,0
DA:374,0
DA:377,0
DA:378,0
DA:380,0
DA:386,0
DA:395,0
DA:436,0
DA:439,0
DA:441,0
DA:442,0
DA:444,0
DA:446,0
DA:456,0
DA:457,0
DA:460,0
DA:461,0
DA:463,0
DA:464,0
DA:470,0
DA:503,0
DA:509,0
DA:511,0
DA:512,0
DA:520,0
DA:521,0
DA:527,0
DA:529,0
DA:537,0
DA:538,0
DA:540,0
DA:541,0
DA:545,0
DA:550,0
DA:552,0
DA:553,0
DA:556,0
DA:560,0
DA:561,0
DA:565,0
DA:567,0
DA:569,0
DA:570,0
DA:571,0
DA:572,0
DA:573,0
DA:575,0
DA:578,0
DA:584,0
DA:586,0
DA:587,0
DA:588,0
DA:591,0
DA:593,0
DA:594,0
DA:595,0
DA:598,0
DA:601,0
DA:605,0
DA:611,0
DA:613,0
DA:614,0
DA:615,0
DA:618,0
DA:624,0
DA:626,0
DA:627,0
DA:628,0
DA:631,0
DA:633,0
DA:634,0
DA:635,0
DA:637,0
DA:639,0
DA:640,0
DA:641,0
DA:643,0
DA:645,0
DA:646,0
DA:647,0
DA:649,0
DA:652,0
DA:656,0
DA:657,0
DA:658,0
DA:661,0
DA:664,0
DA:668,0
DA:669,0
DA:670,0
DA:674,0
DA:676,0
DA:677,0
DA:679,0
DA:680,0
DA:681,0
DA:683,0
DA:689,0
DA:690,0
DA:692,0
DA:694,0
DA:695,0
DA:696,0
DA:699,0
DA:700,0
DA:711,0
DA:713,0
DA:720,0
DA:722,0
DA:724,0
DA:726,0
DA:728,0
DA:729,0
DA:730,0
DA:735,0
DA:737,0
DA:739,0
DA:740,0
DA:742,0
DA:744,0
DA:745,0
DA:746,0
DA:748,0
DA:749,0
DA:753,0
DA:754,0
DA:760,0
DA:761,0
DA:762,0
DA:765,0
DA:769,0
DA:771,0
DA:772,0
DA:773,0
DA:775,0
DA:778,0
LF:301
LH:0
end_of_record
SF:/home/tistrauss/.conan/data/asio/1.13.0/_/_/package/5ab84d6acfe1f23c4fae0ab88f26e3a396351ac9/include/asio/detail/impl/eventfd_select_interrupter.ipp
FN:41,_ZN4asio6detail26eventfd_select_interrupterC2Ev
FN:46,_ZN4asio6detail26eventfd_select_interrupter16open_descriptorsEv
FN:95,_ZN4asio6detail26eventfd_select_interrupterD2Ev
FN:100,_ZN4asio6detail26eventfd_select_interrupter17close_descriptorsEv
FN:108,_ZN4asio6detail26eventfd_select_interrupter8recreateEv
FN:118,_ZN4asio6detail26eventfd_select_interrupter9interruptEv
FNDA:0,_ZN4asio6detail26eventfd_select_interrupterC2Ev
FNDA:0,_ZN4asio6detail26eventfd_select_interrupter16open_descriptorsEv
FNDA:0,_ZN4asio6detail26eventfd_select_interrupterD2Ev
FNDA:0,_ZN4asio6detail26eventfd_select_interrupter17close_descriptorsEv
FNDA:0,_ZN4asio6detail26eventfd_select_interrupter8recreateEv
FNDA:0,_ZN4asio6detail26eventfd_select_interrupter9interruptEv
FNF:6
FNH:0
DA:41,0
DA:43,0
DA:44,0
DA:46,0
DA:57,0
DA:58,0
DA:63,0
DA:65,0
DA:66,0
DA:68,0
DA:69,0
DA:74,0
DA:77,0
DA:79,0
DA:80,0
DA:81,0
DA:82,0
DA:83,0
DA:84,0
DA:88,0
DA:89,0
DA:90,0
DA:93,0
DA:95,0
DA:97,0
DA:98,0
DA:100,0
DA:102,0
DA:103,0
DA:104,0
DA:105,0
DA:106,0
DA:108,0
DA:110,0
DA:112,0
DA:113,0
DA:115,0
DA:116,0
DA:118,0
DA:120,0
DA:121,0
DA:123,0
LF:42
LH:0
end_of_record
SF:/home/tistrauss/.conan/data/asio/1.13.0/_/_/package/5ab84d6acfe1f23c4fae0ab88f26e3a396351ac9/include/asio/detail/impl/null_event.ipp
FN:39,_ZN4asio6detail10null_event7do_waitEv
FNDA:0,_ZN4asio6detail10null_event7do_waitEv
FNF:1
FNH:0
DA:39,0
DA:46,0
DA:48,0
LF:3
LH:0
end_of_record
SF:/home/tistrauss/.conan/data/asio/1.13.0/_/_/package/5ab84d6acfe1f23c4fae0ab88f26e3a396351ac9/include/asio/detail/impl/posix_event.ipp
FN:31,_ZN4asio6detail11posix_eventC2Ev
FNDA:0,_ZN4asio6detail11posix_eventC2Ev
FNF:1
FNH:0
DA:31,0
DA:32,0
DA:40,0
DA:41,0
DA:42,0
DA:43,0
DA:48,0
DA:49,0
DA:50,0
LF:9
LH:0
end_of_record
SF:/home/tistrauss/.conan/data/asio/1.13.0/_/_/package/5ab84d6acfe1f23c4fae0ab88f26e3a396351ac9/include/asio/detail/impl/posix_mutex.ipp
FN:31,_ZN4asio6detail11posix_mutexC2Ev
FNDA:0,_ZN4asio6detail11posix_mutexC2Ev
FNF:1
FNH:0
DA:31,0
DA:33,0
DA:35,0
DA:36,0
DA:37,0
LF:5
LH:0
end_of_record
SF:/home/tistrauss/.conan/data/asio/1.13.0/_/_/package/5ab84d6acfe1f23c4fae0ab88f26e3a396351ac9/include/asio/detail/impl/posix_thread.ipp
FN:31,_ZN4asio6detail12posix_threadD2Ev
FN:37,_ZN4asio6detail12posix_thread4joinEv
FN:56,_ZN4asio6detail12posix_thread12start_threadEPNS1_9func_baseE
FN:69,asio_detail_posix_thread_function
FNDA:0,_ZN4asio6detail12posix_threadD2Ev
FNDA:0,_ZN4asio6detail12posix_thread4joinEv
FNDA:0,_ZN4asio6detail12posix_thread12start_threadEPNS1_9func_baseE
FNDA:0,asio_detail_posix_thread_function
FNF:4
FNH:0
DA:31,0
DA:33,0
DA:34,0
DA:35,0
DA:37,0
DA:39,0
DA:41,0
DA:42,0
DA:44,0
DA:56,0
DA:58,0
DA:59,0
DA:60,0
DA:62,0
DA:64,0
DA:65,0
DA:67,0
DA:69,0
DA:72,0
DA:73,0
DA:74,0
LF:21
LH:0
end_of_record
SF:/home/tistrauss/.conan/data/asio/1.13.0/_/_/package/5ab84d6acfe1f23c4fae0ab88f26e3a396351ac9/include/asio/detail/impl/reactive_socket_service_base.ipp
FN:30,_ZN4asio6detail28reactive_socket_service_baseC2ERNS_17execution_contextE
FN:37,_ZN4asio6detail28reactive_socket_service_base13base_shutdownEv
FN:41,_ZN4asio6detail28reactive_socket_service_base9constructERNS1_24base_implementation_typeE
FN:79,_ZN4asio6detail28reactive_socket_service_base7destroyERNS1_24base_implementation_typeE
FN:97,_ZN4asio6detail28reactive_socket_service_base5closeERNS1_24base_implementation_typeERSt10error_code
FN:152,_ZN4asio6detail28reactive_socket_service_base6cancelERNS1_24base_implementation_typeERSt10error_code
FN:170,_ZN4asio6detail28reactive_socket_service_base7do_openERNS1_24base_implementation_typeEiiiRSt10error_code
FN:233,_ZN4asio6detail28reactive_socket_service_base8start_opERNS1_24base_implementation_typeEiPNS0_10reactor_opEbbb
FN:266,_ZN4asio6detail28reactive_socket_service_base16start_connect_opERNS1_24base_implementation_typeEPNS0_10reactor_opEbPK8sockaddrm
FNDA:0,_ZN4asio6detail28reactive_socket_service_baseC2ERNS_17execution_contextE
FNDA:0,_ZN4asio6detail28reactive_socket_service_base13base_shutdownEv
FNDA:0,_ZN4asio6detail28reactive_socket_service_base9constructERNS1_24base_implementation_typeE
FNDA:0,_ZN4asio6detail28reactive_socket_service_base7destroyERNS1_24base_implementation_typeE
FNDA:0,_ZN4asio6detail28reactive_socket_service_base5closeERNS1_24base_implementation_typeERSt10error_code
FNDA:0,_ZN4asio6detail28reactive_socket_service_base6cancelERNS1_24base_implementation_typeERSt10error_code
FNDA:0,_ZN4asio6detail28reactive_socket_service_base7do_openERNS1_24base_implementation_typeEiiiRSt10error_code
FNDA:0,_ZN4asio6detail28reactive_socket_service_base8start_opERNS1_24base_implementation_typeEiPNS0_10reactor_opEbbb
FNDA:0,_ZN4asio6detail28reactive_socket_service_base16start_connect_opERNS1_24base_implementation_typeEPNS0_10reactor_opEbPK8sockaddrm
FNF:9
FNH:0
DA:30,0
DA:31,0
DA:32,0
DA:34,0
DA:35,0
DA:37,0
DA:39,0
DA:41,0
DA:44,0
DA:45,0
DA:46,0
DA:79,0
DA:82,0
DA:87,0
DA:88,0
DA:90,0
DA:91,0
DA:93,0
DA:95,0
DA:97,0
DA:101,0
DA:106,0
DA:107,0
DA:109,0
DA:111,0
DA:115,0
DA:126,0
DA:128,0
DA:152,0
DA:156,0
DA:158,0
DA:159,0
DA:165,0
DA:166,0
DA:167,0
DA:170,0
DA:174,0
DA:176,0
DA:177,0
DA:180,0
DA:181,0
DA:182,0
DA:184,0
DA:186,0
DA:187,0
DA:188,0
DA:191,0
DA:192,0
DA:194,0
DA:195,0
DA:196,0
DA:198,0
DA:199,0
DA:233,0
DA:238,0
DA:240,0
DA:241,0
DA:244,0
DA:246,0
DA:250,0
DA:266,0
DA:271,0
DA:272,0
DA:275,0
DA:277,0
DA:278,0
DA:280,0
DA:281,0
DA:283,0
DA:288,0
LF:70
LH:0
end_of_record
SF:/home/tistrauss/.conan/data/asio/1.13.0/_/_/package/5ab84d6acfe1f23c4fae0ab88f26e3a396351ac9/include/asio/detail/impl/resolver_service_base.ipp
FN:29,_ZN4asio6detail21resolver_service_base21work_scheduler_runnerC2ERNS0_9schedulerE
FN:34,_ZN4asio6detail21resolver_service_base21work_scheduler_runnerclEv
FN:44,_ZN4asio6detail21resolver_service_baseC2ERNS_17execution_contextE
FN:52,_ZN4asio6detail21resolver_service_baseD2Ev
FN:57,_ZN4asio6detail21resolver_service_base13base_shutdownEv
FN:72,_ZN4asio6detail21resolver_service_base16base_notify_forkENS_17execution_context10fork_eventE
FN:92,_ZN4asio6detail21resolver_service_base9constructERSt10shared_ptrIvE
FN:98,_ZN4asio6detail21resolver_service_base7destroyERSt10shared_ptrIvE
FN:129,_ZN4asio6detail21resolver_service_base16start_resolve_opEPNS0_10resolve_opE
FN:145,_ZN4asio6detail21resolver_service_base17start_work_threadEv
FNDA:0,_ZN4asio6detail21resolver_service_base21work_scheduler_runnerC2ERNS0_9schedulerE
FNDA:0,_ZN4asio6detail21resolver_service_base21work_scheduler_runnerclEv
FNDA:0,_ZN4asio6detail21resolver_service_baseC2ERNS_17execution_contextE
FNDA:0,_ZN4asio6detail21resolver_service_baseD2Ev
FNDA:0,_ZN4asio6detail21resolver_service_base13base_shutdownEv
FNDA:0,_ZN4asio6detail21resolver_service_base16base_notify_forkENS_17execution_context10fork_eventE
FNDA:0,_ZN4asio6detail21resolver_service_base9constructERSt10shared_ptrIvE
FNDA:0,_ZN4asio6detail21resolver_service_base7destroyERSt10shared_ptrIvE
FNDA:0,_ZN4asio6detail21resolver_service_base16start_resolve_opEPNS0_10resolve_opE
FNDA:0,_ZN4asio6detail21resolver_service_base17start_work_threadEv
FNF:10
FNH:0
DA:29,0
DA:30,0
DA:32,0
DA:34,0
DA:36,0
DA:37,0
DA:38,0
DA:44,0
DA:45,0
DA:46,0
DA:47,0
DA:49,0
DA:50,0
DA:52,0
DA:54,0
DA:55,0
DA:57,0
DA:59,0
DA:61,0
DA:62,0
DA:63,0
DA:65,0
DA:66,0
DA:68,0
DA:70,0
DA:72,0
DA:75,0
DA:77,0
DA:79,0
DA:80,0
DA:81,0
DA:85,0
DA:86,0
DA:87,0
DA:90,0
DA:92,0
DA:95,0
DA:96,0
DA:98,0
DA:104,0
DA:105,0
DA:129,0
DA:131,0
DA:134,0
DA:135,0
DA:136,0
DA:140,0
DA:141,0
DA:143,0
DA:145,0
DA:147,0
DA:148,0
DA:150,0
DA:151,0
DA:153,0
LF:55
LH:0
end_of_record
SF:/home/tistrauss/.conan/data/asio/1.13.0/_/_/package/5ab84d6acfe1f23c4fae0ab88f26e3a396351ac9/include/asio/detail/impl/scheduler.ipp
FN:36,_ZN4asio6detail9scheduler15thread_functionC2EPS1_
FN:41,_ZN4asio6detail9scheduler15thread_functionclEv
FN:53,_ZN4asio6detail9scheduler12task_cleanupD2Ev
FN:78,_ZN4asio6detail9scheduler12work_cleanupD2Ev
FN:106,_ZN4asio6detail9schedulerC2ERNS_17execution_contextEib
FN:134,_ZN4asio6detail9schedulerD0Ev
FN:134,_ZN4asio6detail9schedulerD2Ev
FN:143,_ZN4asio6detail9scheduler8shutdownEv
FN:172,_ZN4asio6detail9scheduler9init_taskEv
FN:183,_ZN4asio6detail9scheduler3runERSt10error_code
FN:299,_ZN4asio6detail9scheduler4stopEv
FN:305,_ZNK4asio6detail9scheduler7stoppedEv
FN:311,_ZN4asio6detail9scheduler7restartEv
FN:317,_ZN4asio6detail9scheduler25compensating_work_startedEv
FN:323,_ZN4asio6detail9scheduler25post_immediate_completionEPNS0_19scheduler_operationEb
FN:346,_ZN4asio6detail9scheduler24post_deferred_completionEPNS0_19scheduler_operationE
FN:364,_ZN4asio6detail9scheduler25post_deferred_completionsERNS0_8op_queueINS0_19scheduler_operationEEE
FN:395,_ZN4asio6detail9scheduler18abandon_operationsERNS0_8op_queueINS0_19scheduler_operationEEE
FN:402,_ZN4asio6detail9scheduler10do_run_oneERNS0_27conditionally_enabled_mutex11scoped_lockERNS0_21scheduler_thread_infoERKSt10error_code
FN:585,_ZN4asio6detail9scheduler16stop_all_threadsERNS0_27conditionally_enabled_mutex11scoped_lockE
FN:598,_ZN4asio6detail9scheduler26wake_one_thread_and_unlockERNS0_27conditionally_enabled_mutex11scoped_lockE
FNDA:0,_ZN4asio6detail9scheduler15thread_functionC2EPS1_
FNDA:0,_ZN4asio6detail9scheduler15thread_functionclEv
FNDA:0,_ZN4asio6detail9scheduler12task_cleanupD2Ev
FNDA:0,_ZN4asio6detail9scheduler12work_cleanupD2Ev
FNDA:0,_ZN4asio6detail9schedulerC2ERNS_17execution_contextEib
FNDA:0,_ZN4asio6detail9schedulerD0Ev
FNDA:0,_ZN4asio6detail9schedulerD2Ev
FNDA:0,_ZN4asio6detail9scheduler8shutdownEv
FNDA:0,_ZN4asio6detail9scheduler9init_taskEv
FNDA:0,_ZN4asio6detail9scheduler3runERSt10error_code
FNDA:0,_ZN4asio6detail9scheduler4stopEv
FNDA:0,_ZNK4asio6detail9scheduler7stoppedEv
FNDA:0,_ZN4asio6detail9scheduler7restartEv
FNDA:0,_ZN4asio6detail9scheduler25compensating_work_startedEv
FNDA:0,_ZN4asio6detail9scheduler25post_immediate_completionEPNS0_19scheduler_operationEb
FNDA:0,_ZN4asio6detail9scheduler24post_deferred_completionEPNS0_19scheduler_operationE
FNDA:0,_ZN4asio6detail9scheduler25post_deferred_completionsERNS0_8op_queueINS0_19scheduler_operationEEE
FNDA:0,_ZN4asio6detail9scheduler18abandon_operationsERNS0_8op_queueINS0_19scheduler_operationEEE
FNDA:0,_ZN4asio6detail9scheduler10do_run_oneERNS0_27conditionally_enabled_mutex11scoped_lockERNS0_21scheduler_thread_infoERKSt10error_code
FNDA:0,_ZN4asio6detail9scheduler16stop_all_threadsERNS0_27conditionally_enabled_mutex11scoped_lockE
FNDA:0,_ZN4asio6detail9scheduler26wake_one_thread_and_unlockERNS0_27conditionally_enabled_mutex11scoped_lockE
FNF:21
FNH:0
DA:36,0
DA:37,0
DA:39,0
DA:41,0
DA:43,0
DA:44,0
DA:45,0
DA:53,0
DA:54,0
DA:55,0
DA:57,0
DA:58,0
DA:59,0
DA:61,0
DA:65,0
DA:66,0
DA:67,0
DA:68,0
DA:69,0
DA:78,0
DA:79,0
DA:80,0
DA:82,0
DA:83,0
DA:84,0
DA:86,0
DA:88,0
DA:90,0
DA:93,0
DA:95,0
DA:96,0
DA:99,0
DA:106,0
DA:107,0
DA:110,0
DA:112,0
DA:114,0
DA:122,0
DA:126,0
DA:128,0
DA:129,0
DA:130,0
DA:132,0
DA:134,0
DA:136,0
DA:138,0
DA:139,0
DA:141,0
DA:143,0
DA:145,0
DA:146,0
DA:147,0
DA:148,0
DA:149,0
DA:152,0
DA:154,0
DA:155,0
DA:156,0
DA:160,0
DA:162,0
DA:163,0
DA:164,0
DA:165,0
DA:169,0
DA:170,0
DA:172,0
DA:174,0
DA:175,0
DA:177,0
DA:178,0
DA:179,0
DA:181,0
DA:183,0
DA:185,0
DA:186,0
DA:188,0
DA:189,0
DA:192,0
DA:193,0
DA:194,0
DA:196,0
DA:198,0
DA:199,0
DA:200,0
DA:201,0
DA:202,0
DA:299,0
DA:301,0
DA:302,0
DA:303,0
DA:305,0
DA:307,0
DA:308,0
DA:311,0
DA:313,0
DA:314,0
DA:315,0
DA:317,0
DA:319,0
DA:320,0
DA:321,0
DA:323,0
DA:327,0
DA:329,0
DA:331,0
DA:332,0
DA:333,0
DA:340,0
DA:341,0
DA:342,0
DA:343,0
DA:346,0
DA:349,0
DA:351,0
DA:353,0
DA:354,0
DA:359,0
DA:360,0
DA:361,0
DA:364,0
DA:367,0
DA:370,0
DA:372,0
DA:374,0
DA:375,0
DA:380,0
DA:381,0
DA:382,0
DA:395,0
DA:398,0
DA:399,0
DA:400,0
DA:402,0
DA:406,0
DA:408,0
DA:411,0
DA:412,0
DA:413,0
DA:415,0
DA:417,0
DA:419,0
DA:420,0
DA:422,0
DA:424,0
DA:430,0
DA:434,0
DA:436,0
DA:437,0
DA:439,0
DA:442,0
DA:446,0
DA:448,0
DA:453,0
DA:454,0
DA:458,0
DA:585,0
DA:588,0
DA:589,0
DA:591,0
DA:593,0
DA:594,0
DA:596,0
DA:598,0
DA:601,0
DA:603,0
DA:605,0
DA:606,0
DA:608,0
DA:610,0
LF:169
LH:0
end_of_record
SF:/home/tistrauss/.conan/data/asio/1.13.0/_/_/package/5ab84d6acfe1f23c4fae0ab88f26e3a396351ac9/include/asio/detail/impl/service_registry.hpp
FN:24,_ZN4asio6detail16service_registry11use_serviceINS0_22deadline_timer_serviceINS0_18chrono_time_traitsINSt6chrono3_V212steady_clockENS_11wait_traitsIS7_EEEEEEEERT_v
FN:24,_ZN4asio6detail16service_registry11use_serviceINS0_13epoll_reactorEEERT_v
FN:24,_ZN4asio6detail16service_registry11use_serviceINS0_9schedulerEEERT_v
FN:33,_ZN4asio6detail16service_registry11use_serviceINS0_16resolver_serviceINS_2ip3tcpEEEEERT_RNS_10io_contextE
FN:33,_ZN4asio6detail16service_registry11use_serviceINS0_23reactive_socket_serviceINS_2ip3tcpEEEEERT_RNS_10io_contextE
FN:42,_ZN4asio6detail16service_registry11add_serviceINS0_9schedulerEEEvPT_
FN:58,_ZN4asio6detail16service_registry8init_keyINS0_16resolver_serviceINS_2ip3tcpEEEEEvRNS_17execution_context7service3keyEz
FN:58,_ZN4asio6detail16service_registry8init_keyINS0_13epoll_reactorEEEvRNS_17execution_context7service3keyEz
FN:58,_ZN4asio6detail16service_registry8init_keyINS0_22deadline_timer_serviceINS0_18chrono_time_traitsINSt6chrono3_V212steady_clockENS_11wait_traitsIS7_EEEEEEEEvRNS_17execution_context7service3keyEz
FN:58,_ZN4asio6detail16service_registry8init_keyINS0_9schedulerEEEvRNS_17execution_context7service3keyEz
FN:58,_ZN4asio6detail16service_registry8init_keyINS0_23reactive_socket_serviceINS_2ip3tcpEEEEEvRNS_17execution_context7service3keyEz
FN:75,_ZN4asio6detail16service_registry16init_key_from_idINS0_23reactive_socket_serviceINS_2ip3tcpEEEEEvRNS_17execution_context7service3keyERKNS0_10service_idIT_EE
FN:75,_ZN4asio6detail16service_registry16init_key_from_idINS0_9schedulerEEEvRNS_17execution_context7service3keyERKNS0_10service_idIT_EE
FN:75,_ZN4asio6detail16service_registry16init_key_from_idINS0_22deadline_timer_serviceINS0_18chrono_time_traitsINSt6chrono3_V212steady_clockENS_11wait_traitsIS7_EEEEEEEEvRNS_17execution_context7service3keyERKNS0_10service_idIT_EE
FN:75,_ZN4asio6detail16service_registry16init_key_from_idINS0_16resolver_serviceINS_2ip3tcpEEEEEvRNS_17execution_context7service3keyERKNS0_10service_idIT_EE
FN:75,_ZN4asio6detail16service_registry16init_key_from_idINS0_13epoll_reactorEEEvRNS_17execution_context7service3keyERKNS0_10service_idIT_EE
FN:84,_ZN4asio6detail16service_registry6createINS0_23reactive_socket_serviceINS_2ip3tcpEEENS_10io_contextEEEPNS_17execution_context7serviceEPv
FN:84,_ZN4asio6detail16service_registry6createINS0_16resolver_serviceINS_2ip3tcpEEENS_10io_contextEEEPNS_17execution_context7serviceEPv
FN:84,_ZN4asio6detail16service_registry6createINS0_13epoll_reactorENS_17execution_contextEEEPNS4_7serviceEPv
FN:84,_ZN4asio6detail16service_registry6createINS0_22deadline_timer_serviceINS0_18chrono_time_traitsINSt6chrono3_V212steady_clockENS_11wait_traitsIS7_EEEEEENS_17execution_contextEEEPNSC_7serviceEPv
FN:84,_ZN4asio6detail16service_registry6createINS0_9schedulerENS_17execution_contextEEEPNS4_7serviceEPv
FNDA:0,_ZN4asio6detail16service_registry11use_serviceINS0_22deadline_timer_serviceINS0_18chrono_time_traitsINSt6chrono3_V212steady_clockENS_11wait_traitsIS7_EEEEEEEERT_v
FNDA:0,_ZN4asio6detail16service_registry11use_serviceINS0_13epoll_reactorEEERT_v
FNDA:0,_ZN4asio6detail16service_registry11use_serviceINS0_9schedulerEEERT_v
FNDA:0,_ZN4asio6detail16service_registry11use_serviceINS0_16resolver_serviceINS_2ip3tcpEEEEERT_RNS_10io_contextE
FNDA:0,_ZN4asio6detail16service_registry11use_serviceINS0_23reactive_socket_serviceINS_2ip3tcpEEEEERT_RNS_10io_contextE
FNDA:0,_ZN4asio6detail16service_registry11add_serviceINS0_9schedulerEEEvPT_
FNDA:0,_ZN4asio6detail16service_registry8init_keyINS0_16resolver_serviceINS_2ip3tcpEEEEEvRNS_17execution_context7service3keyEz
FNDA:0,_ZN4asio6detail16service_registry8init_keyINS0_23reactive_socket_serviceINS_2ip3tcpEEEEEvRNS_17execution_context7service3keyEz
FNDA:0,_ZN4asio6detail16service_registry8init_keyINS0_22deadline_timer_serviceINS0_18chrono_time_traitsINSt6chrono3_V212steady_clockENS_11wait_traitsIS7_EEEEEEEEvRNS_17execution_context7service3keyEz
FNDA:0,_ZN4asio6detail16service_registry8init_keyINS0_13epoll_reactorEEEvRNS_17execution_context7service3keyEz
FNDA:0,_ZN4asio6detail16service_registry8init_keyINS0_9schedulerEEEvRNS_17execution_context7service3keyEz
FNDA:0,_ZN4asio6detail16service_registry16init_key_from_idINS0_16resolver_serviceINS_2ip3tcpEEEEEvRNS_17execution_context7service3keyERKNS0_10service_idIT_EE
FNDA:0,_ZN4asio6detail16service_registry16init_key_from_idINS0_23reactive_socket_serviceINS_2ip3tcpEEEEEvRNS_17execution_context7service3keyERKNS0_10service_idIT_EE
FNDA:0,_ZN4asio6detail16service_registry16init_key_from_idINS0_22deadline_timer_serviceINS0_18chrono_time_traitsINSt6chrono3_V212steady_clockENS_11wait_traitsIS7_EEEEEEEEvRNS_17execution_context7service3keyERKNS0_10service_idIT_EE
FNDA:0,_ZN4asio6detail16service_registry16init_key_from_idINS0_13epoll_reactorEEEvRNS_17execution_context7service3keyERKNS0_10service_idIT_EE
FNDA:0,_ZN4asio6detail16service_registry16init_key_from_idINS0_9schedulerEEEvRNS_17execution_context7service3keyERKNS0_10service_idIT_EE
FNDA:0,_ZN4asio6detail16service_registry6createINS0_16resolver_serviceINS_2ip3tcpEEENS_10io_contextEEEPNS_17execution_context7serviceEPv
FNDA:0,_ZN4asio6detail16service_registry6createINS0_23reactive_socket_serviceINS_2ip3tcpEEENS_10io_contextEEEPNS_17execution_context7serviceEPv
FNDA:0,_ZN4asio6detail16service_registry6createINS0_22deadline_timer_serviceINS0_18chrono_time_traitsINSt6chrono3_V212steady_clockENS_11wait_traitsIS7_EEEEEENS_17execution_contextEEEPNSC_7serviceEPv
FNDA:0,_ZN4asio6detail16service_registry6createINS0_13epoll_reactorENS_17execution_contextEEEPNS4_7serviceEPv
FNDA:0,_ZN4asio6detail16service_registry6createINS0_9schedulerENS_17execution_contextEEEPNS4_7serviceEPv
FNF:21
FNH:0
DA:24,0
DA:26,0
DA:27,0
DA:28,0
DA:29,0
DA:33,0
DA:35,0
DA:36,0
DA:37,0
DA:38,0
DA:42,0
DA:44,0
DA:45,0
DA:46,0
DA:58,0
DA:61,0
DA:62,0
DA:75,0
DA:78,0
DA:79,0
DA:80,0
DA:84,0
DA:86,0
LF:23
LH:0
end_of_record
SF:/home/tistrauss/.conan/data/asio/1.13.0/_/_/package/5ab84d6acfe1f23c4fae0ab88f26e3a396351ac9/include/asio/detail/impl/service_registry.ipp
FN:28,_ZN4asio6detail16service_registryC2ERNS_17execution_contextE
FN:34,_ZN4asio6detail16service_registryD2Ev
FN:38,_ZN4asio6detail16service_registry17shutdown_servicesEv
FN:48,_ZN4asio6detail16service_registry16destroy_servicesEv
FN:94,_ZN4asio6detail16service_registry10keys_matchERKNS_17execution_context7service3keyES6_
FN:107,_ZN4asio6detail16service_registry7destroyEPNS_17execution_context7serviceE
FN:112,_ZN4asio6detail16service_registry14do_use_serviceERKNS_17execution_context7service3keyEPFPS3_PvES8_
FN:152,_ZN4asio6detail16service_registry14do_add_serviceERKNS_17execution_context7service3keyEPS3_
FNDA:0,_ZN4asio6detail16service_registryC2ERNS_17execution_contextE
FNDA:0,_ZN4asio6detail16service_registryD2Ev
FNDA:0,_ZN4asio6detail16service_registry17shutdown_servicesEv
FNDA:0,_ZN4asio6detail16service_registry16destroy_servicesEv
FNDA:0,_ZN4asio6detail16service_registry10keys_matchERKNS_17execution_context7service3keyES6_
FNDA:0,_ZN4asio6detail16service_registry7destroyEPNS_17execution_context7serviceE
FNDA:0,_ZN4asio6detail16service_registry14do_use_serviceERKNS_17execution_context7service3keyEPFPS3_PvES8_
FNDA:0,_ZN4asio6detail16service_registry14do_add_serviceERKNS_17execution_context7service3keyEPS3_
FNF:8
FNH:0
DA:28,0
DA:30,0
DA:32,0
DA:34,0
DA:36,0
DA:38,0
DA:40,0
DA:41,0
DA:43,0
DA:44,0
DA:46,0
DA:48,0
DA:50,0
DA:52,0
DA:53,0
DA:54,0
DA:56,0
DA:94,0
DA:98,0
DA:99,0
DA:100,0
DA:101,0
DA:102,0
DA:103,0
DA:104,0
DA:107,0
DA:109,0
DA:110,0
DA:112,0
DA:116,0
DA:119,0
DA:120,0
DA:122,0
DA:123,0
DA:124,0
DA:130,0
DA:131,0
DA:132,0
DA:133,0
DA:137,0
DA:138,0
DA:140,0
DA:141,0
DA:142,0
DA:146,0
DA:147,0
DA:148,0
DA:149,0
DA:152,0
DA:156,0
DA:157,0
DA:159,0
DA:162,0
DA:163,0
DA:165,0
DA:166,0
DA:167,0
DA:171,0
DA:172,0
DA:173,0
DA:174,0
LF:61
LH:0
end_of_record
SF:/home/tistrauss/.conan/data/asio/1.13.0/_/_/package/5ab84d6acfe1f23c4fae0ab88f26e3a396351ac9/include/asio/detail/impl/socket_ops.ipp
FN:65,_ZN4asio6detail10socket_ops16clear_last_errorEv
FN:77,_ZN4asio6detail10socket_ops13error_wrapperIlEET_S3_RSt10error_code
FN:77,_ZN4asio6detail10socket_ops13error_wrapperIiEET_S3_RSt10error_code
FN:293,_ZN4asio6detail10socket_ops5closeEiRhbRSt10error_code
FN:402,_ZN4asio6detail10socket_ops25set_internal_non_blockingEiRhbRSt10error_code
FN:450,_ZN4asio6detail10socket_ops8shutdownEiiRSt10error_code
FN:466,_ZN4asio6detail10socket_ops12call_connectIjEEiM6msghdrT_iPK8sockaddrm
FN:472,_ZN4asio6detail10socket_ops7connectEiPK8sockaddrmRSt10error_code
FN:557,_ZN4asio6detail10socket_ops20non_blocking_connectEiRSt10error_code
FN:758,_ZN4asio6detail10socket_ops4recvEiP5iovecmiRSt10error_code
FN:869,_ZN4asio6detail10socket_ops17non_blocking_recvEiP5iovecmibRSt10error_codeRm
FN:1157,_ZN4asio6detail10socket_ops4sendEiPK5iovecmiRSt10error_code
FN:1250,_ZN4asio6detail10socket_ops17non_blocking_sendEiPK5iovecmiRSt10error_codeRm
FN:1389,_ZN4asio6detail10socket_ops6socketEiiiRSt10error_code
FN:1436,_ZN4asio6detail10socket_ops15call_setsockoptIjEEiM6msghdrT_iiiPKvm
FN:1444,_ZN4asio6detail10socket_ops10setsockoptEiRhiiPKvmRSt10error_code
FN:1523,_ZN4asio6detail10socket_ops15call_getsockoptIjEEiM6msghdrT_iiiPvPm
FN:1533,_ZN4asio6detail10socket_ops10getsockoptEihiiPvPmRSt10error_code
FN:3274,_ZN4asio6detail10socket_ops24translate_addrinfo_errorEi
FN:3313,_ZN4asio6detail10socket_ops11getaddrinfoEPKcS3_RK8addrinfoPPS4_RSt10error_code
FN:3380,_ZN4asio6detail10socket_ops22background_getaddrinfoERKSt8weak_ptrIvEPKcS7_RK8addrinfoPPS8_RSt10error_code
FN:3392,_ZN4asio6detail10socket_ops12freeaddrinfoEP8addrinfo
FNDA:0,_ZN4asio6detail10socket_ops16clear_last_errorEv
FNDA:0,_ZN4asio6detail10socket_ops13error_wrapperIlEET_S3_RSt10error_code
FNDA:0,_ZN4asio6detail10socket_ops13error_wrapperIiEET_S3_RSt10error_code
FNDA:0,_ZN4asio6detail10socket_ops5closeEiRhbRSt10error_code
FNDA:0,_ZN4asio6detail10socket_ops25set_internal_non_blockingEiRhbRSt10error_code
FNDA:0,_ZN4asio6detail10socket_ops8shutdownEiiRSt10error_code
FNDA:0,_ZN4asio6detail10socket_ops12call_connectIjEEiM6msghdrT_iPK8sockaddrm
FNDA:0,_ZN4asio6detail10socket_ops7connectEiPK8sockaddrmRSt10error_code
FNDA:0,_ZN4asio6detail10socket_ops20non_blocking_connectEiRSt10error_code
FNDA:0,_ZN4asio6detail10socket_ops4recvEiP5iovecmiRSt10error_code
FNDA:0,_ZN4asio6detail10socket_ops17non_blocking_recvEiP5iovecmibRSt10error_codeRm
FNDA:0,_ZN4asio6detail10socket_ops4sendEiPK5iovecmiRSt10error_code
FNDA:0,_ZN4asio6detail10socket_ops17non_blocking_sendEiPK5iovecmiRSt10error_codeRm
FNDA:0,_ZN4asio6detail10socket_ops6socketEiiiRSt10error_code
FNDA:0,_ZN4asio6detail10socket_ops15call_setsockoptIjEEiM6msghdrT_iiiPKvm
FNDA:0,_ZN4asio6detail10socket_ops10setsockoptEiRhiiPKvmRSt10error_code
FNDA:0,_ZN4asio6detail10socket_ops15call_getsockoptIjEEiM6msghdrT_iiiPvPm
FNDA:0,_ZN4asio6detail10socket_ops10getsockoptEihiiPvPmRSt10error_code
FNDA:0,_ZN4asio6detail10socket_ops24translate_addrinfo_errorEi
FNDA:0,_ZN4asio6detail10socket_ops11getaddrinfoEPKcS3_RK8addrinfoPPS4_RSt10error_code
FNDA:0,_ZN4asio6detail10socket_ops22background_getaddrinfoERKSt8weak_ptrIvEPKcS7_RK8addrinfoPPS8_RSt10error_code
FNDA:0,_ZN4asio6detail10socket_ops12freeaddrinfoEP8addrinfo
FNF:22
FNH:0
DA:65,0
DA:70,0
DA:72,0
DA:77,0
DA:84,0
DA:85,0
DA:87,0
DA:293,0
DA:296,0
DA:297,0
DA:302,0
DA:305,0
DA:306,0
DA:307,0
DA:308,0
DA:312,0
DA:316,0
DA:319,0
DA:320,0
DA:321,0
DA:338,0
DA:339,0
DA:342,0
DA:344,0
DA:348,0
DA:353,0
DA:354,0
DA:355,0
DA:402,0
DA:405,0
DA:407,0
DA:408,0
DA:411,0
DA:416,0
DA:417,0
DA:420,0
DA:433,0
DA:434,0
DA:437,0
DA:439,0
DA:440,0
DA:441,0
DA:443,0
DA:444,0
DA:447,0
DA:450,0
DA:452,0
DA:454,0
DA:455,0
DA:458,0
DA:459,0
DA:460,0
DA:461,0
DA:462,0
DA:466,0
DA:469,0
DA:472,0
DA:475,0
DA:477,0
DA:478,0
DA:481,0
DA:482,0
DA:483,0
DA:484,0
DA:485,0
DA:487,0
DA:488,0
DA:490,0
DA:557,0
DA:578,0
DA:579,0
DA:580,0
DA:581,0
DA:585,0
DA:588,0
DA:592,0
DA:593,0
DA:594,0
DA:595,0
DA:597,0
DA:599,0
DA:600,0
DA:603,0
DA:606,0
DA:758,0
DA:761,0
DA:780,0
DA:781,0
DA:782,0
DA:783,0
DA:784,0
DA:785,0
DA:786,0
DA:869,0
DA:876,0
DA:879,0
DA:881,0
DA:882,0
DA:886,0
DA:887,0
DA:890,0
DA:891,0
DA:892,0
DA:895,0
DA:897,0
DA:898,0
DA:901,0
DA:903,0
DA:904,0
DA:1157,0
DA:1160,0
DA:1177,0
DA:1178,0
DA:1179,0
DA:1181,0
DA:1183,0
DA:1184,0
DA:1185,0
DA:1186,0
DA:1250,0
DA:1257,0
DA:1260,0
DA:1261,0
DA:1264,0
DA:1265,0
DA:1266,0
DA:1269,0
DA:1271,0
DA:1272,0
DA:1275,0
DA:1277,0
DA:1278,0
DA:1389,0
DA:1392,0
DA:1428,0
DA:1429,0
DA:1430,0
DA:1431,0
DA:1436,0
DA:1440,0
DA:1441,0
DA:1444,0
DA:1447,0
DA:1449,0
DA:1450,0
DA:1453,0
DA:1455,0
DA:1456,0
DA:1459,0
DA:1460,0
DA:1462,0
DA:1464,0
DA:1465,0
DA:1468,0
DA:1469,0
DA:1471,0
DA:1472,0
DA:1473,0
DA:1476,0
DA:1477,0
DA:1497,0
DA:1498,0
DA:1499,0
DA:1500,0
DA:1502,0
DA:1518,0
DA:1523,0
DA:1527,0
DA:1528,0
DA:1529,0
DA:1530,0
DA:1533,0
DA:1536,0
DA:1538,0
DA:1539,0
DA:1542,0
DA:1544,0
DA:1545,0
DA:1548,0
DA:1549,0
DA:1551,0
DA:1553,0
DA:1554,0
DA:1557,0
DA:1558,0
DA:1559,0
DA:1611,0
DA:1612,0
DA:1613,0
DA:1615,0
DA:1616,0
DA:1623,0
DA:1626,0
DA:1627,0
DA:1628,0
DA:3274,0
DA:3276,0
DA:3278,0
DA:3279,0
DA:3280,0
DA:3281,0
DA:3282,0
DA:3283,0
DA:3284,0
DA:3285,0
DA:3286,0
DA:3287,0
DA:3288,0
DA:3289,0
DA:3290,0
DA:3297,0
DA:3298,0
DA:3299,0
DA:3300,0
DA:3301,0
DA:3302,0
DA:3307,0
DA:3308,0
DA:3313,0
DA:3317,0
DA:3318,0
DA:3319,0
DA:3344,0
DA:3376,0
DA:3380,0
DA:3385,0
DA:3386,0
DA:3388,0
DA:3389,0
DA:3392,0
DA:3414,0
DA:3416,0
LF:232
LH:0
end_of_record
SF:/home/tistrauss/.conan/data/asio/1.13.0/_/_/package/5ab84d6acfe1f23c4fae0ab88f26e3a396351ac9/include/asio/detail/impl/throw_error.ipp
FN:28,_ZN4asio6detail14do_throw_errorERKSt10error_code
FN:34,_ZN4asio6detail14do_throw_errorERKSt10error_codePKc
FNDA:0,_ZN4asio6detail14do_throw_errorERKSt10error_code
FNDA:0,_ZN4asio6detail14do_throw_errorERKSt10error_codePKc
FNF:2
FNH:0
DA:28,0
DA:30,0
DA:31,0
DA:32,0
DA:34,0
DA:48,0
DA:49,0
DA:53,0
LF:8
LH:0
end_of_record
SF:/home/tistrauss/.conan/data/asio/1.13.0/_/_/package/5ab84d6acfe1f23c4fae0ab88f26e3a396351ac9/include/asio/detail/impl/timer_queue_set.ipp
FN:26,_ZN4asio6detail15timer_queue_setC2Ev
FN:31,_ZN4asio6detail15timer_queue_set6insertEPNS0_16timer_queue_baseE
FN:37,_ZN4asio6detail15timer_queue_set5eraseEPNS0_16timer_queue_baseE
FN:68,_ZNK4asio6detail15timer_queue_set18wait_duration_msecEl
FN:76,_ZNK4asio6detail15timer_queue_set18wait_duration_usecEl
FN:84,_ZN4asio6detail15timer_queue_set16get_ready_timersERNS0_8op_queueINS0_19scheduler_operationEEE
FN:90,_ZN4asio6detail15timer_queue_set14get_all_timersERNS0_8op_queueINS0_19scheduler_operationEEE
FNDA:0,_ZN4asio6detail15timer_queue_setC2Ev
FNDA:0,_ZN4asio6detail15timer_queue_set6insertEPNS0_16timer_queue_baseE
FNDA:0,_ZN4asio6detail15timer_queue_set5eraseEPNS0_16timer_queue_baseE
FNDA:0,_ZNK4asio6detail15timer_queue_set18wait_duration_msecEl
FNDA:0,_ZNK4asio6detail15timer_queue_set18wait_duration_usecEl
FNDA:0,_ZN4asio6detail15timer_queue_set16get_ready_timersERNS0_8op_queueINS0_19scheduler_operationEEE
FNDA:0,_ZN4asio6detail15timer_queue_set14get_all_timersERNS0_8op_queueINS0_19scheduler_operationEEE
FNF:7
FNH:0
DA:26,0
DA:27,0
DA:29,0
DA:31,0
DA:33,0
DA:34,0
DA:35,0
DA:37,0
DA:39,0
DA:41,0
DA:43,0
DA:44,0
DA:45,0
DA:48,0
DA:50,0
DA:52,0
DA:53,0
DA:54,0
DA:68,0
DA:70,0
DA:71,0
DA:72,0
DA:73,0
DA:76,0
DA:78,0
DA:79,0
DA:80,0
DA:81,0
DA:84,0
DA:86,0
DA:87,0
DA:88,0
DA:90,0
DA:92,0
DA:93,0
DA:94,0
LF:36
LH:0
end_of_record
SF:/home/tistrauss/.conan/data/asio/1.13.0/_/_/package/5ab84d6acfe1f23c4fae0ab88f26e3a396351ac9/include/asio/detail/io_object_executor.hpp
FN:31,_ZN4asio6detail18io_object_executorINS_8executorEED2Ev
FN:34,_ZN4asio6detail18io_object_executorINS_8executorEEC2ERKS2_b
FN:41,_ZN4asio6detail18io_object_executorINS_8executorEEC2ERKS3_
FN:63,_ZNK4asio6detail18io_object_executorINS_8executorEE14inner_executorEv
FN:78,_ZNK4asio6detail18io_object_executorINS_8executorEE15on_work_startedEv
FN:92,_ZNK4asio6detail18io_object_executorINS_8executorEE16on_work_finishedEv
FN:107,_ZNK4asio6detail18io_object_executorINS_8executorEE8dispatchINS0_7binder2INS0_17read_dynbuf_v1_opINS_19basic_stream_socketINS_2ip3tcpES2_EENS_19basic_streambuf_refISaIcEEENS0_18transfer_exactly_tEZN9SimpleWeb16SocketClientBaseISA_E12read_messageERKSt10shared_ptrINSH_10ConnectionEEmEUlRKSt10error_codemE_EESN_mEESaIvEEEvOT_RKT0_
FN:107,_ZNK4asio6detail18io_object_executorINS_8executorEE8dispatchINS0_7binder2INS0_17read_dynbuf_v1_opINS_19basic_stream_socketINS_2ip3tcpES2_EENS_19basic_streambuf_refISaIcEEENS0_18transfer_exactly_tEZN9SimpleWeb16SocketClientBaseISA_E20read_message_contentERKSt10shared_ptrINSH_10ConnectionEEmEUlRKSt10error_codemE_EESN_mEESaIvEEEvOT_RKT0_
FN:107,_ZNK4asio6detail18io_object_executorINS_8executorEE8dispatchINS0_7binder1IZN9SimpleWeb16SocketClientBaseINS_19basic_stream_socketINS_2ip3tcpES2_EEE10Connection11set_timeoutElEUlRKSt10error_codeE_SE_EESaIvEEEvOT_RKT0_
FN:107,_ZNK4asio6detail18io_object_executorINS_8executorEE8dispatchINS0_7binder1INS0_16range_connect_opINS_2ip3tcpES2_NS7_22basic_resolver_resultsIS8_EENS0_25default_connect_conditionEZZN9SimpleWeb12SocketClientINS_19basic_stream_socketIS8_S2_EEE7connectEvENKUlRKSt10error_codeSA_E_clESJ_SA_EUlSJ_NS7_14basic_endpointIS8_EEE_EESH_EESaIvEEEvOT_RKT0_
FN:107,_ZNK4asio6detail18io_object_executorINS_8executorEE8dispatchINS0_7binder2INS0_8write_opINS_19basic_stream_socketINS_2ip3tcpES2_EENS_15const_buffers_1EPKNS_12const_bufferENS0_14transfer_all_tENS0_18write_dynbuf_v1_opISA_NS_19basic_streambuf_refISaIcEEESF_ZN9SimpleWeb16SocketClientBaseISA_E10Connection15send_from_queueEvEUlRKSt10error_codemE_EEEESO_mEESaIvEEEvOT_RKT0_
FN:107,_ZNK4asio6detail18io_object_executorINS_8executorEE8dispatchINS0_7binder2INS0_8write_opINS_19basic_stream_socketINS_2ip3tcpES2_EENS_15const_buffers_1EPKNS_12const_bufferENS0_14transfer_all_tENS0_18write_dynbuf_v1_opISA_NS_19basic_streambuf_refISaIcEEESF_ZN9SimpleWeb16SocketClientBaseISA_E7upgradeERKSt10shared_ptrINSM_10ConnectionEEEUlRKSt10error_codemE_EEEESS_mEESaIvEEEvOT_RKT0_
FN:107,_ZNK4asio6detail18io_object_executorINS_8executorEE8dispatchINS0_7binder2INS0_17read_dynbuf_v1_opINS_19basic_stream_socketINS_2ip3tcpES2_EENS_19basic_streambuf_refISaIcEEENS0_18transfer_exactly_tEZZN9SimpleWeb16SocketClientBaseISA_E12read_messageERKSt10shared_ptrINSH_10ConnectionEEmENKUlRKSt10error_codemE_clESP_mEUlSP_mE0_EESN_mEESaIvEEEvOT_RKT0_
FN:107,_ZNK4asio6detail18io_object_executorINS_8executorEE8dispatchINS0_7binder2INS0_29read_until_delim_string_op_v1INS_19basic_stream_socketINS_2ip3tcpES2_EENS_19basic_streambuf_refISaIcEEEZZN9SimpleWeb16SocketClientBaseISA_E7upgradeERKSt10shared_ptrINSG_10ConnectionEEENKUlRKSt10error_codemE_clESO_mEUlSO_mE_EESM_mEESaIvEEEvOT_RKT0_
FN:107,_ZNK4asio6detail18io_object_executorINS_8executorEE8dispatchINS0_7binder2INS0_17read_dynbuf_v1_opINS_19basic_stream_socketINS_2ip3tcpES2_EENS_19basic_streambuf_refISaIcEEENS0_18transfer_exactly_tEZZN9SimpleWeb16SocketClientBaseISA_E12read_messageERKSt10shared_ptrINSH_10ConnectionEEmENKUlRKSt10error_codemE_clESP_mEUlSP_mE_EESN_mEESaIvEEEvOT_RKT0_
FN:107,_ZNK4asio6detail18io_object_executorINS_8executorEE8dispatchINS0_7binder2IZN9SimpleWeb12SocketClientINS_19basic_stream_socketINS_2ip3tcpES2_EEE7connectEvEUlRKSt10error_codeNS9_22basic_resolver_resultsISA_EEE_SD_SH_EESaIvEEEvOT_RKT0_
FNDA:0,_ZN4asio6detail18io_object_executorINS_8executorEED2Ev
FNDA:0,_ZN4asio6detail18io_object_executorINS_8executorEEC2ERKS2_b
FNDA:0,_ZN4asio6detail18io_object_executorINS_8executorEEC2ERKS3_
FNDA:0,_ZNK4asio6detail18io_object_executorINS_8executorEE14inner_executorEv
FNDA:0,_ZNK4asio6detail18io_object_executorINS_8executorEE15on_work_startedEv
FNDA:0,_ZNK4asio6detail18io_object_executorINS_8executorEE16on_work_finishedEv
FNDA:0,_ZNK4asio6detail18io_object_executorINS_8executorEE8dispatchINS0_7binder2INS0_8write_opINS_19basic_stream_socketINS_2ip3tcpES2_EENS_15const_buffers_1EPKNS_12const_bufferENS0_14transfer_all_tENS0_18write_dynbuf_v1_opISA_NS_19basic_streambuf_refISaIcEEESF_ZN9SimpleWeb16SocketClientBaseISA_E10Connection15send_from_queueEvEUlRKSt10error_codemE_EEEESO_mEESaIvEEEvOT_RKT0_
FNDA:0,_ZNK4asio6detail18io_object_executorINS_8executorEE8dispatchINS0_7binder2INS0_8write_opINS_19basic_stream_socketINS_2ip3tcpES2_EENS_15const_buffers_1EPKNS_12const_bufferENS0_14transfer_all_tENS0_18write_dynbuf_v1_opISA_NS_19basic_streambuf_refISaIcEEESF_ZN9SimpleWeb16SocketClientBaseISA_E7upgradeERKSt10shared_ptrINSM_10ConnectionEEEUlRKSt10error_codemE_EEEESS_mEESaIvEEEvOT_RKT0_
FNDA:0,_ZNK4asio6detail18io_object_executorINS_8executorEE8dispatchINS0_7binder2INS0_17read_dynbuf_v1_opINS_19basic_stream_socketINS_2ip3tcpES2_EENS_19basic_streambuf_refISaIcEEENS0_18transfer_exactly_tEZN9SimpleWeb16SocketClientBaseISA_E20read_message_contentERKSt10shared_ptrINSH_10ConnectionEEmEUlRKSt10error_codemE_EESN_mEESaIvEEEvOT_RKT0_
FNDA:0,_ZNK4asio6detail18io_object_executorINS_8executorEE8dispatchINS0_7binder2INS0_17read_dynbuf_v1_opINS_19basic_stream_socketINS_2ip3tcpES2_EENS_19basic_streambuf_refISaIcEEENS0_18transfer_exactly_tEZN9SimpleWeb16SocketClientBaseISA_E12read_messageERKSt10shared_ptrINSH_10ConnectionEEmEUlRKSt10error_codemE_EESN_mEESaIvEEEvOT_RKT0_
FNDA:0,_ZNK4asio6detail18io_object_executorINS_8executorEE8dispatchINS0_7binder2INS0_17read_dynbuf_v1_opINS_19basic_stream_socketINS_2ip3tcpES2_EENS_19basic_streambuf_refISaIcEEENS0_18transfer_exactly_tEZZN9SimpleWeb16SocketClientBaseISA_E12read_messageERKSt10shared_ptrINSH_10ConnectionEEmENKUlRKSt10error_codemE_clESP_mEUlSP_mE0_EESN_mEESaIvEEEvOT_RKT0_
FNDA:0,_ZNK4asio6detail18io_object_executorINS_8executorEE8dispatchINS0_7binder2INS0_17read_dynbuf_v1_opINS_19basic_stream_socketINS_2ip3tcpES2_EENS_19basic_streambuf_refISaIcEEENS0_18transfer_exactly_tEZZN9SimpleWeb16SocketClientBaseISA_E12read_messageERKSt10shared_ptrINSH_10ConnectionEEmENKUlRKSt10error_codemE_clESP_mEUlSP_mE_EESN_mEESaIvEEEvOT_RKT0_
FNDA:0,_ZNK4asio6detail18io_object_executorINS_8executorEE8dispatchINS0_7binder2INS0_29read_until_delim_string_op_v1INS_19basic_stream_socketINS_2ip3tcpES2_EENS_19basic_streambuf_refISaIcEEEZZN9SimpleWeb16SocketClientBaseISA_E7upgradeERKSt10shared_ptrINSG_10ConnectionEEENKUlRKSt10error_codemE_clESO_mEUlSO_mE_EESM_mEESaIvEEEvOT_RKT0_
FNDA:0,_ZNK4asio6detail18io_object_executorINS_8executorEE8dispatchINS0_7binder1INS0_16range_connect_opINS_2ip3tcpES2_NS7_22basic_resolver_resultsIS8_EENS0_25default_connect_conditionEZZN9SimpleWeb12SocketClientINS_19basic_stream_socketIS8_S2_EEE7connectEvENKUlRKSt10error_codeSA_E_clESJ_SA_EUlSJ_NS7_14basic_endpointIS8_EEE_EESH_EESaIvEEEvOT_RKT0_
FNDA:0,_ZNK4asio6detail18io_object_executorINS_8executorEE8dispatchINS0_7binder2IZN9SimpleWeb12SocketClientINS_19basic_stream_socketINS_2ip3tcpES2_EEE7connectEvEUlRKSt10error_codeNS9_22basic_resolver_resultsISA_EEE_SD_SH_EESaIvEEEvOT_RKT0_
FNDA:0,_ZNK4asio6detail18io_object_executorINS_8executorEE8dispatchINS0_7binder1IZN9SimpleWeb16SocketClientBaseINS_19basic_stream_socketINS_2ip3tcpES2_EEE10Connection11set_timeoutElEUlRKSt10error_codeE_SE_EESaIvEEEvOT_RKT0_
FNF:16
FNH:0
DA:31,0
DA:34,0
DA:37,0
DA:39,0
DA:41,0
DA:43,0
DA:45,0
DA:63,0
DA:65,0
DA:78,0
DA:80,0
DA:81,0
DA:88,0
DA:90,0
DA:92,0
DA:94,0
DA:95,0
DA:102,0
DA:104,0
DA:107,0
DA:109,0
DA:110,0
DA:115,0
DA:116,0
DA:120,0
DA:122,0
LF:26
LH:0
end_of_record
SF:/home/tistrauss/.conan/data/asio/1.13.0/_/_/package/5ab84d6acfe1f23c4fae0ab88f26e3a396351ac9/include/asio/detail/io_object_impl.hpp
FN:47,_ZN4asio6detail14io_object_implINS0_22deadline_timer_serviceINS0_18chrono_time_traitsINSt6chrono3_V212steady_clockENS_11wait_traitsIS6_EEEEEENS_8executorEEC2ERKSB_
FN:57,_ZN4asio6detail14io_object_implINS0_16resolver_serviceINS_2ip3tcpEEENS_8executorEEC2INS_10io_contextEEERT_PNSt9enable_ifIXsrSt14is_convertibleISB_RNS_17execution_contextEE5valueEvE4typeE
FN:57,_ZN4asio6detail14io_object_implINS0_23reactive_socket_serviceINS_2ip3tcpEEENS_8executorEEC2INS_10io_contextEEERT_PNSt9enable_ifIXsrSt14is_convertibleISB_RNS_17execution_contextEE5valueEvE4typeE
FN:91,_ZN4asio6detail14io_object_implINS0_22deadline_timer_serviceINS0_18chrono_time_traitsINSt6chrono3_V212steady_clockENS_11wait_traitsIS6_EEEEEENS_8executorEED2Ev
FN:91,_ZN4asio6detail14io_object_implINS0_23reactive_socket_serviceINS_2ip3tcpEEENS_8executorEED2Ev
FN:91,_ZN4asio6detail14io_object_implINS0_16resolver_serviceINS_2ip3tcpEEENS_8executorEED2Ev
FN:114,_ZN4asio6detail14io_object_implINS0_23reactive_socket_serviceINS_2ip3tcpEEENS_8executorEE12get_executorEv
FN:120,_ZN4asio6detail14io_object_implINS0_22deadline_timer_serviceINS0_18chrono_time_traitsINSt6chrono3_V212steady_clockENS_11wait_traitsIS6_EEEEEENS_8executorEE27get_implementation_executorEv
FN:120,_ZN4asio6detail14io_object_implINS0_16resolver_serviceINS_2ip3tcpEEENS_8executorEE27get_implementation_executorEv
FN:120,_ZN4asio6detail14io_object_implINS0_23reactive_socket_serviceINS_2ip3tcpEEENS_8executorEE27get_implementation_executorEv
FN:127,_ZN4asio6detail14io_object_implINS0_23reactive_socket_serviceINS_2ip3tcpEEENS_8executorEE11get_serviceEv
FN:127,_ZN4asio6detail14io_object_implINS0_22deadline_timer_serviceINS0_18chrono_time_traitsINSt6chrono3_V212steady_clockENS_11wait_traitsIS6_EEEEEENS_8executorEE11get_serviceEv
FN:127,_ZN4asio6detail14io_object_implINS0_16resolver_serviceINS_2ip3tcpEEENS_8executorEE11get_serviceEv
FN:133,_ZNK4asio6detail14io_object_implINS0_23reactive_socket_serviceINS_2ip3tcpEEENS_8executorEE11get_serviceEv
FN:139,_ZN4asio6detail14io_object_implINS0_23reactive_socket_serviceINS_2ip3tcpEEENS_8executorEE18get_implementationEv
FN:139,_ZN4asio6detail14io_object_implINS0_22deadline_timer_serviceINS0_18chrono_time_traitsINSt6chrono3_V212steady_clockENS_11wait_traitsIS6_EEEEEENS_8executorEE18get_implementationEv
FN:139,_ZN4asio6detail14io_object_implINS0_16resolver_serviceINS_2ip3tcpEEENS_8executorEE18get_implementationEv
FN:145,_ZNK4asio6detail14io_object_implINS0_23reactive_socket_serviceINS_2ip3tcpEEENS_8executorEE18get_implementationEv
FNDA:0,_ZN4asio6detail14io_object_implINS0_22deadline_timer_serviceINS0_18chrono_time_traitsINSt6chrono3_V212steady_clockENS_11wait_traitsIS6_EEEEEENS_8executorEEC2ERKSB_
FNDA:0,_ZN4asio6detail14io_object_implINS0_16resolver_serviceINS_2ip3tcpEEENS_8executorEEC2INS_10io_contextEEERT_PNSt9enable_ifIXsrSt14is_convertibleISB_RNS_17execution_contextEE5valueEvE4typeE
FNDA:0,_ZN4asio6detail14io_object_implINS0_23reactive_socket_serviceINS_2ip3tcpEEENS_8executorEEC2INS_10io_contextEEERT_PNSt9enable_ifIXsrSt14is_convertibleISB_RNS_17execution_contextEE5valueEvE4typeE
FNDA:0,_ZN4asio6detail14io_object_implINS0_16resolver_serviceINS_2ip3tcpEEENS_8executorEED2Ev
FNDA:0,_ZN4asio6detail14io_object_implINS0_23reactive_socket_serviceINS_2ip3tcpEEENS_8executorEED2Ev
FNDA:0,_ZN4asio6detail14io_object_implINS0_22deadline_timer_serviceINS0_18chrono_time_traitsINSt6chrono3_V212steady_clockENS_11wait_traitsIS6_EEEEEENS_8executorEED2Ev
FNDA:0,_ZN4asio6detail14io_object_implINS0_23reactive_socket_serviceINS_2ip3tcpEEENS_8executorEE12get_executorEv
FNDA:0,_ZN4asio6detail14io_object_implINS0_23reactive_socket_serviceINS_2ip3tcpEEENS_8executorEE27get_implementation_executorEv
FNDA:0,_ZN4asio6detail14io_object_implINS0_16resolver_serviceINS_2ip3tcpEEENS_8executorEE27get_implementation_executorEv
FNDA:0,_ZN4asio6detail14io_object_implINS0_22deadline_timer_serviceINS0_18chrono_time_traitsINSt6chrono3_V212steady_clockENS_11wait_traitsIS6_EEEEEENS_8executorEE27get_implementation_executorEv
FNDA:0,_ZN4asio6detail14io_object_implINS0_16resolver_serviceINS_2ip3tcpEEENS_8executorEE11get_serviceEv
FNDA:0,_ZN4asio6detail14io_object_implINS0_22deadline_timer_serviceINS0_18chrono_time_traitsINSt6chrono3_V212steady_clockENS_11wait_traitsIS6_EEEEEENS_8executorEE11get_serviceEv
FNDA:0,_ZN4asio6detail14io_object_implINS0_23reactive_socket_serviceINS_2ip3tcpEEENS_8executorEE11get_serviceEv
FNDA:0,_ZNK4asio6detail14io_object_implINS0_23reactive_socket_serviceINS_2ip3tcpEEENS_8executorEE11get_serviceEv
FNDA:0,_ZN4asio6detail14io_object_implINS0_16resolver_serviceINS_2ip3tcpEEENS_8executorEE18get_implementationEv
FNDA:0,_ZN4asio6detail14io_object_implINS0_22deadline_timer_serviceINS0_18chrono_time_traitsINSt6chrono3_V212steady_clockENS_11wait_traitsIS6_EEEEEENS_8executorEE18get_implementationEv
FNDA:0,_ZN4asio6detail14io_object_implINS0_23reactive_socket_serviceINS_2ip3tcpEEENS_8executorEE18get_implementationEv
FNDA:0,_ZNK4asio6detail14io_object_implINS0_23reactive_socket_serviceINS_2ip3tcpEEENS_8executorEE18get_implementationEv
FNF:18
FNH:0
DA:47,0
DA:48,0
DA:50,0
DA:52,0
DA:53,0
DA:57,0
DA:60,0
DA:62,0
DA:64,0
DA:65,0
DA:91,0
DA:93,0
DA:94,0
DA:114,0
DA:116,0
DA:120,0
DA:123,0
DA:127,0
DA:129,0
DA:133,0
DA:135,0
DA:139,0
DA:141,0
DA:145,0
DA:147,0
LF:25
LH:0
end_of_record
SF:/home/tistrauss/.conan/data/asio/1.13.0/_/_/package/5ab84d6acfe1f23c4fae0ab88f26e3a396351ac9/include/asio/detail/keyword_tss_ptr.hpp
FN:35,_ZN4asio6detail15keyword_tss_ptrINS0_10call_stackINS0_14strand_service11strand_implEhE7contextEEC2Ev
FN:35,_ZN4asio6detail15keyword_tss_ptrINS0_10call_stackINS0_23strand_executor_service11strand_implEhE7contextEEC2Ev
FN:35,_ZN4asio6detail15keyword_tss_ptrINS0_10call_stackINS0_14thread_contextENS0_16thread_info_baseEE7contextEEC2Ev
FN:40,_ZN4asio6detail15keyword_tss_ptrINS0_10call_stackINS0_14strand_service11strand_implEhE7contextEED2Ev
FN:40,_ZN4asio6detail15keyword_tss_ptrINS0_10call_stackINS0_14thread_contextENS0_16thread_info_baseEE7contextEED2Ev
FN:40,_ZN4asio6detail15keyword_tss_ptrINS0_10call_stackINS0_23strand_executor_service11strand_implEhE7contextEED2Ev
FN:45,_ZNK4asio6detail15keyword_tss_ptrINS0_10call_stackINS0_14thread_contextENS0_16thread_info_baseEE7contextEEcvPS6_Ev
FN:51,_ZN4asio6detail15keyword_tss_ptrINS0_10call_stackINS0_14thread_contextENS0_16thread_info_baseEE7contextEEaSEPS6_
FNDA:0,_ZN4asio6detail15keyword_tss_ptrINS0_10call_stackINS0_23strand_executor_service11strand_implEhE7contextEEC2Ev
FNDA:0,_ZN4asio6detail15keyword_tss_ptrINS0_10call_stackINS0_14strand_service11strand_implEhE7contextEEC2Ev
FNDA:0,_ZN4asio6detail15keyword_tss_ptrINS0_10call_stackINS0_14thread_contextENS0_16thread_info_baseEE7contextEEC2Ev
FNDA:0,_ZN4asio6detail15keyword_tss_ptrINS0_10call_stackINS0_23strand_executor_service11strand_implEhE7contextEED2Ev
FNDA:0,_ZN4asio6detail15keyword_tss_ptrINS0_10call_stackINS0_14strand_service11strand_implEhE7contextEED2Ev
FNDA:0,_ZN4asio6detail15keyword_tss_ptrINS0_10call_stackINS0_14thread_contextENS0_16thread_info_baseEE7contextEED2Ev
FNDA:0,_ZNK4asio6detail15keyword_tss_ptrINS0_10call_stackINS0_14thread_contextENS0_16thread_info_baseEE7contextEEcvPS6_Ev
FNDA:0,_ZN4asio6detail15keyword_tss_ptrINS0_10call_stackINS0_14thread_contextENS0_16thread_info_baseEE7contextEEaSEPS6_
FNF:8
FNH:0
DA:35,0
DA:36,0
DA:37,0
DA:40,0
DA:42,0
DA:45,0
DA:47,0
DA:51,0
DA:53,0
DA:54,0
LF:10
LH:0
end_of_record
SF:/home/tistrauss/.conan/data/asio/1.13.0/_/_/package/5ab84d6acfe1f23c4fae0ab88f26e3a396351ac9/include/asio/detail/non_const_lvalue.hpp
FN:30,_ZN4asio6detail16non_const_lvalueIZN9SimpleWeb16SocketClientBaseINS_19basic_stream_socketINS_2ip3tcpENS_8executorEEEE20read_message_contentERKSt10shared_ptrINS9_10ConnectionEEmEUlRKSt10error_codemE_EC2ERSI_
FN:30,_ZN4asio6detail16non_const_lvalueINS0_29read_until_delim_string_op_v1INS_19basic_stream_socketINS_2ip3tcpENS_8executorEEENS_19basic_streambuf_refISaIcEEEZZN9SimpleWeb16SocketClientBaseIS7_E7upgradeERKSt10shared_ptrINSD_10ConnectionEEENKUlRKSt10error_codemE_clESL_mEUlSL_mE_EEEC2ERSO_
FN:30,_ZN4asio6detail16non_const_lvalueIZN9SimpleWeb12SocketClientINS_19basic_stream_socketINS_2ip3tcpENS_8executorEEEE7connectEvEUlRKSt10error_codeNS5_22basic_resolver_resultsIS6_EEE_EC2ERSF_
FN:30,_ZN4asio6detail16non_const_lvalueIZN9SimpleWeb16SocketClientBaseINS_19basic_stream_socketINS_2ip3tcpENS_8executorEEEE10Connection11set_timeoutElEUlRKSt10error_codeE_EC2ERSE_
FN:30,_ZN4asio6detail16non_const_lvalueINS0_8write_opINS_19basic_stream_socketINS_2ip3tcpENS_8executorEEENS_15const_buffers_1EPKNS_12const_bufferENS0_14transfer_all_tENS0_18write_dynbuf_v1_opIS7_NS_19basic_streambuf_refISaIcEEESC_ZN9SimpleWeb16SocketClientBaseIS7_E7upgradeERKSt10shared_ptrINSJ_10ConnectionEEEUlRKSt10error_codemE_EEEEEC2ERSU_
FN:30,_ZN4asio6detail16non_const_lvalueINS0_17read_dynbuf_v1_opINS_19basic_stream_socketINS_2ip3tcpENS_8executorEEENS_19basic_streambuf_refISaIcEEENS0_18transfer_exactly_tEZZN9SimpleWeb16SocketClientBaseIS7_E12read_messageERKSt10shared_ptrINSE_10ConnectionEEmENKUlRKSt10error_codemE_clESM_mEUlSM_mE_EEEC2ERSP_
FN:30,_ZN4asio6detail16non_const_lvalueINS0_17read_dynbuf_v1_opINS_19basic_stream_socketINS_2ip3tcpENS_8executorEEENS_19basic_streambuf_refISaIcEEENS0_18transfer_exactly_tEZN9SimpleWeb16SocketClientBaseIS7_E20read_message_contentERKSt10shared_ptrINSE_10ConnectionEEmEUlRKSt10error_codemE_EEEC2ERSO_
FN:30,_ZN4asio6detail16non_const_lvalueIZZN9SimpleWeb16SocketClientBaseINS_19basic_stream_socketINS_2ip3tcpENS_8executorEEEE7upgradeERKSt10shared_ptrINS9_10ConnectionEEENKUlRKSt10error_codemE_clESH_mEUlSH_mE_EC2ERSJ_
FN:30,_ZN4asio6detail16non_const_lvalueIZN9SimpleWeb16SocketClientBaseINS_19basic_stream_socketINS_2ip3tcpENS_8executorEEEE7upgradeERKSt10shared_ptrINS9_10ConnectionEEEUlRKSt10error_codemE_EC2ERSI_
FN:30,_ZN4asio6detail16non_const_lvalueINS0_18write_dynbuf_v1_opINS_19basic_stream_socketINS_2ip3tcpENS_8executorEEENS_19basic_streambuf_refISaIcEEENS0_14transfer_all_tEZN9SimpleWeb16SocketClientBaseIS7_E10Connection15send_from_queueEvEUlRKSt10error_codemE_EEEC2ERSK_
FN:30,_ZN4asio6detail16non_const_lvalueIZZN9SimpleWeb16SocketClientBaseINS_19basic_stream_socketINS_2ip3tcpENS_8executorEEEE12read_messageERKSt10shared_ptrINS9_10ConnectionEEmENKUlRKSt10error_codemE_clESH_mEUlSH_mE0_EC2ERSJ_
FN:30,_ZN4asio6detail16non_const_lvalueINS0_8write_opINS_19basic_stream_socketINS_2ip3tcpENS_8executorEEENS_15const_buffers_1EPKNS_12const_bufferENS0_14transfer_all_tENS0_18write_dynbuf_v1_opIS7_NS_19basic_streambuf_refISaIcEEESC_ZN9SimpleWeb16SocketClientBaseIS7_E10Connection15send_from_queueEvEUlRKSt10error_codemE_EEEEEC2ERSQ_
FN:30,_ZN4asio6detail16non_const_lvalueINS0_18write_dynbuf_v1_opINS_19basic_stream_socketINS_2ip3tcpENS_8executorEEENS_19basic_streambuf_refISaIcEEENS0_14transfer_all_tEZN9SimpleWeb16SocketClientBaseIS7_E7upgradeERKSt10shared_ptrINSE_10ConnectionEEEUlRKSt10error_codemE_EEEC2ERSO_
FN:30,_ZN4asio6detail16non_const_lvalueINS0_17read_dynbuf_v1_opINS_19basic_stream_socketINS_2ip3tcpENS_8executorEEENS_19basic_streambuf_refISaIcEEENS0_18transfer_exactly_tEZN9SimpleWeb16SocketClientBaseIS7_E12read_messageERKSt10shared_ptrINSE_10ConnectionEEmEUlRKSt10error_codemE_EEEC2ERSO_
FN:30,_ZN4asio6detail16non_const_lvalueINS0_14transfer_all_tEEC2ERS2_
FN:30,_ZN4asio6detail16non_const_lvalueINS0_16range_connect_opINS_2ip3tcpENS_8executorENS3_22basic_resolver_resultsIS4_EENS0_25default_connect_conditionEZZN9SimpleWeb12SocketClientINS_19basic_stream_socketIS4_S5_EEE7connectEvENKUlRKSt10error_codeS7_E_clESG_S7_EUlSG_NS3_14basic_endpointIS4_EEE_EEEC2ERSL_
FN:30,_ZN4asio6detail16non_const_lvalueIZZN9SimpleWeb12SocketClientINS_19basic_stream_socketINS_2ip3tcpENS_8executorEEEE7connectEvENKUlRKSt10error_codeNS5_22basic_resolver_resultsIS6_EEE_clESC_SE_EUlSC_NS5_14basic_endpointIS6_EEE_EC2ERSI_
FN:30,_ZN4asio6detail16non_const_lvalueIZN9SimpleWeb16SocketClientBaseINS_19basic_stream_socketINS_2ip3tcpENS_8executorEEEE10Connection15send_from_queueEvEUlRKSt10error_codemE_EC2ERSE_
FN:30,_ZN4asio6detail16non_const_lvalueINS0_18transfer_exactly_tEEC2ERS2_
FN:30,_ZN4asio6detail16non_const_lvalueIZZN9SimpleWeb16SocketClientBaseINS_19basic_stream_socketINS_2ip3tcpENS_8executorEEEE12read_messageERKSt10shared_ptrINS9_10ConnectionEEmENKUlRKSt10error_codemE_clESH_mEUlSH_mE_EC2ERSJ_
FN:30,_ZN4asio6detail16non_const_lvalueINS0_17read_dynbuf_v1_opINS_19basic_stream_socketINS_2ip3tcpENS_8executorEEENS_19basic_streambuf_refISaIcEEENS0_18transfer_exactly_tEZZN9SimpleWeb16SocketClientBaseIS7_E12read_messageERKSt10shared_ptrINSE_10ConnectionEEmENKUlRKSt10error_codemE_clESM_mEUlSM_mE0_EEEC2ERSP_
FN:30,_ZN4asio6detail16non_const_lvalueIZN9SimpleWeb16SocketClientBaseINS_19basic_stream_socketINS_2ip3tcpENS_8executorEEEE12read_messageERKSt10shared_ptrINS9_10ConnectionEEmEUlRKSt10error_codemE_EC2ERSI_
FNDA:0,_ZN4asio6detail16non_const_lvalueINS0_8write_opINS_19basic_stream_socketINS_2ip3tcpENS_8executorEEENS_15const_buffers_1EPKNS_12const_bufferENS0_14transfer_all_tENS0_18write_dynbuf_v1_opIS7_NS_19basic_streambuf_refISaIcEEESC_ZN9SimpleWeb16SocketClientBaseIS7_E10Connection15send_from_queueEvEUlRKSt10error_codemE_EEEEEC2ERSQ_
FNDA:0,_ZN4asio6detail16non_const_lvalueINS0_8write_opINS_19basic_stream_socketINS_2ip3tcpENS_8executorEEENS_15const_buffers_1EPKNS_12const_bufferENS0_14transfer_all_tENS0_18write_dynbuf_v1_opIS7_NS_19basic_streambuf_refISaIcEEESC_ZN9SimpleWeb16SocketClientBaseIS7_E7upgradeERKSt10shared_ptrINSJ_10ConnectionEEEUlRKSt10error_codemE_EEEEEC2ERSU_
FNDA:0,_ZN4asio6detail16non_const_lvalueINS0_18write_dynbuf_v1_opINS_19basic_stream_socketINS_2ip3tcpENS_8executorEEENS_19basic_streambuf_refISaIcEEENS0_14transfer_all_tEZN9SimpleWeb16SocketClientBaseIS7_E10Connection15send_from_queueEvEUlRKSt10error_codemE_EEEC2ERSK_
FNDA:0,_ZN4asio6detail16non_const_lvalueINS0_17read_dynbuf_v1_opINS_19basic_stream_socketINS_2ip3tcpENS_8executorEEENS_19basic_streambuf_refISaIcEEENS0_18transfer_exactly_tEZN9SimpleWeb16SocketClientBaseIS7_E20read_message_contentERKSt10shared_ptrINSE_10ConnectionEEmEUlRKSt10error_codemE_EEEC2ERSO_
FNDA:0,_ZN4asio6detail16non_const_lvalueINS0_18write_dynbuf_v1_opINS_19basic_stream_socketINS_2ip3tcpENS_8executorEEENS_19basic_streambuf_refISaIcEEENS0_14transfer_all_tEZN9SimpleWeb16SocketClientBaseIS7_E7upgradeERKSt10shared_ptrINSE_10ConnectionEEEUlRKSt10error_codemE_EEEC2ERSO_
FNDA:0,_ZN4asio6detail16non_const_lvalueINS0_17read_dynbuf_v1_opINS_19basic_stream_socketINS_2ip3tcpENS_8executorEEENS_19basic_streambuf_refISaIcEEENS0_18transfer_exactly_tEZN9SimpleWeb16SocketClientBaseIS7_E12read_messageERKSt10shared_ptrINSE_10ConnectionEEmEUlRKSt10error_codemE_EEEC2ERSO_
FNDA:0,_ZN4asio6detail16non_const_lvalueINS0_17read_dynbuf_v1_opINS_19basic_stream_socketINS_2ip3tcpENS_8executorEEENS_19basic_streambuf_refISaIcEEENS0_18transfer_exactly_tEZZN9SimpleWeb16SocketClientBaseIS7_E12read_messageERKSt10shared_ptrINSE_10ConnectionEEmENKUlRKSt10error_codemE_clESM_mEUlSM_mE0_EEEC2ERSP_
FNDA:0,_ZN4asio6detail16non_const_lvalueINS0_17read_dynbuf_v1_opINS_19basic_stream_socketINS_2ip3tcpENS_8executorEEENS_19basic_streambuf_refISaIcEEENS0_18transfer_exactly_tEZZN9SimpleWeb16SocketClientBaseIS7_E12read_messageERKSt10shared_ptrINSE_10ConnectionEEmENKUlRKSt10error_codemE_clESM_mEUlSM_mE_EEEC2ERSP_
FNDA:0,_ZN4asio6detail16non_const_lvalueINS0_29read_until_delim_string_op_v1INS_19basic_stream_socketINS_2ip3tcpENS_8executorEEENS_19basic_streambuf_refISaIcEEEZZN9SimpleWeb16SocketClientBaseIS7_E7upgradeERKSt10shared_ptrINSD_10ConnectionEEENKUlRKSt10error_codemE_clESL_mEUlSL_mE_EEEC2ERSO_
FNDA:0,_ZN4asio6detail16non_const_lvalueINS0_16range_connect_opINS_2ip3tcpENS_8executorENS3_22basic_resolver_resultsIS4_EENS0_25default_connect_conditionEZZN9SimpleWeb12SocketClientINS_19basic_stream_socketIS4_S5_EEE7connectEvENKUlRKSt10error_codeS7_E_clESG_S7_EUlSG_NS3_14basic_endpointIS4_EEE_EEEC2ERSL_
FNDA:0,_ZN4asio6detail16non_const_lvalueIZN9SimpleWeb16SocketClientBaseINS_19basic_stream_socketINS_2ip3tcpENS_8executorEEEE10Connection15send_from_queueEvEUlRKSt10error_codemE_EC2ERSE_
FNDA:0,_ZN4asio6detail16non_const_lvalueIZN9SimpleWeb16SocketClientBaseINS_19basic_stream_socketINS_2ip3tcpENS_8executorEEEE20read_message_contentERKSt10shared_ptrINS9_10ConnectionEEmEUlRKSt10error_codemE_EC2ERSI_
FNDA:0,_ZN4asio6detail16non_const_lvalueINS0_14transfer_all_tEEC2ERS2_
FNDA:0,_ZN4asio6detail16non_const_lvalueIZN9SimpleWeb16SocketClientBaseINS_19basic_stream_socketINS_2ip3tcpENS_8executorEEEE7upgradeERKSt10shared_ptrINS9_10ConnectionEEEUlRKSt10error_codemE_EC2ERSI_
FNDA:0,_ZN4asio6detail16non_const_lvalueIZN9SimpleWeb16SocketClientBaseINS_19basic_stream_socketINS_2ip3tcpENS_8executorEEEE12read_messageERKSt10shared_ptrINS9_10ConnectionEEmEUlRKSt10error_codemE_EC2ERSI_
FNDA:0,_ZN4asio6detail16non_const_lvalueIZZN9SimpleWeb16SocketClientBaseINS_19basic_stream_socketINS_2ip3tcpENS_8executorEEEE12read_messageERKSt10shared_ptrINS9_10ConnectionEEmENKUlRKSt10error_codemE_clESH_mEUlSH_mE0_EC2ERSJ_
FNDA:0,_ZN4asio6detail16non_const_lvalueINS0_18transfer_exactly_tEEC2ERS2_
FNDA:0,_ZN4asio6detail16non_const_lvalueIZZN9SimpleWeb16SocketClientBaseINS_19basic_stream_socketINS_2ip3tcpENS_8executorEEEE12read_messageERKSt10shared_ptrINS9_10ConnectionEEmENKUlRKSt10error_codemE_clESH_mEUlSH_mE_EC2ERSJ_
FNDA:0,_ZN4asio6detail16non_const_lvalueIZN9SimpleWeb12SocketClientINS_19basic_stream_socketINS_2ip3tcpENS_8executorEEEE7connectEvEUlRKSt10error_codeNS5_22basic_resolver_resultsIS6_EEE_EC2ERSF_
FNDA:0,_ZN4asio6detail16non_const_lvalueIZZN9SimpleWeb16SocketClientBaseINS_19basic_stream_socketINS_2ip3tcpENS_8executorEEEE7upgradeERKSt10shared_ptrINS9_10ConnectionEEENKUlRKSt10error_codemE_clESH_mEUlSH_mE_EC2ERSJ_
FNDA:0,_ZN4asio6detail16non_const_lvalueIZN9SimpleWeb16SocketClientBaseINS_19basic_stream_socketINS_2ip3tcpENS_8executorEEEE10Connection11set_timeoutElEUlRKSt10error_codeE_EC2ERSE_
FNDA:0,_ZN4asio6detail16non_const_lvalueIZZN9SimpleWeb12SocketClientINS_19basic_stream_socketINS_2ip3tcpENS_8executorEEEE7connectEvENKUlRKSt10error_codeNS5_22basic_resolver_resultsIS6_EEE_clESC_SE_EUlSC_NS5_14basic_endpointIS6_EEE_EC2ERSI_
FNF:22
FNH:0
DA:30,0
DA:33,0
DA:35,0
LF:3
LH:0
end_of_record
SF:/home/tistrauss/.conan/data/asio/1.13.0/_/_/package/5ab84d6acfe1f23c4fae0ab88f26e3a396351ac9/include/asio/detail/noncopyable.hpp
FN:28,_ZN4asio6detail11noncopyableC2Ev
FN:29,_ZN4asio6detail11noncopyableD2Ev
FNDA:0,_ZN4asio6detail11noncopyableC2Ev
FNDA:0,_ZN4asio6detail11noncopyableD2Ev
FNF:2
FNH:0
DA:28,0
DA:29,0
LF:2
LH:0
end_of_record
SF:/home/tistrauss/.conan/data/asio/1.13.0/_/_/package/5ab84d6acfe1f23c4fae0ab88f26e3a396351ac9/include/asio/detail/null_event.hpp
FN:31,_ZN4asio6detail10null_eventC2Ev
FN:36,_ZN4asio6detail10null_eventD2Ev
FN:73,_ZN4asio6detail10null_event4waitINS0_27conditionally_enabled_mutex11scoped_lockEEEvRT_
FNDA:0,_ZN4asio6detail10null_eventC2Ev
FNDA:0,_ZN4asio6detail10null_eventD2Ev
FNDA:0,_ZN4asio6detail10null_event4waitINS0_27conditionally_enabled_mutex11scoped_lockEEEvRT_
FNF:3
FNH:0
DA:31,0
DA:32,0
DA:33,0
DA:36,0
DA:37,0
DA:38,0
DA:73,0
DA:75,0
DA:76,0
LF:9
LH:0
end_of_record
SF:/home/tistrauss/.conan/data/asio/1.13.0/_/_/package/5ab84d6acfe1f23c4fae0ab88f26e3a396351ac9/include/asio/detail/object_pool.hpp
FN:38,_ZN4asio6detail18object_pool_access6createINS0_13epoll_reactor16descriptor_stateEbEEPT_T0_
FN:44,_ZN4asio6detail18object_pool_access7destroyINS0_13epoll_reactor16descriptor_stateEEEvPT_
FN:50,_ZN4asio6detail18object_pool_access4nextINS0_13epoll_reactor16descriptor_stateEEERPT_S6_
FN:56,_ZN4asio6detail18object_pool_access4prevINS0_13epoll_reactor16descriptor_stateEEERPT_S6_
FN:68,_ZN4asio6detail11object_poolINS0_13epoll_reactor16descriptor_stateEEC2Ev
FN:75,_ZN4asio6detail11object_poolINS0_13epoll_reactor16descriptor_stateEED2Ev
FN:82,_ZN4asio6detail11object_poolINS0_13epoll_reactor16descriptor_stateEE5firstEv
FN:107,_ZN4asio6detail11object_poolINS0_13epoll_reactor16descriptor_stateEE5allocIbEEPS3_T_
FN:125,_ZN4asio6detail11object_poolINS0_13epoll_reactor16descriptor_stateEE4freeEPS3_
FN:149,_ZN4asio6detail11object_poolINS0_13epoll_reactor16descriptor_stateEE12destroy_listEPS3_
FNDA:0,_ZN4asio6detail18object_pool_access6createINS0_13epoll_reactor16descriptor_stateEbEEPT_T0_
FNDA:0,_ZN4asio6detail18object_pool_access7destroyINS0_13epoll_reactor16descriptor_stateEEEvPT_
FNDA:0,_ZN4asio6detail18object_pool_access4nextINS0_13epoll_reactor16descriptor_stateEEERPT_S6_
FNDA:0,_ZN4asio6detail18object_pool_access4prevINS0_13epoll_reactor16descriptor_stateEEERPT_S6_
FNDA:0,_ZN4asio6detail11object_poolINS0_13epoll_reactor16descriptor_stateEEC2Ev
FNDA:0,_ZN4asio6detail11object_poolINS0_13epoll_reactor16descriptor_stateEED2Ev
FNDA:0,_ZN4asio6detail11object_poolINS0_13epoll_reactor16descriptor_stateEE5firstEv
FNDA:0,_ZN4asio6detail11object_poolINS0_13epoll_reactor16descriptor_stateEE5allocIbEEPS3_T_
FNDA:0,_ZN4asio6detail11object_poolINS0_13epoll_reactor16descriptor_stateEE4freeEPS3_
FNDA:0,_ZN4asio6detail11object_poolINS0_13epoll_reactor16descriptor_stateEE12destroy_listEPS3_
FNF:10
FNH:0
DA:38,0
DA:40,0
DA:44,0
DA:46,0
DA:47,0
DA:50,0
DA:52,0
DA:56,0
DA:58,0
DA:68,0
DA:70,0
DA:72,0
DA:75,0
DA:77,0
DA:78,0
DA:79,0
DA:82,0
DA:84,0
DA:107,0
DA:109,0
DA:110,0
DA:111,0
DA:113,0
DA:115,0
DA:116,0
DA:117,0
DA:118,0
DA:119,0
DA:121,0
DA:125,0
DA:127,0
DA:128,0
DA:130,0
DA:132,0
DA:133,0
DA:136,0
DA:138,0
DA:139,0
DA:142,0
DA:143,0
DA:144,0
DA:145,0
DA:149,0
DA:151,0
DA:153,0
DA:154,0
DA:155,0
DA:157,0
LF:48
LH:0
end_of_record
SF:/home/tistrauss/.conan/data/asio/1.13.0/_/_/package/5ab84d6acfe1f23c4fae0ab88f26e3a396351ac9/include/asio/detail/op_queue.hpp
FN:32,_ZN4asio6detail15op_queue_access4nextINS0_10reactor_opEEEPT_S5_
FN:32,_ZN4asio6detail15op_queue_access4nextINS0_7wait_opEEEPT_S5_
FN:32,_ZN4asio6detail15op_queue_access4nextINS0_19scheduler_operationEEEPT_S5_
FN:38,_ZN4asio6detail15op_queue_access4nextINS0_7wait_opES3_EEvRPT_PT0_
FN:38,_ZN4asio6detail15op_queue_access4nextINS0_10reactor_opES3_EEvRPT_PT0_
FN:38,_ZN4asio6detail15op_queue_access4nextINS0_19scheduler_operationES3_EEvRPT_PT0_
FN:44,_ZN4asio6detail15op_queue_access7destroyINS0_19scheduler_operationEEEvPT_
FN:44,_ZN4asio6detail15op_queue_access7destroyINS0_7wait_opEEEvPT_
FN:44,_ZN4asio6detail15op_queue_access7destroyINS0_10reactor_opEEEvPT_
FN:50,_ZN4asio6detail15op_queue_access5frontINS0_7wait_opEEERPT_RNS0_8op_queueIS4_EE
FN:50,_ZN4asio6detail15op_queue_access5frontINS0_10reactor_opEEERPT_RNS0_8op_queueIS4_EE
FN:50,_ZN4asio6detail15op_queue_access5frontINS0_19scheduler_operationEEERPT_RNS0_8op_queueIS4_EE
FN:56,_ZN4asio6detail15op_queue_access4backINS0_10reactor_opEEERPT_RNS0_8op_queueIS4_EE
FN:56,_ZN4asio6detail15op_queue_access4backINS0_19scheduler_operationEEERPT_RNS0_8op_queueIS4_EE
FN:56,_ZN4asio6detail15op_queue_access4backINS0_7wait_opEEERPT_RNS0_8op_queueIS4_EE
FN:68,_ZN4asio6detail8op_queueINS0_19scheduler_operationEEC2Ev
FN:68,_ZN4asio6detail8op_queueINS0_10reactor_opEEC2Ev
FN:68,_ZN4asio6detail8op_queueINS0_7wait_opEEC2Ev
FN:75,_ZN4asio6detail8op_queueINS0_19scheduler_operationEED2Ev
FN:75,_ZN4asio6detail8op_queueINS0_7wait_opEED2Ev
FN:75,_ZN4asio6detail8op_queueINS0_10reactor_opEED2Ev
FN:85,_ZN4asio6detail8op_queueINS0_10reactor_opEE5frontEv
FN:85,_ZN4asio6detail8op_queueINS0_19scheduler_operationEE5frontEv
FN:85,_ZN4asio6detail8op_queueINS0_7wait_opEE5frontEv
FN:91,_ZN4asio6detail8op_queueINS0_7wait_opEE3popEv
FN:91,_ZN4asio6detail8op_queueINS0_10reactor_opEE3popEv
FN:91,_ZN4asio6detail8op_queueINS0_19scheduler_operationEE3popEv
FN:104,_ZN4asio6detail8op_queueINS0_7wait_opEE4pushEPS2_
FN:104,_ZN4asio6detail8op_queueINS0_19scheduler_operationEE4pushEPS2_
FN:104,_ZN4asio6detail8op_queueINS0_10reactor_opEE4pushEPS2_
FN:121,_ZN4asio6detail8op_queueINS0_19scheduler_operationEE4pushIS2_EEvRNS1_IT_EE
FN:121,_ZN4asio6detail8op_queueINS0_19scheduler_operationEE4pushINS0_7wait_opEEEvRNS1_IT_EE
FN:121,_ZN4asio6detail8op_queueINS0_19scheduler_operationEE4pushINS0_10reactor_opEEEvRNS1_IT_EE
FN:136,_ZNK4asio6detail8op_queueINS0_19scheduler_operationEE5emptyEv
FN:136,_ZNK4asio6detail8op_queueINS0_10reactor_opEE5emptyEv
FN:136,_ZNK4asio6detail8op_queueINS0_7wait_opEE5emptyEv
FN:142,_ZNK4asio6detail8op_queueINS0_19scheduler_operationEE11is_enqueuedEPS2_
FNDA:0,_ZN4asio6detail15op_queue_access4nextINS0_7wait_opEEEPT_S5_
FNDA:0,_ZN4asio6detail15op_queue_access4nextINS0_19scheduler_operationEEEPT_S5_
FNDA:0,_ZN4asio6detail15op_queue_access4nextINS0_10reactor_opEEEPT_S5_
FNDA:0,_ZN4asio6detail15op_queue_access4nextINS0_7wait_opES3_EEvRPT_PT0_
FNDA:0,_ZN4asio6detail15op_queue_access4nextINS0_10reactor_opES3_EEvRPT_PT0_
FNDA:0,_ZN4asio6detail15op_queue_access4nextINS0_19scheduler_operationES3_EEvRPT_PT0_
FNDA:0,_ZN4asio6detail15op_queue_access7destroyINS0_7wait_opEEEvPT_
FNDA:0,_ZN4asio6detail15op_queue_access7destroyINS0_10reactor_opEEEvPT_
FNDA:0,_ZN4asio6detail15op_queue_access7destroyINS0_19scheduler_operationEEEvPT_
FNDA:0,_ZN4asio6detail15op_queue_access5frontINS0_7wait_opEEERPT_RNS0_8op_queueIS4_EE
FNDA:0,_ZN4asio6detail15op_queue_access5frontINS0_19scheduler_operationEEERPT_RNS0_8op_queueIS4_EE
FNDA:0,_ZN4asio6detail15op_queue_access5frontINS0_10reactor_opEEERPT_RNS0_8op_queueIS4_EE
FNDA:0,_ZN4asio6detail15op_queue_access4backINS0_7wait_opEEERPT_RNS0_8op_queueIS4_EE
FNDA:0,_ZN4asio6detail15op_queue_access4backINS0_19scheduler_operationEEERPT_RNS0_8op_queueIS4_EE
FNDA:0,_ZN4asio6detail15op_queue_access4backINS0_10reactor_opEEERPT_RNS0_8op_queueIS4_EE
FNDA:0,_ZN4asio6detail8op_queueINS0_7wait_opEEC2Ev
FNDA:0,_ZN4asio6detail8op_queueINS0_10reactor_opEEC2Ev
FNDA:0,_ZN4asio6detail8op_queueINS0_19scheduler_operationEEC2Ev
FNDA:0,_ZN4asio6detail8op_queueINS0_7wait_opEED2Ev
FNDA:0,_ZN4asio6detail8op_queueINS0_10reactor_opEED2Ev
FNDA:0,_ZN4asio6detail8op_queueINS0_19scheduler_operationEED2Ev
FNDA:0,_ZN4asio6detail8op_queueINS0_7wait_opEE5frontEv
FNDA:0,_ZN4asio6detail8op_queueINS0_19scheduler_operationEE5frontEv
FNDA:0,_ZN4asio6detail8op_queueINS0_10reactor_opEE5frontEv
FNDA:0,_ZN4asio6detail8op_queueINS0_7wait_opEE3popEv
FNDA:0,_ZN4asio6detail8op_queueINS0_19scheduler_operationEE3popEv
FNDA:0,_ZN4asio6detail8op_queueINS0_10reactor_opEE3popEv
FNDA:0,_ZN4asio6detail8op_queueINS0_7wait_opEE4pushEPS2_
FNDA:0,_ZN4asio6detail8op_queueINS0_19scheduler_operationEE4pushEPS2_
FNDA:0,_ZN4asio6detail8op_queueINS0_10reactor_opEE4pushEPS2_
FNDA:0,_ZN4asio6detail8op_queueINS0_19scheduler_operationEE4pushINS0_7wait_opEEEvRNS1_IT_EE
FNDA:0,_ZN4asio6detail8op_queueINS0_19scheduler_operationEE4pushIS2_EEvRNS1_IT_EE
FNDA:0,_ZN4asio6detail8op_queueINS0_19scheduler_operationEE4pushINS0_10reactor_opEEEvRNS1_IT_EE
FNDA:0,_ZNK4asio6detail8op_queueINS0_7wait_opEE5emptyEv
FNDA:0,_ZNK4asio6detail8op_queueINS0_19scheduler_operationEE5emptyEv
FNDA:0,_ZNK4asio6detail8op_queueINS0_10reactor_opEE5emptyEv
FNDA:0,_ZNK4asio6detail8op_queueINS0_19scheduler_operationEE11is_enqueuedEPS2_
FNF:37
FNH:0
DA:32,0
DA:34,0
DA:38,0
DA:40,0
DA:41,0
DA:44,0
DA:46,0
DA:47,0
DA:50,0
DA:52,0
DA:56,0
DA:58,0
DA:68,0
DA:70,0
DA:72,0
DA:75,0
DA:77,0
DA:79,0
DA:80,0
DA:82,0
DA:85,0
DA:87,0
DA:91,0
DA:93,0
DA:95,0
DA:96,0
DA:97,0
DA:98,0
DA:99,0
DA:101,0
DA:104,0
DA:106,0
DA:107,0
DA:109,0
DA:110,0
DA:114,0
DA:116,0
DA:121,0
DA:123,0
DA:125,0
DA:126,0
DA:128,0
DA:129,0
DA:130,0
DA:131,0
DA:133,0
DA:136,0
DA:138,0
DA:142,0
DA:144,0
LF:50
LH:0
end_of_record
SF:/home/tistrauss/.conan/data/asio/1.13.0/_/_/package/5ab84d6acfe1f23c4fae0ab88f26e3a396351ac9/include/asio/detail/posix_event.hpp
FN:39,_ZN4asio6detail11posix_eventD2Ev
FN:53,_ZN4asio6detail11posix_event10signal_allINS0_27conditionally_enabled_mutex11scoped_lockEEEvRT_
FN:63,_ZN4asio6detail11posix_event21unlock_and_signal_oneINS0_27conditionally_enabled_mutex11scoped_lockEEEvRT_
FN:75,_ZN4asio6detail11posix_event27maybe_unlock_and_signal_oneINS0_27conditionally_enabled_mutex11scoped_lockEEEbRT_
FN:90,_ZN4asio6detail11posix_event5clearINS0_27conditionally_enabled_mutex11scoped_lockEEEvRT_
FN:99,_ZN4asio6detail11posix_event4waitINS0_27conditionally_enabled_mutex11scoped_lockEEEvRT_
FNDA:0,_ZN4asio6detail11posix_eventD2Ev
FNDA:0,_ZN4asio6detail11posix_event10signal_allINS0_27conditionally_enabled_mutex11scoped_lockEEEvRT_
FNDA:0,_ZN4asio6detail11posix_event21unlock_and_signal_oneINS0_27conditionally_enabled_mutex11scoped_lockEEEvRT_
FNDA:0,_ZN4asio6detail11posix_event27maybe_unlock_and_signal_oneINS0_27conditionally_enabled_mutex11scoped_lockEEEbRT_
FNDA:0,_ZN4asio6detail11posix_event5clearINS0_27conditionally_enabled_mutex11scoped_lockEEEvRT_
FNDA:0,_ZN4asio6detail11posix_event4waitINS0_27conditionally_enabled_mutex11scoped_lockEEEvRT_
FNF:6
FNH:0
DA:39,0
DA:40,0
DA:41,0
DA:42,0
DA:53,0
DA:55,0
DA:57,0
DA:58,0
DA:59,0
DA:63,0
DA:65,0
DA:66,0
DA:67,0
DA:68,0
DA:69,0
DA:70,0
DA:71,0
DA:75,0
DA:77,0
DA:78,0
DA:79,0
DA:81,0
DA:82,0
DA:83,0
DA:85,0
DA:90,0
DA:92,0
DA:94,0
DA:95,0
DA:99,0
DA:101,0
DA:102,0
DA:104,0
DA:105,0
DA:106,0
DA:108,0
LF:36
LH:0
end_of_record
SF:/home/tistrauss/.conan/data/asio/1.13.0/_/_/package/5ab84d6acfe1f23c4fae0ab88f26e3a396351ac9/include/asio/detail/posix_global.hpp
FN:40,_ZN4asio6detail17posix_global_implINS_14system_contextEED2Ev
FNDA:0,_ZN4asio6detail17posix_global_implINS_14system_contextEED2Ev
FNF:1
FNH:0
DA:40,0
DA:42,0
DA:43,0
DA:58,3
LF:4
LH:1
end_of_record
SF:/home/tistrauss/.conan/data/asio/1.13.0/_/_/package/5ab84d6acfe1f23c4fae0ab88f26e3a396351ac9/include/asio/detail/posix_mutex.hpp
FN:43,_ZN4asio6detail11posix_mutexD2Ev
FN:49,_ZN4asio6detail11posix_mutex4lockEv
FN:55,_ZN4asio6detail11posix_mutex6unlockEv
FNDA:0,_ZN4asio6detail11posix_mutexD2Ev
FNDA:0,_ZN4asio6detail11posix_mutex4lockEv
FNDA:0,_ZN4asio6detail11posix_mutex6unlockEv
FNF:3
FNH:0
DA:43,0
DA:44,0
DA:45,0
DA:46,0
DA:49,0
DA:51,0
DA:52,0
DA:55,0
DA:57,0
DA:58,0
LF:10
LH:0
end_of_record
SF:/home/tistrauss/.conan/data/asio/1.13.0/_/_/package/5ab84d6acfe1f23c4fae0ab88f26e3a396351ac9/include/asio/detail/posix_signal_blocker.hpp
FN:37,_ZN4asio6detail20posix_signal_blockerC2Ev
FN:46,_ZN4asio6detail20posix_signal_blockerD2Ev
FNDA:0,_ZN4asio6detail20posix_signal_blockerC2Ev
FNDA:0,_ZN4asio6detail20posix_signal_blockerD2Ev
FNF:2
FNH:0
DA:37,0
DA:38,0
DA:41,0
DA:42,0
DA:43,0
DA:46,0
DA:47,0
DA:48,0
DA:49,0
DA:50,0
LF:10
LH:0
end_of_record
SF:/home/tistrauss/.conan/data/asio/1.13.0/_/_/package/5ab84d6acfe1f23c4fae0ab88f26e3a396351ac9/include/asio/detail/posix_thread.hpp
FN:42,_ZN4asio6detail12posix_threadC2INS0_21resolver_service_base21work_scheduler_runnerEEET_j
FN:42,_ZN4asio6detail12posix_threadC2INS0_9scheduler15thread_functionEEET_j
FN:60,_ZN4asio6detail12posix_thread9func_baseC2Ev
FN:63,_ZN4asio6detail12posix_thread9func_baseD2Ev
FN:63,_ZN4asio6detail12posix_thread9func_baseD0Ev
FN:70,_ZN4asio6detail12posix_thread18auto_func_base_ptrD2Ev
FN:74,_ZN4asio6detail12posix_thread4funcINS0_9scheduler15thread_functionEED0Ev
FN:74,_ZN4asio6detail12posix_thread4funcINS0_9scheduler15thread_functionEED2Ev
FN:74,_ZN4asio6detail12posix_thread4funcINS0_21resolver_service_base21work_scheduler_runnerEED2Ev
FN:74,_ZN4asio6detail12posix_thread4funcINS0_21resolver_service_base21work_scheduler_runnerEED0Ev
FN:78,_ZN4asio6detail12posix_thread4funcINS0_21resolver_service_base21work_scheduler_runnerEEC2ES4_
FN:78,_ZN4asio6detail12posix_thread4funcINS0_9scheduler15thread_functionEEC2ES4_
FN:83,_ZN4asio6detail12posix_thread4funcINS0_21resolver_service_base21work_scheduler_runnerEE3runEv
FN:83,_ZN4asio6detail12posix_thread4funcINS0_9scheduler15thread_functionEE3runEv
FNDA:0,_ZN4asio6detail12posix_threadC2INS0_21resolver_service_base21work_scheduler_runnerEEET_j
FNDA:0,_ZN4asio6detail12posix_threadC2INS0_9scheduler15thread_functionEEET_j
FNDA:0,_ZN4asio6detail12posix_thread9func_baseC2Ev
FNDA:0,_ZN4asio6detail12posix_thread9func_baseD0Ev
FNDA:0,_ZN4asio6detail12posix_thread9func_baseD2Ev
FNDA:0,_ZN4asio6detail12posix_thread18auto_func_base_ptrD2Ev
FNDA:0,_ZN4asio6detail12posix_thread4funcINS0_9scheduler15thread_functionEED0Ev
FNDA:0,_ZN4asio6detail12posix_thread4funcINS0_9scheduler15thread_functionEED2Ev
FNDA:0,_ZN4asio6detail12posix_thread4funcINS0_21resolver_service_base21work_scheduler_runnerEED0Ev
FNDA:0,_ZN4asio6detail12posix_thread4funcINS0_21resolver_service_base21work_scheduler_runnerEED2Ev
FNDA:0,_ZN4asio6detail12posix_thread4funcINS0_21resolver_service_base21work_scheduler_runnerEEC2ES4_
FNDA:0,_ZN4asio6detail12posix_thread4funcINS0_9scheduler15thread_functionEEC2ES4_
FNDA:0,_ZN4asio6detail12posix_thread4funcINS0_9scheduler15thread_functionEE3runEv
FNDA:0,_ZN4asio6detail12posix_thread4funcINS0_21resolver_service_base21work_scheduler_runnerEE3runEv
FNF:14
FNH:0
DA:42,0
DA:43,0
DA:45,0
DA:46,0
DA:60,0
DA:63,0
DA:70,0
DA:74,0
DA:78,0
DA:79,0
DA:81,0
DA:83,0
DA:85,0
DA:86,0
LF:14
LH:0
end_of_record
SF:/home/tistrauss/.conan/data/asio/1.13.0/_/_/package/5ab84d6acfe1f23c4fae0ab88f26e3a396351ac9/include/asio/detail/reactive_socket_connect_op.hpp
FN:31,_ZN4asio6detail31reactive_socket_connect_op_baseD2Ev
FN:34,_ZN4asio6detail31reactive_socket_connect_op_baseC2EiPFvPvPNS0_19scheduler_operationERKSt10error_codemE
FN:40,_ZN4asio6detail31reactive_socket_connect_op_base10do_performEPNS0_10reactor_opE
FN:58,_ZN4asio6detail26reactive_socket_connect_opINS0_16range_connect_opINS_2ip3tcpENS_8executorENS3_22basic_resolver_resultsIS4_EENS0_25default_connect_conditionEZZN9SimpleWeb12SocketClientINS_19basic_stream_socketIS4_S5_EEE7connectEvENKUlRKSt10error_codeS7_E_clESG_S7_EUlSG_NS3_14basic_endpointIS4_EEE_EENS0_18io_object_executorIS5_EEED2Ev
FN:61,_ZN4asio6detail26reactive_socket_connect_opINS0_16range_connect_opINS_2ip3tcpENS_8executorENS3_22basic_resolver_resultsIS4_EENS0_25default_connect_conditionEZZN9SimpleWeb12SocketClientINS_19basic_stream_socketIS4_S5_EEE7connectEvENKUlRKSt10error_codeS7_E_clESG_S7_EUlSG_NS3_14basic_endpointIS4_EEE_EENS0_18io_object_executorIS5_EEE3ptr8allocateERSL_
FN:61,_ZN4asio6detail26reactive_socket_connect_opINS0_16range_connect_opINS_2ip3tcpENS_8executorENS3_22basic_resolver_resultsIS4_EENS0_25default_connect_conditionEZZN9SimpleWeb12SocketClientINS_19basic_stream_socketIS4_S5_EEE7connectEvENKUlRKSt10error_codeS7_E_clESG_S7_EUlSG_NS3_14basic_endpointIS4_EEE_EENS0_18io_object_executorIS5_EEE3ptrD2Ev
FN:61,_ZN4asio6detail26reactive_socket_connect_opINS0_16range_connect_opINS_2ip3tcpENS_8executorENS3_22basic_resolver_resultsIS4_EENS0_25default_connect_conditionEZZN9SimpleWeb12SocketClientINS_19basic_stream_socketIS4_S5_EEE7connectEvENKUlRKSt10error_codeS7_E_clESG_S7_EUlSG_NS3_14basic_endpointIS4_EEE_EENS0_18io_object_executorIS5_EEE3ptr5resetEv
FN:63,_ZN4asio6detail26reactive_socket_connect_opINS0_16range_connect_opINS_2ip3tcpENS_8executorENS3_22basic_resolver_resultsIS4_EENS0_25default_connect_conditionEZZN9SimpleWeb12SocketClientINS_19basic_stream_socketIS4_S5_EEE7connectEvENKUlRKSt10error_codeS7_E_clESG_S7_EUlSG_NS3_14basic_endpointIS4_EEE_EENS0_18io_object_executorIS5_EEEC2EiRSL_RKSN_
FN:73,_ZN4asio6detail26reactive_socket_connect_opINS0_16range_connect_opINS_2ip3tcpENS_8executorENS3_22basic_resolver_resultsIS4_EENS0_25default_connect_conditionEZZN9SimpleWeb12SocketClientINS_19basic_stream_socketIS4_S5_EEE7connectEvENKUlRKSt10error_codeS7_E_clESG_S7_EUlSG_NS3_14basic_endpointIS4_EEE_EENS0_18io_object_executorIS5_EEE11do_completeEPvPNS0_19scheduler_operationESG_m
FNDA:0,_ZN4asio6detail31reactive_socket_connect_op_baseD2Ev
FNDA:0,_ZN4asio6detail31reactive_socket_connect_op_baseC2EiPFvPvPNS0_19scheduler_operationERKSt10error_codemE
FNDA:0,_ZN4asio6detail31reactive_socket_connect_op_base10do_performEPNS0_10reactor_opE
FNDA:0,_ZN4asio6detail26reactive_socket_connect_opINS0_16range_connect_opINS_2ip3tcpENS_8executorENS3_22basic_resolver_resultsIS4_EENS0_25default_connect_conditionEZZN9SimpleWeb12SocketClientINS_19basic_stream_socketIS4_S5_EEE7connectEvENKUlRKSt10error_codeS7_E_clESG_S7_EUlSG_NS3_14basic_endpointIS4_EEE_EENS0_18io_object_executorIS5_EEED2Ev
FNDA:0,_ZN4asio6detail26reactive_socket_connect_opINS0_16range_connect_opINS_2ip3tcpENS_8executorENS3_22basic_resolver_resultsIS4_EENS0_25default_connect_conditionEZZN9SimpleWeb12SocketClientINS_19basic_stream_socketIS4_S5_EEE7connectEvENKUlRKSt10error_codeS7_E_clESG_S7_EUlSG_NS3_14basic_endpointIS4_EEE_EENS0_18io_object_executorIS5_EEE3ptr5resetEv
FNDA:0,_ZN4asio6detail26reactive_socket_connect_opINS0_16range_connect_opINS_2ip3tcpENS_8executorENS3_22basic_resolver_resultsIS4_EENS0_25default_connect_conditionEZZN9SimpleWeb12SocketClientINS_19basic_stream_socketIS4_S5_EEE7connectEvENKUlRKSt10error_codeS7_E_clESG_S7_EUlSG_NS3_14basic_endpointIS4_EEE_EENS0_18io_object_executorIS5_EEE3ptrD2Ev
FNDA:0,_ZN4asio6detail26reactive_socket_connect_opINS0_16range_connect_opINS_2ip3tcpENS_8executorENS3_22basic_resolver_resultsIS4_EENS0_25default_connect_conditionEZZN9SimpleWeb12SocketClientINS_19basic_stream_socketIS4_S5_EEE7connectEvENKUlRKSt10error_codeS7_E_clESG_S7_EUlSG_NS3_14basic_endpointIS4_EEE_EENS0_18io_object_executorIS5_EEE3ptr8allocateERSL_
FNDA:0,_ZN4asio6detail26reactive_socket_connect_opINS0_16range_connect_opINS_2ip3tcpENS_8executorENS3_22basic_resolver_resultsIS4_EENS0_25default_connect_conditionEZZN9SimpleWeb12SocketClientINS_19basic_stream_socketIS4_S5_EEE7connectEvENKUlRKSt10error_codeS7_E_clESG_S7_EUlSG_NS3_14basic_endpointIS4_EEE_EENS0_18io_object_executorIS5_EEEC2EiRSL_RKSN_
FNDA:0,_ZN4asio6detail26reactive_socket_connect_opINS0_16range_connect_opINS_2ip3tcpENS_8executorENS3_22basic_resolver_resultsIS4_EENS0_25default_connect_conditionEZZN9SimpleWeb12SocketClientINS_19basic_stream_socketIS4_S5_EEE7connectEvENKUlRKSt10error_codeS7_E_clESG_S7_EUlSG_NS3_14basic_endpointIS4_EEE_EENS0_18io_object_executorIS5_EEE11do_completeEPvPNS0_19scheduler_operationESG_m
FNF:9
FNH:0
DA:31,0
DA:34,0
DA:35,0
DA:36,0
DA:38,0
DA:40,0
DA:42,0
DA:45,0
DA:46,0
DA:50,0
DA:58,0
DA:61,0
DA:63,0
DA:68,0
DA:70,0
DA:71,0
DA:73,0
DA:78,0
DA:80,0
DA:81,0
DA:92,0
DA:93,0
DA:94,0
DA:97,0
DA:99,0
DA:101,0
DA:104,0
LF:27
LH:0
end_of_record
SF:/home/tistrauss/.conan/data/asio/1.13.0/_/_/package/5ab84d6acfe1f23c4fae0ab88f26e3a396351ac9/include/asio/detail/reactive_socket_recv_op.hpp
FN:32,_ZN4asio6detail28reactive_socket_recv_op_baseINS_17mutable_buffers_1EED2Ev
FN:35,_ZN4asio6detail28reactive_socket_recv_op_baseINS_17mutable_buffers_1EEC2EihRKS2_iPFvPvPNS0_19scheduler_operationERKSt10error_codemE
FN:46,_ZN4asio6detail28reactive_socket_recv_op_baseINS_17mutable_buffers_1EE10do_performEPNS0_10reactor_opE
FN:78,_ZN4asio6detail23reactive_socket_recv_opINS_17mutable_buffers_1ENS0_17read_dynbuf_v1_opINS_19basic_stream_socketINS_2ip3tcpENS_8executorEEENS_19basic_streambuf_refISaIcEEENS0_18transfer_exactly_tEZZN9SimpleWeb16SocketClientBaseIS8_E12read_messageERKSt10shared_ptrINSF_10ConnectionEEmENKUlRKSt10error_codemE_clESN_mEUlSN_mE_EENS0_18io_object_executorIS7_EEED2Ev
FN:78,_ZN4asio6detail23reactive_socket_recv_opINS_17mutable_buffers_1ENS0_17read_dynbuf_v1_opINS_19basic_stream_socketINS_2ip3tcpENS_8executorEEENS_19basic_streambuf_refISaIcEEENS0_18transfer_exactly_tEZN9SimpleWeb16SocketClientBaseIS8_E12read_messageERKSt10shared_ptrINSF_10ConnectionEEmEUlRKSt10error_codemE_EENS0_18io_object_executorIS7_EEED2Ev
FN:78,_ZN4asio6detail23reactive_socket_recv_opINS_17mutable_buffers_1ENS0_29read_until_delim_string_op_v1INS_19basic_stream_socketINS_2ip3tcpENS_8executorEEENS_19basic_streambuf_refISaIcEEEZZN9SimpleWeb16SocketClientBaseIS8_E7upgradeERKSt10shared_ptrINSE_10ConnectionEEENKUlRKSt10error_codemE_clESM_mEUlSM_mE_EENS0_18io_object_executorIS7_EEED2Ev
FN:78,_ZN4asio6detail23reactive_socket_recv_opINS_17mutable_buffers_1ENS0_17read_dynbuf_v1_opINS_19basic_stream_socketINS_2ip3tcpENS_8executorEEENS_19basic_streambuf_refISaIcEEENS0_18transfer_exactly_tEZZN9SimpleWeb16SocketClientBaseIS8_E12read_messageERKSt10shared_ptrINSF_10ConnectionEEmENKUlRKSt10error_codemE_clESN_mEUlSN_mE0_EENS0_18io_object_executorIS7_EEED2Ev
FN:78,_ZN4asio6detail23reactive_socket_recv_opINS_17mutable_buffers_1ENS0_17read_dynbuf_v1_opINS_19basic_stream_socketINS_2ip3tcpENS_8executorEEENS_19basic_streambuf_refISaIcEEENS0_18transfer_exactly_tEZN9SimpleWeb16SocketClientBaseIS8_E20read_message_contentERKSt10shared_ptrINSF_10ConnectionEEmEUlRKSt10error_codemE_EENS0_18io_object_executorIS7_EEED2Ev
FN:82,_ZN4asio6detail23reactive_socket_recv_opINS_17mutable_buffers_1ENS0_17read_dynbuf_v1_opINS_19basic_stream_socketINS_2ip3tcpENS_8executorEEENS_19basic_streambuf_refISaIcEEENS0_18transfer_exactly_tEZZN9SimpleWeb16SocketClientBaseIS8_E12read_messageERKSt10shared_ptrINSF_10ConnectionEEmENKUlRKSt10error_codemE_clESN_mEUlSN_mE0_EENS0_18io_object_executorIS7_EEE3ptr5resetEv
FN:82,_ZN4asio6detail23reactive_socket_recv_opINS_17mutable_buffers_1ENS0_17read_dynbuf_v1_opINS_19basic_stream_socketINS_2ip3tcpENS_8executorEEENS_19basic_streambuf_refISaIcEEENS0_18transfer_exactly_tEZN9SimpleWeb16SocketClientBaseIS8_E20read_message_contentERKSt10shared_ptrINSF_10ConnectionEEmEUlRKSt10error_codemE_EENS0_18io_object_executorIS7_EEE3ptrD2Ev
FN:82,_ZN4asio6detail23reactive_socket_recv_opINS_17mutable_buffers_1ENS0_29read_until_delim_string_op_v1INS_19basic_stream_socketINS_2ip3tcpENS_8executorEEENS_19basic_streambuf_refISaIcEEEZZN9SimpleWeb16SocketClientBaseIS8_E7upgradeERKSt10shared_ptrINSE_10ConnectionEEENKUlRKSt10error_codemE_clESM_mEUlSM_mE_EENS0_18io_object_executorIS7_EEE3ptrD2Ev
FN:82,_ZN4asio6detail23reactive_socket_recv_opINS_17mutable_buffers_1ENS0_17read_dynbuf_v1_opINS_19basic_stream_socketINS_2ip3tcpENS_8executorEEENS_19basic_streambuf_refISaIcEEENS0_18transfer_exactly_tEZZN9SimpleWeb16SocketClientBaseIS8_E12read_messageERKSt10shared_ptrINSF_10ConnectionEEmENKUlRKSt10error_codemE_clESN_mEUlSN_mE0_EENS0_18io_object_executorIS7_EEE3ptrD2Ev
FN:82,_ZN4asio6detail23reactive_socket_recv_opINS_17mutable_buffers_1ENS0_17read_dynbuf_v1_opINS_19basic_stream_socketINS_2ip3tcpENS_8executorEEENS_19basic_streambuf_refISaIcEEENS0_18transfer_exactly_tEZN9SimpleWeb16SocketClientBaseIS8_E12read_messageERKSt10shared_ptrINSF_10ConnectionEEmEUlRKSt10error_codemE_EENS0_18io_object_executorIS7_EEE3ptrD2Ev
FN:82,_ZN4asio6detail23reactive_socket_recv_opINS_17mutable_buffers_1ENS0_17read_dynbuf_v1_opINS_19basic_stream_socketINS_2ip3tcpENS_8executorEEENS_19basic_streambuf_refISaIcEEENS0_18transfer_exactly_tEZZN9SimpleWeb16SocketClientBaseIS8_E12read_messageERKSt10shared_ptrINSF_10ConnectionEEmENKUlRKSt10error_codemE_clESN_mEUlSN_mE_EENS0_18io_object_executorIS7_EEE3ptrD2Ev
FN:82,_ZN4asio6detail23reactive_socket_recv_opINS_17mutable_buffers_1ENS0_17read_dynbuf_v1_opINS_19basic_stream_socketINS_2ip3tcpENS_8executorEEENS_19basic_streambuf_refISaIcEEENS0_18transfer_exactly_tEZN9SimpleWeb16SocketClientBaseIS8_E12read_messageERKSt10shared_ptrINSF_10ConnectionEEmEUlRKSt10error_codemE_EENS0_18io_object_executorIS7_EEE3ptr8allocateERSP_
FN:82,_ZN4asio6detail23reactive_socket_recv_opINS_17mutable_buffers_1ENS0_17read_dynbuf_v1_opINS_19basic_stream_socketINS_2ip3tcpENS_8executorEEENS_19basic_streambuf_refISaIcEEENS0_18transfer_exactly_tEZZN9SimpleWeb16SocketClientBaseIS8_E12read_messageERKSt10shared_ptrINSF_10ConnectionEEmENKUlRKSt10error_codemE_clESN_mEUlSN_mE_EENS0_18io_object_executorIS7_EEE3ptr8allocateERSQ_
FN:82,_ZN4asio6detail23reactive_socket_recv_opINS_17mutable_buffers_1ENS0_17read_dynbuf_v1_opINS_19basic_stream_socketINS_2ip3tcpENS_8executorEEENS_19basic_streambuf_refISaIcEEENS0_18transfer_exactly_tEZN9SimpleWeb16SocketClientBaseIS8_E20read_message_contentERKSt10shared_ptrINSF_10ConnectionEEmEUlRKSt10error_codemE_EENS0_18io_object_executorIS7_EEE3ptr8allocateERSP_
FN:82,_ZN4asio6detail23reactive_socket_recv_opINS_17mutable_buffers_1ENS0_17read_dynbuf_v1_opINS_19basic_stream_socketINS_2ip3tcpENS_8executorEEENS_19basic_streambuf_refISaIcEEENS0_18transfer_exactly_tEZZN9SimpleWeb16SocketClientBaseIS8_E12read_messageERKSt10shared_ptrINSF_10ConnectionEEmENKUlRKSt10error_codemE_clESN_mEUlSN_mE_EENS0_18io_object_executorIS7_EEE3ptr5resetEv
FN:82,_ZN4asio6detail23reactive_socket_recv_opINS_17mutable_buffers_1ENS0_17read_dynbuf_v1_opINS_19basic_stream_socketINS_2ip3tcpENS_8executorEEENS_19basic_streambuf_refISaIcEEENS0_18transfer_exactly_tEZZN9SimpleWeb16SocketClientBaseIS8_E12read_messageERKSt10shared_ptrINSF_10ConnectionEEmENKUlRKSt10error_codemE_clESN_mEUlSN_mE0_EENS0_18io_object_executorIS7_EEE3ptr8allocateERSQ_
FN:82,_ZN4asio6detail23reactive_socket_recv_opINS_17mutable_buffers_1ENS0_17read_dynbuf_v1_opINS_19basic_stream_socketINS_2ip3tcpENS_8executorEEENS_19basic_streambuf_refISaIcEEENS0_18transfer_exactly_tEZN9SimpleWeb16SocketClientBaseIS8_E12read_messageERKSt10shared_ptrINSF_10ConnectionEEmEUlRKSt10error_codemE_EENS0_18io_object_executorIS7_EEE3ptr5resetEv
FN:82,_ZN4asio6detail23reactive_socket_recv_opINS_17mutable_buffers_1ENS0_17read_dynbuf_v1_opINS_19basic_stream_socketINS_2ip3tcpENS_8executorEEENS_19basic_streambuf_refISaIcEEENS0_18transfer_exactly_tEZN9SimpleWeb16SocketClientBaseIS8_E20read_message_contentERKSt10shared_ptrINSF_10ConnectionEEmEUlRKSt10error_codemE_EENS0_18io_object_executorIS7_EEE3ptr5resetEv
FN:82,_ZN4asio6detail23reactive_socket_recv_opINS_17mutable_buffers_1ENS0_29read_until_delim_string_op_v1INS_19basic_stream_socketINS_2ip3tcpENS_8executorEEENS_19basic_streambuf_refISaIcEEEZZN9SimpleWeb16SocketClientBaseIS8_E7upgradeERKSt10shared_ptrINSE_10ConnectionEEENKUlRKSt10error_codemE_clESM_mEUlSM_mE_EENS0_18io_object_executorIS7_EEE3ptr8allocateERSP_
FN:82,_ZN4asio6detail23reactive_socket_recv_opINS_17mutable_buffers_1ENS0_29read_until_delim_string_op_v1INS_19basic_stream_socketINS_2ip3tcpENS_8executorEEENS_19basic_streambuf_refISaIcEEEZZN9SimpleWeb16SocketClientBaseIS8_E7upgradeERKSt10shared_ptrINSE_10ConnectionEEENKUlRKSt10error_codemE_clESM_mEUlSM_mE_EENS0_18io_object_executorIS7_EEE3ptr5resetEv
FN:84,_ZN4asio6detail23reactive_socket_recv_opINS_17mutable_buffers_1ENS0_17read_dynbuf_v1_opINS_19basic_stream_socketINS_2ip3tcpENS_8executorEEENS_19basic_streambuf_refISaIcEEENS0_18transfer_exactly_tEZN9SimpleWeb16SocketClientBaseIS8_E20read_message_contentERKSt10shared_ptrINSF_10ConnectionEEmEUlRKSt10error_codemE_EENS0_18io_object_executorIS7_EEEC2EihRKS2_iRSP_RKSR_
FN:84,_ZN4asio6detail23reactive_socket_recv_opINS_17mutable_buffers_1ENS0_17read_dynbuf_v1_opINS_19basic_stream_socketINS_2ip3tcpENS_8executorEEENS_19basic_streambuf_refISaIcEEENS0_18transfer_exactly_tEZZN9SimpleWeb16SocketClientBaseIS8_E12read_messageERKSt10shared_ptrINSF_10ConnectionEEmENKUlRKSt10error_codemE_clESN_mEUlSN_mE0_EENS0_18io_object_executorIS7_EEEC2EihRKS2_iRSQ_RKSS_
FN:84,_ZN4asio6detail23reactive_socket_recv_opINS_17mutable_buffers_1ENS0_17read_dynbuf_v1_opINS_19basic_stream_socketINS_2ip3tcpENS_8executorEEENS_19basic_streambuf_refISaIcEEENS0_18transfer_exactly_tEZN9SimpleWeb16SocketClientBaseIS8_E12read_messageERKSt10shared_ptrINSF_10ConnectionEEmEUlRKSt10error_codemE_EENS0_18io_object_executorIS7_EEEC2EihRKS2_iRSP_RKSR_
FN:84,_ZN4asio6detail23reactive_socket_recv_opINS_17mutable_buffers_1ENS0_29read_until_delim_string_op_v1INS_19basic_stream_socketINS_2ip3tcpENS_8executorEEENS_19basic_streambuf_refISaIcEEEZZN9SimpleWeb16SocketClientBaseIS8_E7upgradeERKSt10shared_ptrINSE_10ConnectionEEENKUlRKSt10error_codemE_clESM_mEUlSM_mE_EENS0_18io_object_executorIS7_EEEC2EihRKS2_iRSP_RKSR_
FN:84,_ZN4asio6detail23reactive_socket_recv_opINS_17mutable_buffers_1ENS0_17read_dynbuf_v1_opINS_19basic_stream_socketINS_2ip3tcpENS_8executorEEENS_19basic_streambuf_refISaIcEEENS0_18transfer_exactly_tEZZN9SimpleWeb16SocketClientBaseIS8_E12read_messageERKSt10shared_ptrINSF_10ConnectionEEmENKUlRKSt10error_codemE_clESN_mEUlSN_mE_EENS0_18io_object_executorIS7_EEEC2EihRKS2_iRSQ_RKSS_
FN:95,_ZN4asio6detail23reactive_socket_recv_opINS_17mutable_buffers_1ENS0_17read_dynbuf_v1_opINS_19basic_stream_socketINS_2ip3tcpENS_8executorEEENS_19basic_streambuf_refISaIcEEENS0_18transfer_exactly_tEZN9SimpleWeb16SocketClientBaseIS8_E20read_message_contentERKSt10shared_ptrINSF_10ConnectionEEmEUlRKSt10error_codemE_EENS0_18io_object_executorIS7_EEE11do_completeEPvPNS0_19scheduler_operationESN_m
FN:95,_ZN4asio6detail23reactive_socket_recv_opINS_17mutable_buffers_1ENS0_17read_dynbuf_v1_opINS_19basic_stream_socketINS_2ip3tcpENS_8executorEEENS_19basic_streambuf_refISaIcEEENS0_18transfer_exactly_tEZZN9SimpleWeb16SocketClientBaseIS8_E12read_messageERKSt10shared_ptrINSF_10ConnectionEEmENKUlRKSt10error_codemE_clESN_mEUlSN_mE0_EENS0_18io_object_executorIS7_EEE11do_completeEPvPNS0_19scheduler_operationESN_m
FN:95,_ZN4asio6detail23reactive_socket_recv_opINS_17mutable_buffers_1ENS0_17read_dynbuf_v1_opINS_19basic_stream_socketINS_2ip3tcpENS_8executorEEENS_19basic_streambuf_refISaIcEEENS0_18transfer_exactly_tEZN9SimpleWeb16SocketClientBaseIS8_E12read_messageERKSt10shared_ptrINSF_10ConnectionEEmEUlRKSt10error_codemE_EENS0_18io_object_executorIS7_EEE11do_completeEPvPNS0_19scheduler_operationESN_m
FN:95,_ZN4asio6detail23reactive_socket_recv_opINS_17mutable_buffers_1ENS0_17read_dynbuf_v1_opINS_19basic_stream_socketINS_2ip3tcpENS_8executorEEENS_19basic_streambuf_refISaIcEEENS0_18transfer_exactly_tEZZN9SimpleWeb16SocketClientBaseIS8_E12read_messageERKSt10shared_ptrINSF_10ConnectionEEmENKUlRKSt10error_codemE_clESN_mEUlSN_mE_EENS0_18io_object_executorIS7_EEE11do_completeEPvPNS0_19scheduler_operationESN_m
FN:95,_ZN4asio6detail23reactive_socket_recv_opINS_17mutable_buffers_1ENS0_29read_until_delim_string_op_v1INS_19basic_stream_socketINS_2ip3tcpENS_8executorEEENS_19basic_streambuf_refISaIcEEEZZN9SimpleWeb16SocketClientBaseIS8_E7upgradeERKSt10shared_ptrINSE_10ConnectionEEENKUlRKSt10error_codemE_clESM_mEUlSM_mE_EENS0_18io_object_executorIS7_EEE11do_completeEPvPNS0_19scheduler_operationESM_m
FNDA:0,_ZN4asio6detail28reactive_socket_recv_op_baseINS_17mutable_buffers_1EED2Ev
FNDA:0,_ZN4asio6detail28reactive_socket_recv_op_baseINS_17mutable_buffers_1EEC2EihRKS2_iPFvPvPNS0_19scheduler_operationERKSt10error_codemE
FNDA:0,_ZN4asio6detail28reactive_socket_recv_op_baseINS_17mutable_buffers_1EE10do_performEPNS0_10reactor_opE
FNDA:0,_ZN4asio6detail23reactive_socket_recv_opINS_17mutable_buffers_1ENS0_17read_dynbuf_v1_opINS_19basic_stream_socketINS_2ip3tcpENS_8executorEEENS_19basic_streambuf_refISaIcEEENS0_18transfer_exactly_tEZN9SimpleWeb16SocketClientBaseIS8_E20read_message_contentERKSt10shared_ptrINSF_10ConnectionEEmEUlRKSt10error_codemE_EENS0_18io_object_executorIS7_EEED2Ev
FNDA:0,_ZN4asio6detail23reactive_socket_recv_opINS_17mutable_buffers_1ENS0_17read_dynbuf_v1_opINS_19basic_stream_socketINS_2ip3tcpENS_8executorEEENS_19basic_streambuf_refISaIcEEENS0_18transfer_exactly_tEZN9SimpleWeb16SocketClientBaseIS8_E12read_messageERKSt10shared_ptrINSF_10ConnectionEEmEUlRKSt10error_codemE_EENS0_18io_object_executorIS7_EEED2Ev
FNDA:0,_ZN4asio6detail23reactive_socket_recv_opINS_17mutable_buffers_1ENS0_17read_dynbuf_v1_opINS_19basic_stream_socketINS_2ip3tcpENS_8executorEEENS_19basic_streambuf_refISaIcEEENS0_18transfer_exactly_tEZZN9SimpleWeb16SocketClientBaseIS8_E12read_messageERKSt10shared_ptrINSF_10ConnectionEEmENKUlRKSt10error_codemE_clESN_mEUlSN_mE0_EENS0_18io_object_executorIS7_EEED2Ev
FNDA:0,_ZN4asio6detail23reactive_socket_recv_opINS_17mutable_buffers_1ENS0_17read_dynbuf_v1_opINS_19basic_stream_socketINS_2ip3tcpENS_8executorEEENS_19basic_streambuf_refISaIcEEENS0_18transfer_exactly_tEZZN9SimpleWeb16SocketClientBaseIS8_E12read_messageERKSt10shared_ptrINSF_10ConnectionEEmENKUlRKSt10error_codemE_clESN_mEUlSN_mE_EENS0_18io_object_executorIS7_EEED2Ev
FNDA:0,_ZN4asio6detail23reactive_socket_recv_opINS_17mutable_buffers_1ENS0_29read_until_delim_string_op_v1INS_19basic_stream_socketINS_2ip3tcpENS_8executorEEENS_19basic_streambuf_refISaIcEEEZZN9SimpleWeb16SocketClientBaseIS8_E7upgradeERKSt10shared_ptrINSE_10ConnectionEEENKUlRKSt10error_codemE_clESM_mEUlSM_mE_EENS0_18io_object_executorIS7_EEED2Ev
FNDA:0,_ZN4asio6detail23reactive_socket_recv_opINS_17mutable_buffers_1ENS0_17read_dynbuf_v1_opINS_19basic_stream_socketINS_2ip3tcpENS_8executorEEENS_19basic_streambuf_refISaIcEEENS0_18transfer_exactly_tEZN9SimpleWeb16SocketClientBaseIS8_E20read_message_contentERKSt10shared_ptrINSF_10ConnectionEEmEUlRKSt10error_codemE_EENS0_18io_object_executorIS7_EEE3ptr5resetEv
FNDA:0,_ZN4asio6detail23reactive_socket_recv_opINS_17mutable_buffers_1ENS0_17read_dynbuf_v1_opINS_19basic_stream_socketINS_2ip3tcpENS_8executorEEENS_19basic_streambuf_refISaIcEEENS0_18transfer_exactly_tEZN9SimpleWeb16SocketClientBaseIS8_E12read_messageERKSt10shared_ptrINSF_10ConnectionEEmEUlRKSt10error_codemE_EENS0_18io_object_executorIS7_EEE3ptr5resetEv
FNDA:0,_ZN4asio6detail23reactive_socket_recv_opINS_17mutable_buffers_1ENS0_17read_dynbuf_v1_opINS_19basic_stream_socketINS_2ip3tcpENS_8executorEEENS_19basic_streambuf_refISaIcEEENS0_18transfer_exactly_tEZZN9SimpleWeb16SocketClientBaseIS8_E12read_messageERKSt10shared_ptrINSF_10ConnectionEEmENKUlRKSt10error_codemE_clESN_mEUlSN_mE0_EENS0_18io_object_executorIS7_EEE3ptr5resetEv
FNDA:0,_ZN4asio6detail23reactive_socket_recv_opINS_17mutable_buffers_1ENS0_17read_dynbuf_v1_opINS_19basic_stream_socketINS_2ip3tcpENS_8executorEEENS_19basic_streambuf_refISaIcEEENS0_18transfer_exactly_tEZZN9SimpleWeb16SocketClientBaseIS8_E12read_messageERKSt10shared_ptrINSF_10ConnectionEEmENKUlRKSt10error_codemE_clESN_mEUlSN_mE_EENS0_18io_object_executorIS7_EEE3ptr5resetEv
FNDA:0,_ZN4asio6detail23reactive_socket_recv_opINS_17mutable_buffers_1ENS0_17read_dynbuf_v1_opINS_19basic_stream_socketINS_2ip3tcpENS_8executorEEENS_19basic_streambuf_refISaIcEEENS0_18transfer_exactly_tEZN9SimpleWeb16SocketClientBaseIS8_E20read_message_contentERKSt10shared_ptrINSF_10ConnectionEEmEUlRKSt10error_codemE_EENS0_18io_object_executorIS7_EEE3ptrD2Ev
FNDA:0,_ZN4asio6detail23reactive_socket_recv_opINS_17mutable_buffers_1ENS0_17read_dynbuf_v1_opINS_19basic_stream_socketINS_2ip3tcpENS_8executorEEENS_19basic_streambuf_refISaIcEEENS0_18transfer_exactly_tEZN9SimpleWeb16SocketClientBaseIS8_E20read_message_contentERKSt10shared_ptrINSF_10ConnectionEEmEUlRKSt10error_codemE_EENS0_18io_object_executorIS7_EEE3ptr8allocateERSP_
FNDA:0,_ZN4asio6detail23reactive_socket_recv_opINS_17mutable_buffers_1ENS0_29read_until_delim_string_op_v1INS_19basic_stream_socketINS_2ip3tcpENS_8executorEEENS_19basic_streambuf_refISaIcEEEZZN9SimpleWeb16SocketClientBaseIS8_E7upgradeERKSt10shared_ptrINSE_10ConnectionEEENKUlRKSt10error_codemE_clESM_mEUlSM_mE_EENS0_18io_object_executorIS7_EEE3ptr5resetEv
FNDA:0,_ZN4asio6detail23reactive_socket_recv_opINS_17mutable_buffers_1ENS0_17read_dynbuf_v1_opINS_19basic_stream_socketINS_2ip3tcpENS_8executorEEENS_19basic_streambuf_refISaIcEEENS0_18transfer_exactly_tEZN9SimpleWeb16SocketClientBaseIS8_E12read_messageERKSt10shared_ptrINSF_10ConnectionEEmEUlRKSt10error_codemE_EENS0_18io_object_executorIS7_EEE3ptrD2Ev
FNDA:0,_ZN4asio6detail23reactive_socket_recv_opINS_17mutable_buffers_1ENS0_17read_dynbuf_v1_opINS_19basic_stream_socketINS_2ip3tcpENS_8executorEEENS_19basic_streambuf_refISaIcEEENS0_18transfer_exactly_tEZN9SimpleWeb16SocketClientBaseIS8_E12read_messageERKSt10shared_ptrINSF_10ConnectionEEmEUlRKSt10error_codemE_EENS0_18io_object_executorIS7_EEE3ptr8allocateERSP_
FNDA:0,_ZN4asio6detail23reactive_socket_recv_opINS_17mutable_buffers_1ENS0_17read_dynbuf_v1_opINS_19basic_stream_socketINS_2ip3tcpENS_8executorEEENS_19basic_streambuf_refISaIcEEENS0_18transfer_exactly_tEZZN9SimpleWeb16SocketClientBaseIS8_E12read_messageERKSt10shared_ptrINSF_10ConnectionEEmENKUlRKSt10error_codemE_clESN_mEUlSN_mE0_EENS0_18io_object_executorIS7_EEE3ptrD2Ev
FNDA:0,_ZN4asio6detail23reactive_socket_recv_opINS_17mutable_buffers_1ENS0_17read_dynbuf_v1_opINS_19basic_stream_socketINS_2ip3tcpENS_8executorEEENS_19basic_streambuf_refISaIcEEENS0_18transfer_exactly_tEZZN9SimpleWeb16SocketClientBaseIS8_E12read_messageERKSt10shared_ptrINSF_10ConnectionEEmENKUlRKSt10error_codemE_clESN_mEUlSN_mE0_EENS0_18io_object_executorIS7_EEE3ptr8allocateERSQ_
FNDA:0,_ZN4asio6detail23reactive_socket_recv_opINS_17mutable_buffers_1ENS0_17read_dynbuf_v1_opINS_19basic_stream_socketINS_2ip3tcpENS_8executorEEENS_19basic_streambuf_refISaIcEEENS0_18transfer_exactly_tEZZN9SimpleWeb16SocketClientBaseIS8_E12read_messageERKSt10shared_ptrINSF_10ConnectionEEmENKUlRKSt10error_codemE_clESN_mEUlSN_mE_EENS0_18io_object_executorIS7_EEE3ptrD2Ev
FNDA:0,_ZN4asio6detail23reactive_socket_recv_opINS_17mutable_buffers_1ENS0_17read_dynbuf_v1_opINS_19basic_stream_socketINS_2ip3tcpENS_8executorEEENS_19basic_streambuf_refISaIcEEENS0_18transfer_exactly_tEZZN9SimpleWeb16SocketClientBaseIS8_E12read_messageERKSt10shared_ptrINSF_10ConnectionEEmENKUlRKSt10error_codemE_clESN_mEUlSN_mE_EENS0_18io_object_executorIS7_EEE3ptr8allocateERSQ_
FNDA:0,_ZN4asio6detail23reactive_socket_recv_opINS_17mutable_buffers_1ENS0_29read_until_delim_string_op_v1INS_19basic_stream_socketINS_2ip3tcpENS_8executorEEENS_19basic_streambuf_refISaIcEEEZZN9SimpleWeb16SocketClientBaseIS8_E7upgradeERKSt10shared_ptrINSE_10ConnectionEEENKUlRKSt10error_codemE_clESM_mEUlSM_mE_EENS0_18io_object_executorIS7_EEE3ptrD2Ev
FNDA:0,_ZN4asio6detail23reactive_socket_recv_opINS_17mutable_buffers_1ENS0_29read_until_delim_string_op_v1INS_19basic_stream_socketINS_2ip3tcpENS_8executorEEENS_19basic_streambuf_refISaIcEEEZZN9SimpleWeb16SocketClientBaseIS8_E7upgradeERKSt10shared_ptrINSE_10ConnectionEEENKUlRKSt10error_codemE_clESM_mEUlSM_mE_EENS0_18io_object_executorIS7_EEE3ptr8allocateERSP_
FNDA:0,_ZN4asio6detail23reactive_socket_recv_opINS_17mutable_buffers_1ENS0_17read_dynbuf_v1_opINS_19basic_stream_socketINS_2ip3tcpENS_8executorEEENS_19basic_streambuf_refISaIcEEENS0_18transfer_exactly_tEZN9SimpleWeb16SocketClientBaseIS8_E20read_message_contentERKSt10shared_ptrINSF_10ConnectionEEmEUlRKSt10error_codemE_EENS0_18io_object_executorIS7_EEEC2EihRKS2_iRSP_RKSR_
FNDA:0,_ZN4asio6detail23reactive_socket_recv_opINS_17mutable_buffers_1ENS0_17read_dynbuf_v1_opINS_19basic_stream_socketINS_2ip3tcpENS_8executorEEENS_19basic_streambuf_refISaIcEEENS0_18transfer_exactly_tEZN9SimpleWeb16SocketClientBaseIS8_E12read_messageERKSt10shared_ptrINSF_10ConnectionEEmEUlRKSt10error_codemE_EENS0_18io_object_executorIS7_EEEC2EihRKS2_iRSP_RKSR_
FNDA:0,_ZN4asio6detail23reactive_socket_recv_opINS_17mutable_buffers_1ENS0_17read_dynbuf_v1_opINS_19basic_stream_socketINS_2ip3tcpENS_8executorEEENS_19basic_streambuf_refISaIcEEENS0_18transfer_exactly_tEZZN9SimpleWeb16SocketClientBaseIS8_E12read_messageERKSt10shared_ptrINSF_10ConnectionEEmENKUlRKSt10error_codemE_clESN_mEUlSN_mE0_EENS0_18io_object_executorIS7_EEEC2EihRKS2_iRSQ_RKSS_
FNDA:0,_ZN4asio6detail23reactive_socket_recv_opINS_17mutable_buffers_1ENS0_17read_dynbuf_v1_opINS_19basic_stream_socketINS_2ip3tcpENS_8executorEEENS_19basic_streambuf_refISaIcEEENS0_18transfer_exactly_tEZZN9SimpleWeb16SocketClientBaseIS8_E12read_messageERKSt10shared_ptrINSF_10ConnectionEEmENKUlRKSt10error_codemE_clESN_mEUlSN_mE_EENS0_18io_object_executorIS7_EEEC2EihRKS2_iRSQ_RKSS_
FNDA:0,_ZN4asio6detail23reactive_socket_recv_opINS_17mutable_buffers_1ENS0_29read_until_delim_string_op_v1INS_19basic_stream_socketINS_2ip3tcpENS_8executorEEENS_19basic_streambuf_refISaIcEEEZZN9SimpleWeb16SocketClientBaseIS8_E7upgradeERKSt10shared_ptrINSE_10ConnectionEEENKUlRKSt10error_codemE_clESM_mEUlSM_mE_EENS0_18io_object_executorIS7_EEEC2EihRKS2_iRSP_RKSR_
FNDA:0,_ZN4asio6detail23reactive_socket_recv_opINS_17mutable_buffers_1ENS0_17read_dynbuf_v1_opINS_19basic_stream_socketINS_2ip3tcpENS_8executorEEENS_19basic_streambuf_refISaIcEEENS0_18transfer_exactly_tEZN9SimpleWeb16SocketClientBaseIS8_E20read_message_contentERKSt10shared_ptrINSF_10ConnectionEEmEUlRKSt10error_codemE_EENS0_18io_object_executorIS7_EEE11do_completeEPvPNS0_19scheduler_operationESN_m
FNDA:0,_ZN4asio6detail23reactive_socket_recv_opINS_17mutable_buffers_1ENS0_17read_dynbuf_v1_opINS_19basic_stream_socketINS_2ip3tcpENS_8executorEEENS_19basic_streambuf_refISaIcEEENS0_18transfer_exactly_tEZN9SimpleWeb16SocketClientBaseIS8_E12read_messageERKSt10shared_ptrINSF_10ConnectionEEmEUlRKSt10error_codemE_EENS0_18io_object_executorIS7_EEE11do_completeEPvPNS0_19scheduler_operationESN_m
FNDA:0,_ZN4asio6detail23reactive_socket_recv_opINS_17mutable_buffers_1ENS0_17read_dynbuf_v1_opINS_19basic_stream_socketINS_2ip3tcpENS_8executorEEENS_19basic_streambuf_refISaIcEEENS0_18transfer_exactly_tEZZN9SimpleWeb16SocketClientBaseIS8_E12read_messageERKSt10shared_ptrINSF_10ConnectionEEmENKUlRKSt10error_codemE_clESN_mEUlSN_mE0_EENS0_18io_object_executorIS7_EEE11do_completeEPvPNS0_19scheduler_operationESN_m
FNDA:0,_ZN4asio6detail23reactive_socket_recv_opINS_17mutable_buffers_1ENS0_17read_dynbuf_v1_opINS_19basic_stream_socketINS_2ip3tcpENS_8executorEEENS_19basic_streambuf_refISaIcEEENS0_18transfer_exactly_tEZZN9SimpleWeb16SocketClientBaseIS8_E12read_messageERKSt10shared_ptrINSF_10ConnectionEEmENKUlRKSt10error_codemE_clESN_mEUlSN_mE_EENS0_18io_object_executorIS7_EEE11do_completeEPvPNS0_19scheduler_operationESN_m
FNDA:0,_ZN4asio6detail23reactive_socket_recv_opINS_17mutable_buffers_1ENS0_29read_until_delim_string_op_v1INS_19basic_stream_socketINS_2ip3tcpENS_8executorEEENS_19basic_streambuf_refISaIcEEEZZN9SimpleWeb16SocketClientBaseIS8_E7upgradeERKSt10shared_ptrINSE_10ConnectionEEENKUlRKSt10error_codemE_clESM_mEUlSM_mE_EENS0_18io_object_executorIS7_EEE11do_completeEPvPNS0_19scheduler_operationESM_m
FNF:33
FNH:0
DA:32,0
DA:35,0
DA:42,0
DA:44,0
DA:46,0
DA:48,0
DA:52,0
DA:54,0
DA:56,0
DA:57,0
DA:59,0
DA:60,0
DA:61,0
DA:62,0
DA:67,0
DA:78,0
DA:82,0
DA:84,0
DA:90,0
DA:92,0
DA:93,0
DA:95,0
DA:100,0
DA:101,0
DA:102,0
DA:113,0
DA:114,0
DA:115,0
DA:118,0
DA:120,0
DA:122,0
DA:125,0
LF:32
LH:0
end_of_record
SF:/home/tistrauss/.conan/data/asio/1.13.0/_/_/package/5ab84d6acfe1f23c4fae0ab88f26e3a396351ac9/include/asio/detail/reactive_socket_send_op.hpp
FN:32,_ZN4asio6detail28reactive_socket_send_op_baseINS_15const_buffers_1EED2Ev
FN:35,_ZN4asio6detail28reactive_socket_send_op_baseINS_15const_buffers_1EEC2EihRKS2_iPFvPvPNS0_19scheduler_operationERKSt10error_codemE
FN:46,_ZN4asio6detail28reactive_socket_send_op_baseINS_15const_buffers_1EE10do_performEPNS0_10reactor_opE
FN:77,_ZN4asio6detail23reactive_socket_send_opINS_15const_buffers_1ENS0_8write_opINS_19basic_stream_socketINS_2ip3tcpENS_8executorEEES2_PKNS_12const_bufferENS0_14transfer_all_tENS0_18write_dynbuf_v1_opIS8_NS_19basic_streambuf_refISaIcEEESC_ZN9SimpleWeb16SocketClientBaseIS8_E7upgradeERKSt10shared_ptrINSJ_10ConnectionEEEUlRKSt10error_codemE_EEEENS0_18io_object_executorIS7_EEED2Ev
FN:77,_ZN4asio6detail23reactive_socket_send_opINS_15const_buffers_1ENS0_8write_opINS_19basic_stream_socketINS_2ip3tcpENS_8executorEEES2_PKNS_12const_bufferENS0_14transfer_all_tENS0_18write_dynbuf_v1_opIS8_NS_19basic_streambuf_refISaIcEEESC_ZN9SimpleWeb16SocketClientBaseIS8_E10Connection15send_from_queueEvEUlRKSt10error_codemE_EEEENS0_18io_object_executorIS7_EEED2Ev
FN:81,_ZN4asio6detail23reactive_socket_send_opINS_15const_buffers_1ENS0_8write_opINS_19basic_stream_socketINS_2ip3tcpENS_8executorEEES2_PKNS_12const_bufferENS0_14transfer_all_tENS0_18write_dynbuf_v1_opIS8_NS_19basic_streambuf_refISaIcEEESC_ZN9SimpleWeb16SocketClientBaseIS8_E10Connection15send_from_queueEvEUlRKSt10error_codemE_EEEENS0_18io_object_executorIS7_EEE3ptrD2Ev
FN:81,_ZN4asio6detail23reactive_socket_send_opINS_15const_buffers_1ENS0_8write_opINS_19basic_stream_socketINS_2ip3tcpENS_8executorEEES2_PKNS_12const_bufferENS0_14transfer_all_tENS0_18write_dynbuf_v1_opIS8_NS_19basic_streambuf_refISaIcEEESC_ZN9SimpleWeb16SocketClientBaseIS8_E10Connection15send_from_queueEvEUlRKSt10error_codemE_EEEENS0_18io_object_executorIS7_EEE3ptr8allocateERSQ_
FN:81,_ZN4asio6detail23reactive_socket_send_opINS_15const_buffers_1ENS0_8write_opINS_19basic_stream_socketINS_2ip3tcpENS_8executorEEES2_PKNS_12const_bufferENS0_14transfer_all_tENS0_18write_dynbuf_v1_opIS8_NS_19basic_streambuf_refISaIcEEESC_ZN9SimpleWeb16SocketClientBaseIS8_E7upgradeERKSt10shared_ptrINSJ_10ConnectionEEEUlRKSt10error_codemE_EEEENS0_18io_object_executorIS7_EEE3ptrD2Ev
FN:81,_ZN4asio6detail23reactive_socket_send_opINS_15const_buffers_1ENS0_8write_opINS_19basic_stream_socketINS_2ip3tcpENS_8executorEEES2_PKNS_12const_bufferENS0_14transfer_all_tENS0_18write_dynbuf_v1_opIS8_NS_19basic_streambuf_refISaIcEEESC_ZN9SimpleWeb16SocketClientBaseIS8_E10Connection15send_from_queueEvEUlRKSt10error_codemE_EEEENS0_18io_object_executorIS7_EEE3ptr5resetEv
FN:81,_ZN4asio6detail23reactive_socket_send_opINS_15const_buffers_1ENS0_8write_opINS_19basic_stream_socketINS_2ip3tcpENS_8executorEEES2_PKNS_12const_bufferENS0_14transfer_all_tENS0_18write_dynbuf_v1_opIS8_NS_19basic_streambuf_refISaIcEEESC_ZN9SimpleWeb16SocketClientBaseIS8_E7upgradeERKSt10shared_ptrINSJ_10ConnectionEEEUlRKSt10error_codemE_EEEENS0_18io_object_executorIS7_EEE3ptr5resetEv
FN:81,_ZN4asio6detail23reactive_socket_send_opINS_15const_buffers_1ENS0_8write_opINS_19basic_stream_socketINS_2ip3tcpENS_8executorEEES2_PKNS_12const_bufferENS0_14transfer_all_tENS0_18write_dynbuf_v1_opIS8_NS_19basic_streambuf_refISaIcEEESC_ZN9SimpleWeb16SocketClientBaseIS8_E7upgradeERKSt10shared_ptrINSJ_10ConnectionEEEUlRKSt10error_codemE_EEEENS0_18io_object_executorIS7_EEE3ptr8allocateERSU_
FN:83,_ZN4asio6detail23reactive_socket_send_opINS_15const_buffers_1ENS0_8write_opINS_19basic_stream_socketINS_2ip3tcpENS_8executorEEES2_PKNS_12const_bufferENS0_14transfer_all_tENS0_18write_dynbuf_v1_opIS8_NS_19basic_streambuf_refISaIcEEESC_ZN9SimpleWeb16SocketClientBaseIS8_E10Connection15send_from_queueEvEUlRKSt10error_codemE_EEEENS0_18io_object_executorIS7_EEEC2EihRKS2_iRSQ_RKSS_
FN:83,_ZN4asio6detail23reactive_socket_send_opINS_15const_buffers_1ENS0_8write_opINS_19basic_stream_socketINS_2ip3tcpENS_8executorEEES2_PKNS_12const_bufferENS0_14transfer_all_tENS0_18write_dynbuf_v1_opIS8_NS_19basic_streambuf_refISaIcEEESC_ZN9SimpleWeb16SocketClientBaseIS8_E7upgradeERKSt10shared_ptrINSJ_10ConnectionEEEUlRKSt10error_codemE_EEEENS0_18io_object_executorIS7_EEEC2EihRKS2_iRSU_RKSW_
FN:94,_ZN4asio6detail23reactive_socket_send_opINS_15const_buffers_1ENS0_8write_opINS_19basic_stream_socketINS_2ip3tcpENS_8executorEEES2_PKNS_12const_bufferENS0_14transfer_all_tENS0_18write_dynbuf_v1_opIS8_NS_19basic_streambuf_refISaIcEEESC_ZN9SimpleWeb16SocketClientBaseIS8_E10Connection15send_from_queueEvEUlRKSt10error_codemE_EEEENS0_18io_object_executorIS7_EEE11do_completeEPvPNS0_19scheduler_operationESN_m
FN:94,_ZN4asio6detail23reactive_socket_send_opINS_15const_buffers_1ENS0_8write_opINS_19basic_stream_socketINS_2ip3tcpENS_8executorEEES2_PKNS_12const_bufferENS0_14transfer_all_tENS0_18write_dynbuf_v1_opIS8_NS_19basic_streambuf_refISaIcEEESC_ZN9SimpleWeb16SocketClientBaseIS8_E7upgradeERKSt10shared_ptrINSJ_10ConnectionEEEUlRKSt10error_codemE_EEEENS0_18io_object_executorIS7_EEE11do_completeEPvPNS0_19scheduler_operationESR_m
FNDA:0,_ZN4asio6detail28reactive_socket_send_op_baseINS_15const_buffers_1EED2Ev
FNDA:0,_ZN4asio6detail28reactive_socket_send_op_baseINS_15const_buffers_1EEC2EihRKS2_iPFvPvPNS0_19scheduler_operationERKSt10error_codemE
FNDA:0,_ZN4asio6detail28reactive_socket_send_op_baseINS_15const_buffers_1EE10do_performEPNS0_10reactor_opE
FNDA:0,_ZN4asio6detail23reactive_socket_send_opINS_15const_buffers_1ENS0_8write_opINS_19basic_stream_socketINS_2ip3tcpENS_8executorEEES2_PKNS_12const_bufferENS0_14transfer_all_tENS0_18write_dynbuf_v1_opIS8_NS_19basic_streambuf_refISaIcEEESC_ZN9SimpleWeb16SocketClientBaseIS8_E10Connection15send_from_queueEvEUlRKSt10error_codemE_EEEENS0_18io_object_executorIS7_EEED2Ev
FNDA:0,_ZN4asio6detail23reactive_socket_send_opINS_15const_buffers_1ENS0_8write_opINS_19basic_stream_socketINS_2ip3tcpENS_8executorEEES2_PKNS_12const_bufferENS0_14transfer_all_tENS0_18write_dynbuf_v1_opIS8_NS_19basic_streambuf_refISaIcEEESC_ZN9SimpleWeb16SocketClientBaseIS8_E7upgradeERKSt10shared_ptrINSJ_10ConnectionEEEUlRKSt10error_codemE_EEEENS0_18io_object_executorIS7_EEED2Ev
FNDA:0,_ZN4asio6detail23reactive_socket_send_opINS_15const_buffers_1ENS0_8write_opINS_19basic_stream_socketINS_2ip3tcpENS_8executorEEES2_PKNS_12const_bufferENS0_14transfer_all_tENS0_18write_dynbuf_v1_opIS8_NS_19basic_streambuf_refISaIcEEESC_ZN9SimpleWeb16SocketClientBaseIS8_E10Connection15send_from_queueEvEUlRKSt10error_codemE_EEEENS0_18io_object_executorIS7_EEE3ptr5resetEv
FNDA:0,_ZN4asio6detail23reactive_socket_send_opINS_15const_buffers_1ENS0_8write_opINS_19basic_stream_socketINS_2ip3tcpENS_8executorEEES2_PKNS_12const_bufferENS0_14transfer_all_tENS0_18write_dynbuf_v1_opIS8_NS_19basic_streambuf_refISaIcEEESC_ZN9SimpleWeb16SocketClientBaseIS8_E10Connection15send_from_queueEvEUlRKSt10error_codemE_EEEENS0_18io_object_executorIS7_EEE3ptrD2Ev
FNDA:0,_ZN4asio6detail23reactive_socket_send_opINS_15const_buffers_1ENS0_8write_opINS_19basic_stream_socketINS_2ip3tcpENS_8executorEEES2_PKNS_12const_bufferENS0_14transfer_all_tENS0_18write_dynbuf_v1_opIS8_NS_19basic_streambuf_refISaIcEEESC_ZN9SimpleWeb16SocketClientBaseIS8_E10Connection15send_from_queueEvEUlRKSt10error_codemE_EEEENS0_18io_object_executorIS7_EEE3ptr8allocateERSQ_
FNDA:0,_ZN4asio6detail23reactive_socket_send_opINS_15const_buffers_1ENS0_8write_opINS_19basic_stream_socketINS_2ip3tcpENS_8executorEEES2_PKNS_12const_bufferENS0_14transfer_all_tENS0_18write_dynbuf_v1_opIS8_NS_19basic_streambuf_refISaIcEEESC_ZN9SimpleWeb16SocketClientBaseIS8_E7upgradeERKSt10shared_ptrINSJ_10ConnectionEEEUlRKSt10error_codemE_EEEENS0_18io_object_executorIS7_EEE3ptr5resetEv
FNDA:0,_ZN4asio6detail23reactive_socket_send_opINS_15const_buffers_1ENS0_8write_opINS_19basic_stream_socketINS_2ip3tcpENS_8executorEEES2_PKNS_12const_bufferENS0_14transfer_all_tENS0_18write_dynbuf_v1_opIS8_NS_19basic_streambuf_refISaIcEEESC_ZN9SimpleWeb16SocketClientBaseIS8_E7upgradeERKSt10shared_ptrINSJ_10ConnectionEEEUlRKSt10error_codemE_EEEENS0_18io_object_executorIS7_EEE3ptrD2Ev
FNDA:0,_ZN4asio6detail23reactive_socket_send_opINS_15const_buffers_1ENS0_8write_opINS_19basic_stream_socketINS_2ip3tcpENS_8executorEEES2_PKNS_12const_bufferENS0_14transfer_all_tENS0_18write_dynbuf_v1_opIS8_NS_19basic_streambuf_refISaIcEEESC_ZN9SimpleWeb16SocketClientBaseIS8_E7upgradeERKSt10shared_ptrINSJ_10ConnectionEEEUlRKSt10error_codemE_EEEENS0_18io_object_executorIS7_EEE3ptr8allocateERSU_
FNDA:0,_ZN4asio6detail23reactive_socket_send_opINS_15const_buffers_1ENS0_8write_opINS_19basic_stream_socketINS_2ip3tcpENS_8executorEEES2_PKNS_12const_bufferENS0_14transfer_all_tENS0_18write_dynbuf_v1_opIS8_NS_19basic_streambuf_refISaIcEEESC_ZN9SimpleWeb16SocketClientBaseIS8_E10Connection15send_from_queueEvEUlRKSt10error_codemE_EEEENS0_18io_object_executorIS7_EEEC2EihRKS2_iRSQ_RKSS_
FNDA:0,_ZN4asio6detail23reactive_socket_send_opINS_15const_buffers_1ENS0_8write_opINS_19basic_stream_socketINS_2ip3tcpENS_8executorEEES2_PKNS_12const_bufferENS0_14transfer_all_tENS0_18write_dynbuf_v1_opIS8_NS_19basic_streambuf_refISaIcEEESC_ZN9SimpleWeb16SocketClientBaseIS8_E7upgradeERKSt10shared_ptrINSJ_10ConnectionEEEUlRKSt10error_codemE_EEEENS0_18io_object_executorIS7_EEEC2EihRKS2_iRSU_RKSW_
FNDA:0,_ZN4asio6detail23reactive_socket_send_opINS_15const_buffers_1ENS0_8write_opINS_19basic_stream_socketINS_2ip3tcpENS_8executorEEES2_PKNS_12const_bufferENS0_14transfer_all_tENS0_18write_dynbuf_v1_opIS8_NS_19basic_streambuf_refISaIcEEESC_ZN9SimpleWeb16SocketClientBaseIS8_E10Connection15send_from_queueEvEUlRKSt10error_codemE_EEEENS0_18io_object_executorIS7_EEE11do_completeEPvPNS0_19scheduler_operationESN_m
FNDA:0,_ZN4asio6detail23reactive_socket_send_opINS_15const_buffers_1ENS0_8write_opINS_19basic_stream_socketINS_2ip3tcpENS_8executorEEES2_PKNS_12const_bufferENS0_14transfer_all_tENS0_18write_dynbuf_v1_opIS8_NS_19basic_streambuf_refISaIcEEESC_ZN9SimpleWeb16SocketClientBaseIS8_E7upgradeERKSt10shared_ptrINSJ_10ConnectionEEEUlRKSt10error_codemE_EEEENS0_18io_object_executorIS7_EEE11do_completeEPvPNS0_19scheduler_operationESR_m
FNF:15
FNH:0
DA:32,0
DA:35,0
DA:42,0
DA:44,0
DA:46,0
DA:48,0
DA:52,0
DA:54,0
DA:56,0
DA:58,0
DA:59,0
DA:60,0
DA:61,0
DA:66,0
DA:77,0
DA:81,0
DA:83,0
DA:89,0
DA:91,0
DA:92,0
DA:94,0
DA:99,0
DA:100,0
DA:101,0
DA:112,0
DA:113,0
DA:114,0
DA:117,0
DA:119,0
DA:121,0
DA:124,0
LF:31
LH:0
end_of_record
SF:/home/tistrauss/.conan/data/asio/1.13.0/_/_/package/5ab84d6acfe1f23c4fae0ab88f26e3a396351ac9/include/asio/detail/reactive_socket_service.hpp
FN:47,_ZN4asio6detail23reactive_socket_serviceINS_2ip3tcpEED2Ev
FN:47,_ZN4asio6detail23reactive_socket_serviceINS_2ip3tcpEED0Ev
FN:66,_ZN4asio6detail23reactive_socket_serviceINS_2ip3tcpEE19implementation_typeC2Ev
FN:76,_ZN4asio6detail23reactive_socket_serviceINS_2ip3tcpEEC2ERNS_17execution_contextE
FN:84,_ZN4asio6detail23reactive_socket_serviceINS_2ip3tcpEE8shutdownEv
FN:124,_ZN4asio6detail23reactive_socket_serviceINS_2ip3tcpEE4openERNS4_19implementation_typeERKS3_RSt10error_code
FN:159,_ZN4asio6detail23reactive_socket_serviceINS_2ip3tcpEE10set_optionINS0_13socket_option7booleanILi6ELi1EEEEESt10error_codeRNS4_19implementation_typeERKT_RS9_
FN:208,_ZN4asio6detail23reactive_socket_serviceINS_2ip3tcpEE8shutdownERNS0_28reactive_socket_service_base24base_implementation_typeENS_11socket_base13shutdown_typeERSt10error_code
FN:476,_ZN4asio6detail23reactive_socket_serviceINS_2ip3tcpEE13async_connectINS0_16range_connect_opIS3_NS_8executorENS2_22basic_resolver_resultsIS3_EENS0_25default_connect_conditionEZZN9SimpleWeb12SocketClientINS_19basic_stream_socketIS3_S7_EEE7connectEvENKUlRKSt10error_codeS9_E_clESI_S9_EUlSI_NS2_14basic_endpointIS3_EEE_EENS0_18io_object_executorIS7_EEEEvRNS4_19implementation_typeERKSL_RT_RKT0_
FNDA:0,_ZN4asio6detail23reactive_socket_serviceINS_2ip3tcpEED0Ev
FNDA:0,_ZN4asio6detail23reactive_socket_serviceINS_2ip3tcpEED2Ev
FNDA:0,_ZN4asio6detail23reactive_socket_serviceINS_2ip3tcpEE19implementation_typeC2Ev
FNDA:0,_ZN4asio6detail23reactive_socket_serviceINS_2ip3tcpEEC2ERNS_17execution_contextE
FNDA:0,_ZN4asio6detail23reactive_socket_serviceINS_2ip3tcpEE8shutdownEv
FNDA:0,_ZN4asio6detail23reactive_socket_serviceINS_2ip3tcpEE4openERNS4_19implementation_typeERKS3_RSt10error_code
FNDA:0,_ZN4asio6detail23reactive_socket_serviceINS_2ip3tcpEE10set_optionINS0_13socket_option7booleanILi6ELi1EEEEESt10error_codeRNS4_19implementation_typeERKT_RS9_
FNDA:0,_ZN4asio6detail23reactive_socket_serviceINS_2ip3tcpEE8shutdownERNS0_28reactive_socket_service_base24base_implementation_typeENS_11socket_base13shutdown_typeERSt10error_code
FNDA:0,_ZN4asio6detail23reactive_socket_serviceINS_2ip3tcpEE13async_connectINS0_16range_connect_opIS3_NS_8executorENS2_22basic_resolver_resultsIS3_EENS0_25default_connect_conditionEZZN9SimpleWeb12SocketClientINS_19basic_stream_socketIS3_S7_EEE7connectEvENKUlRKSt10error_codeS9_E_clESI_S9_EUlSI_NS2_14basic_endpointIS3_EEE_EENS0_18io_object_executorIS7_EEEEvRNS4_19implementation_typeERKSL_RT_RKT0_
FNF:9
FNH:0
DA:47,0
DA:66,0
DA:67,0
DA:69,0
DA:76,0
DA:79,0
DA:81,0
DA:84,0
DA:86,0
DA:87,0
DA:124,0
DA:127,0
DA:129,0
DA:130,0
DA:159,0
DA:162,0
DA:165,0
DA:208,0
DA:211,0
DA:212,0
DA:476,0
DA:480,0
DA:485,0
DA:486,0
DA:487,0
DA:492,0
DA:494,0
DA:495,0
LF:28
LH:0
end_of_record
SF:/home/tistrauss/.conan/data/asio/1.13.0/_/_/package/5ab84d6acfe1f23c4fae0ab88f26e3a396351ac9/include/asio/detail/reactive_socket_service_base.hpp
FN:86,_ZNK4asio6detail28reactive_socket_service_base7is_openERKNS1_24base_implementation_typeE
FN:260,_ZN4asio6detail28reactive_socket_service_base10async_sendINS_15const_buffers_1ENS0_8write_opINS_19basic_stream_socketINS_2ip3tcpENS_8executorEEES3_PKNS_12const_bufferENS0_14transfer_all_tENS0_18write_dynbuf_v1_opIS9_NS_19basic_streambuf_refISaIcEEESD_ZN9SimpleWeb16SocketClientBaseIS9_E10Connection15send_from_queueEvEUlRKSt10error_codemE_EEEENS0_18io_object_executorIS8_EEEEvRNS1_24base_implementation_typeERKT_iRT0_RKT1_
FN:260,_ZN4asio6detail28reactive_socket_service_base10async_sendINS_15const_buffers_1ENS0_8write_opINS_19basic_stream_socketINS_2ip3tcpENS_8executorEEES3_PKNS_12const_bufferENS0_14transfer_all_tENS0_18write_dynbuf_v1_opIS9_NS_19basic_streambuf_refISaIcEEESD_ZN9SimpleWeb16SocketClientBaseIS9_E7upgradeERKSt10shared_ptrINSK_10ConnectionEEEUlRKSt10error_codemE_EEEENS0_18io_object_executorIS8_EEEEvRNS1_24base_implementation_typeERKT_iRT0_RKT1_
FN:333,_ZN4asio6detail28reactive_socket_service_base13async_receiveINS_17mutable_buffers_1ENS0_17read_dynbuf_v1_opINS_19basic_stream_socketINS_2ip3tcpENS_8executorEEENS_19basic_streambuf_refISaIcEEENS0_18transfer_exactly_tEZN9SimpleWeb16SocketClientBaseIS9_E20read_message_contentERKSt10shared_ptrINSG_10ConnectionEEmEUlRKSt10error_codemE_EENS0_18io_object_executorIS8_EEEEvRNS1_24base_implementation_typeERKT_iRT0_RKT1_
FN:333,_ZN4asio6detail28reactive_socket_service_base13async_receiveINS_17mutable_buffers_1ENS0_17read_dynbuf_v1_opINS_19basic_stream_socketINS_2ip3tcpENS_8executorEEENS_19basic_streambuf_refISaIcEEENS0_18transfer_exactly_tEZZN9SimpleWeb16SocketClientBaseIS9_E12read_messageERKSt10shared_ptrINSG_10ConnectionEEmENKUlRKSt10error_codemE_clESO_mEUlSO_mE0_EENS0_18io_object_executorIS8_EEEEvRNS1_24base_implementation_typeERKT_iRT0_RKT1_
FN:333,_ZN4asio6detail28reactive_socket_service_base13async_receiveINS_17mutable_buffers_1ENS0_17read_dynbuf_v1_opINS_19basic_stream_socketINS_2ip3tcpENS_8executorEEENS_19basic_streambuf_refISaIcEEENS0_18transfer_exactly_tEZN9SimpleWeb16SocketClientBaseIS9_E12read_messageERKSt10shared_ptrINSG_10ConnectionEEmEUlRKSt10error_codemE_EENS0_18io_object_executorIS8_EEEEvRNS1_24base_implementation_typeERKT_iRT0_RKT1_
FN:333,_ZN4asio6detail28reactive_socket_service_base13async_receiveINS_17mutable_buffers_1ENS0_17read_dynbuf_v1_opINS_19basic_stream_socketINS_2ip3tcpENS_8executorEEENS_19basic_streambuf_refISaIcEEENS0_18transfer_exactly_tEZZN9SimpleWeb16SocketClientBaseIS9_E12read_messageERKSt10shared_ptrINSG_10ConnectionEEmENKUlRKSt10error_codemE_clESO_mEUlSO_mE_EENS0_18io_object_executorIS8_EEEEvRNS1_24base_implementation_typeERKT_iRT0_RKT1_
FN:333,_ZN4asio6detail28reactive_socket_service_base13async_receiveINS_17mutable_buffers_1ENS0_29read_until_delim_string_op_v1INS_19basic_stream_socketINS_2ip3tcpENS_8executorEEENS_19basic_streambuf_refISaIcEEEZZN9SimpleWeb16SocketClientBaseIS9_E7upgradeERKSt10shared_ptrINSF_10ConnectionEEENKUlRKSt10error_codemE_clESN_mEUlSN_mE_EENS0_18io_object_executorIS8_EEEEvRNS1_24base_implementation_typeERKT_iRT0_RKT1_
FNDA:0,_ZNK4asio6detail28reactive_socket_service_base7is_openERKNS1_24base_implementation_typeE
FNDA:0,_ZN4asio6detail28reactive_socket_service_base10async_sendINS_15const_buffers_1ENS0_8write_opINS_19basic_stream_socketINS_2ip3tcpENS_8executorEEES3_PKNS_12const_bufferENS0_14transfer_all_tENS0_18write_dynbuf_v1_opIS9_NS_19basic_streambuf_refISaIcEEESD_ZN9SimpleWeb16SocketClientBaseIS9_E10Connection15send_from_queueEvEUlRKSt10error_codemE_EEEENS0_18io_object_executorIS8_EEEEvRNS1_24base_implementation_typeERKT_iRT0_RKT1_
FNDA:0,_ZN4asio6detail28reactive_socket_service_base10async_sendINS_15const_buffers_1ENS0_8write_opINS_19basic_stream_socketINS_2ip3tcpENS_8executorEEES3_PKNS_12const_bufferENS0_14transfer_all_tENS0_18write_dynbuf_v1_opIS9_NS_19basic_streambuf_refISaIcEEESD_ZN9SimpleWeb16SocketClientBaseIS9_E7upgradeERKSt10shared_ptrINSK_10ConnectionEEEUlRKSt10error_codemE_EEEENS0_18io_object_executorIS8_EEEEvRNS1_24base_implementation_typeERKT_iRT0_RKT1_
FNDA:0,_ZN4asio6detail28reactive_socket_service_base13async_receiveINS_17mutable_buffers_1ENS0_17read_dynbuf_v1_opINS_19basic_stream_socketINS_2ip3tcpENS_8executorEEENS_19basic_streambuf_refISaIcEEENS0_18transfer_exactly_tEZN9SimpleWeb16SocketClientBaseIS9_E20read_message_contentERKSt10shared_ptrINSG_10ConnectionEEmEUlRKSt10error_codemE_EENS0_18io_object_executorIS8_EEEEvRNS1_24base_implementation_typeERKT_iRT0_RKT1_
FNDA:0,_ZN4asio6detail28reactive_socket_service_base13async_receiveINS_17mutable_buffers_1ENS0_17read_dynbuf_v1_opINS_19basic_stream_socketINS_2ip3tcpENS_8executorEEENS_19basic_streambuf_refISaIcEEENS0_18transfer_exactly_tEZN9SimpleWeb16SocketClientBaseIS9_E12read_messageERKSt10shared_ptrINSG_10ConnectionEEmEUlRKSt10error_codemE_EENS0_18io_object_executorIS8_EEEEvRNS1_24base_implementation_typeERKT_iRT0_RKT1_
FNDA:0,_ZN4asio6detail28reactive_socket_service_base13async_receiveINS_17mutable_buffers_1ENS0_17read_dynbuf_v1_opINS_19basic_stream_socketINS_2ip3tcpENS_8executorEEENS_19basic_streambuf_refISaIcEEENS0_18transfer_exactly_tEZZN9SimpleWeb16SocketClientBaseIS9_E12read_messageERKSt10shared_ptrINSG_10ConnectionEEmENKUlRKSt10error_codemE_clESO_mEUlSO_mE0_EENS0_18io_object_executorIS8_EEEEvRNS1_24base_implementation_typeERKT_iRT0_RKT1_
FNDA:0,_ZN4asio6detail28reactive_socket_service_base13async_receiveINS_17mutable_buffers_1ENS0_17read_dynbuf_v1_opINS_19basic_stream_socketINS_2ip3tcpENS_8executorEEENS_19basic_streambuf_refISaIcEEENS0_18transfer_exactly_tEZZN9SimpleWeb16SocketClientBaseIS9_E12read_messageERKSt10shared_ptrINSG_10ConnectionEEmENKUlRKSt10error_codemE_clESO_mEUlSO_mE_EENS0_18io_object_executorIS8_EEEEvRNS1_24base_implementation_typeERKT_iRT0_RKT1_
FNDA:0,_ZN4asio6detail28reactive_socket_service_base13async_receiveINS_17mutable_buffers_1ENS0_29read_until_delim_string_op_v1INS_19basic_stream_socketINS_2ip3tcpENS_8executorEEENS_19basic_streambuf_refISaIcEEEZZN9SimpleWeb16SocketClientBaseIS9_E7upgradeERKSt10shared_ptrINSF_10ConnectionEEENKUlRKSt10error_codemE_clESN_mEUlSN_mE_EENS0_18io_object_executorIS8_EEEEvRNS1_24base_implementation_typeERKT_iRT0_RKT1_
FNF:8
FNH:0
DA:86,0
DA:88,0
DA:260,0
DA:264,0
DA:270,0
DA:271,0
DA:272,0
DA:278,0
DA:279,0
DA:280,0
DA:281,0
DA:282,0
DA:283,0
DA:333,0
DA:337,0
DA:343,0
DA:344,0
DA:345,0
DA:351,0
DA:352,0
DA:354,0
DA:355,0
DA:356,0
DA:357,0
DA:358,0
DA:359,0
DA:360,0
LF:27
LH:0
end_of_record
SF:/home/tistrauss/.conan/data/asio/1.13.0/_/_/package/5ab84d6acfe1f23c4fae0ab88f26e3a396351ac9/include/asio/detail/reactor_op.hpp
FN:26,_ZN4asio6detail10reactor_opD2Ev
FN:41,_ZN4asio6detail10reactor_op7performEv
FN:49,_ZN4asio6detail10reactor_opC2EPFNS1_6statusEPS1_EPFvPvPNS0_19scheduler_operationERKSt10error_codemE
FNDA:0,_ZN4asio6detail10reactor_opD2Ev
FNDA:0,_ZN4asio6detail10reactor_op7performEv
FNDA:0,_ZN4asio6detail10reactor_opC2EPFNS1_6statusEPS1_EPFvPvPNS0_19scheduler_operationERKSt10error_codemE
FNF:3
FNH:0
DA:26,0
DA:41,0
DA:43,0
DA:49,0
DA:50,0
DA:52,0
DA:54,0
LF:7
LH:0
end_of_record
SF:/home/tistrauss/.conan/data/asio/1.13.0/_/_/package/5ab84d6acfe1f23c4fae0ab88f26e3a396351ac9/include/asio/detail/recycling_allocator.hpp
FN:45,_ZN4asio6detail19recycling_allocatorINS0_17executor_functionINS0_7binder1IZN9SimpleWeb16SocketClientBaseINS_19basic_stream_socketINS_2ip3tcpENS_8executorEEEE10Connection11set_timeoutElEUlRKSt10error_codeE_SD_EESaIvEEENS0_16thread_info_base21executor_function_tagEEC2IvEERKNS1_IT_SL_EE
FN:45,_ZN4asio6detail19recycling_allocatorINS0_17executor_functionINS0_7binder2IZN9SimpleWeb12SocketClientINS_19basic_stream_socketINS_2ip3tcpENS_8executorEEEE7connectEvEUlRKSt10error_codeNS7_22basic_resolver_resultsIS8_EEE_SC_SG_EESaIvEEENS0_16thread_info_base21executor_function_tagEEC2IvEERKNS1_IT_SM_EE
FN:45,_ZN4asio6detail19recycling_allocatorINS0_17executor_functionINS0_7binder2INS0_8write_opINS_19basic_stream_socketINS_2ip3tcpENS_8executorEEENS_15const_buffers_1EPKNS_12const_bufferENS0_14transfer_all_tENS0_18write_dynbuf_v1_opIS9_NS_19basic_streambuf_refISaIcEEESE_ZN9SimpleWeb16SocketClientBaseIS9_E10Connection15send_from_queueEvEUlRKSt10error_codemE_EEEESN_mEESaIvEEENS0_16thread_info_base21executor_function_tagEEC2IvEERKNS1_IT_SX_EE
FN:45,_ZN4asio6detail19recycling_allocatorINS0_17executor_functionINS0_7binder2INS0_8write_opINS_19basic_stream_socketINS_2ip3tcpENS_8executorEEENS_15const_buffers_1EPKNS_12const_bufferENS0_14transfer_all_tENS0_18write_dynbuf_v1_opIS9_NS_19basic_streambuf_refISaIcEEESE_ZN9SimpleWeb16SocketClientBaseIS9_E7upgradeERKSt10shared_ptrINSL_10ConnectionEEEUlRKSt10error_codemE_EEEESR_mEESaIvEEENS0_16thread_info_base21executor_function_tagEEC2IvEERKNS1_IT_S11_EE
FN:45,_ZN4asio6detail19recycling_allocatorINS0_17executor_functionINS0_7binder2INS0_29read_until_delim_string_op_v1INS_19basic_stream_socketINS_2ip3tcpENS_8executorEEENS_19basic_streambuf_refISaIcEEEZZN9SimpleWeb16SocketClientBaseIS9_E7upgradeERKSt10shared_ptrINSF_10ConnectionEEENKUlRKSt10error_codemE_clESN_mEUlSN_mE_EESL_mEESaIvEEENS0_16thread_info_base21executor_function_tagEEC2IvEERKNS1_IT_SV_EE
FN:45,_ZN4asio6detail19recycling_allocatorINS0_11executor_opINS_8executor8functionESaIvENS0_19scheduler_operationEEENS0_16thread_info_base11default_tagEEC2IvEERKNS1_IT_S9_EE
FN:45,_ZN4asio6detail19recycling_allocatorINS0_17executor_functionINS0_15work_dispatcherINS0_7binder1INS0_16range_connect_opINS_2ip3tcpENS_8executorENS6_22basic_resolver_resultsIS7_EENS0_25default_connect_conditionEZZN9SimpleWeb12SocketClientINS_19basic_stream_socketIS7_S8_EEE7connectEvENKUlRKSt10error_codeSA_E_clESJ_SA_EUlSJ_NS6_14basic_endpointIS7_EEE_EESH_EEEESaIvEEENS0_16thread_info_base21executor_function_tagEEC2IvEERKNS1_IT_SU_EE
FN:45,_ZN4asio6detail19recycling_allocatorINS0_17executor_functionINS0_7binder2INS0_17read_dynbuf_v1_opINS_19basic_stream_socketINS_2ip3tcpENS_8executorEEENS_19basic_streambuf_refISaIcEEENS0_18transfer_exactly_tEZZN9SimpleWeb16SocketClientBaseIS9_E12read_messageERKSt10shared_ptrINSG_10ConnectionEEmENKUlRKSt10error_codemE_clESO_mEUlSO_mE0_EESM_mEESaIvEEENS0_16thread_info_base21executor_function_tagEEC2IvEERKNS1_IT_SW_EE
FN:45,_ZN4asio6detail19recycling_allocatorINS0_17executor_functionINS0_7binder2INS0_17read_dynbuf_v1_opINS_19basic_stream_socketINS_2ip3tcpENS_8executorEEENS_19basic_streambuf_refISaIcEEENS0_18transfer_exactly_tEZZN9SimpleWeb16SocketClientBaseIS9_E12read_messageERKSt10shared_ptrINSG_10ConnectionEEmENKUlRKSt10error_codemE_clESO_mEUlSO_mE_EESM_mEESaIvEEENS0_16thread_info_base21executor_function_tagEEC2IvEERKNS1_IT_SW_EE
FN:45,_ZN4asio6detail19recycling_allocatorINS0_17executor_functionINS0_7binder2INS0_17read_dynbuf_v1_opINS_19basic_stream_socketINS_2ip3tcpENS_8executorEEENS_19basic_streambuf_refISaIcEEENS0_18transfer_exactly_tEZN9SimpleWeb16SocketClientBaseIS9_E20read_message_contentERKSt10shared_ptrINSG_10ConnectionEEmEUlRKSt10error_codemE_EESM_mEESaIvEEENS0_16thread_info_base21executor_function_tagEEC2IvEERKNS1_IT_SV_EE
FN:45,_ZN4asio6detail19recycling_allocatorINS0_17executor_functionINS0_7binder1INS0_16range_connect_opINS_2ip3tcpENS_8executorENS5_22basic_resolver_resultsIS6_EENS0_25default_connect_conditionEZZN9SimpleWeb12SocketClientINS_19basic_stream_socketIS6_S7_EEE7connectEvENKUlRKSt10error_codeS9_E_clESI_S9_EUlSI_NS5_14basic_endpointIS6_EEE_EESG_EESaIvEEENS0_16thread_info_base21executor_function_tagEEC2IvEERKNS1_IT_SS_EE
FN:45,_ZN4asio6detail19recycling_allocatorINS0_17executor_functionINS0_7binder2INS0_17read_dynbuf_v1_opINS_19basic_stream_socketINS_2ip3tcpENS_8executorEEENS_19basic_streambuf_refISaIcEEENS0_18transfer_exactly_tEZN9SimpleWeb16SocketClientBaseIS9_E12read_messageERKSt10shared_ptrINSG_10ConnectionEEmEUlRKSt10error_codemE_EESM_mEESaIvEEENS0_16thread_info_base21executor_function_tagEEC2IvEERKNS1_IT_SV_EE
FN:49,_ZN4asio6detail19recycling_allocatorINS0_17executor_functionINS0_7binder2INS0_29read_until_delim_string_op_v1INS_19basic_stream_socketINS_2ip3tcpENS_8executorEEENS_19basic_streambuf_refISaIcEEEZZN9SimpleWeb16SocketClientBaseIS9_E7upgradeERKSt10shared_ptrINSF_10ConnectionEEENKUlRKSt10error_codemE_clESN_mEUlSN_mE_EESL_mEESaIvEEENS0_16thread_info_base21executor_function_tagEE8allocateEm
FN:49,_ZN4asio6detail19recycling_allocatorINS0_11executor_opINS_8executor8functionESaIvENS0_19scheduler_operationEEENS0_16thread_info_base11default_tagEE8allocateEm
FN:49,_ZN4asio6detail19recycling_allocatorINS0_17executor_functionINS0_7binder1INS0_16range_connect_opINS_2ip3tcpENS_8executorENS5_22basic_resolver_resultsIS6_EENS0_25default_connect_conditionEZZN9SimpleWeb12SocketClientINS_19basic_stream_socketIS6_S7_EEE7connectEvENKUlRKSt10error_codeS9_E_clESI_S9_EUlSI_NS5_14basic_endpointIS6_EEE_EESG_EESaIvEEENS0_16thread_info_base21executor_function_tagEE8allocateEm
FN:49,_ZN4asio6detail19recycling_allocatorINS0_17executor_functionINS0_7binder1IZN9SimpleWeb16SocketClientBaseINS_19basic_stream_socketINS_2ip3tcpENS_8executorEEEE10Connection11set_timeoutElEUlRKSt10error_codeE_SD_EESaIvEEENS0_16thread_info_base21executor_function_tagEE8allocateEm
FN:49,_ZN4asio6detail19recycling_allocatorINS0_17executor_functionINS0_15work_dispatcherINS0_7binder1INS0_16range_connect_opINS_2ip3tcpENS_8executorENS6_22basic_resolver_resultsIS7_EENS0_25default_connect_conditionEZZN9SimpleWeb12SocketClientINS_19basic_stream_socketIS7_S8_EEE7connectEvENKUlRKSt10error_codeSA_E_clESJ_SA_EUlSJ_NS6_14basic_endpointIS7_EEE_EESH_EEEESaIvEEENS0_16thread_info_base21executor_function_tagEE8allocateEm
FN:49,_ZN4asio6detail19recycling_allocatorINS0_17executor_functionINS0_7binder2INS0_17read_dynbuf_v1_opINS_19basic_stream_socketINS_2ip3tcpENS_8executorEEENS_19basic_streambuf_refISaIcEEENS0_18transfer_exactly_tEZN9SimpleWeb16SocketClientBaseIS9_E20read_message_contentERKSt10shared_ptrINSG_10ConnectionEEmEUlRKSt10error_codemE_EESM_mEESaIvEEENS0_16thread_info_base21executor_function_tagEE8allocateEm
FN:49,_ZN4asio6detail19recycling_allocatorINS0_17executor_functionINS0_7binder2INS0_8write_opINS_19basic_stream_socketINS_2ip3tcpENS_8executorEEENS_15const_buffers_1EPKNS_12const_bufferENS0_14transfer_all_tENS0_18write_dynbuf_v1_opIS9_NS_19basic_streambuf_refISaIcEEESE_ZN9SimpleWeb16SocketClientBaseIS9_E7upgradeERKSt10shared_ptrINSL_10ConnectionEEEUlRKSt10error_codemE_EEEESR_mEESaIvEEENS0_16thread_info_base21executor_function_tagEE8allocateEm
FN:49,_ZN4asio6detail19recycling_allocatorINS0_17executor_functionINS0_7binder2INS0_8write_opINS_19basic_stream_socketINS_2ip3tcpENS_8executorEEENS_15const_buffers_1EPKNS_12const_bufferENS0_14transfer_all_tENS0_18write_dynbuf_v1_opIS9_NS_19basic_streambuf_refISaIcEEESE_ZN9SimpleWeb16SocketClientBaseIS9_E10Connection15send_from_queueEvEUlRKSt10error_codemE_EEEESN_mEESaIvEEENS0_16thread_info_base21executor_function_tagEE8allocateEm
FN:49,_ZN4asio6detail19recycling_allocatorINS0_17executor_functionINS0_7binder2INS0_17read_dynbuf_v1_opINS_19basic_stream_socketINS_2ip3tcpENS_8executorEEENS_19basic_streambuf_refISaIcEEENS0_18transfer_exactly_tEZZN9SimpleWeb16SocketClientBaseIS9_E12read_messageERKSt10shared_ptrINSG_10ConnectionEEmENKUlRKSt10error_codemE_clESO_mEUlSO_mE0_EESM_mEESaIvEEENS0_16thread_info_base21executor_function_tagEE8allocateEm
FN:49,_ZN4asio6detail19recycling_allocatorINS0_17executor_functionINS0_7binder2IZN9SimpleWeb12SocketClientINS_19basic_stream_socketINS_2ip3tcpENS_8executorEEEE7connectEvEUlRKSt10error_codeNS7_22basic_resolver_resultsIS8_EEE_SC_SG_EESaIvEEENS0_16thread_info_base21executor_function_tagEE8allocateEm
FN:49,_ZN4asio6detail19recycling_allocatorINS0_17executor_functionINS0_7binder2INS0_17read_dynbuf_v1_opINS_19basic_stream_socketINS_2ip3tcpENS_8executorEEENS_19basic_streambuf_refISaIcEEENS0_18transfer_exactly_tEZN9SimpleWeb16SocketClientBaseIS9_E12read_messageERKSt10shared_ptrINSG_10ConnectionEEmEUlRKSt10error_codemE_EESM_mEESaIvEEENS0_16thread_info_base21executor_function_tagEE8allocateEm
FN:49,_ZN4asio6detail19recycling_allocatorINS0_17executor_functionINS0_7binder2INS0_17read_dynbuf_v1_opINS_19basic_stream_socketINS_2ip3tcpENS_8executorEEENS_19basic_streambuf_refISaIcEEENS0_18transfer_exactly_tEZZN9SimpleWeb16SocketClientBaseIS9_E12read_messageERKSt10shared_ptrINSG_10ConnectionEEmENKUlRKSt10error_codemE_clESO_mEUlSO_mE_EESM_mEESaIvEEENS0_16thread_info_base21executor_function_tagEE8allocateEm
FN:57,_ZN4asio6detail19recycling_allocatorINS0_17executor_functionINS0_7binder2INS0_8write_opINS_19basic_stream_socketINS_2ip3tcpENS_8executorEEENS_15const_buffers_1EPKNS_12const_bufferENS0_14transfer_all_tENS0_18write_dynbuf_v1_opIS9_NS_19basic_streambuf_refISaIcEEESE_ZN9SimpleWeb16SocketClientBaseIS9_E10Connection15send_from_queueEvEUlRKSt10error_codemE_EEEESN_mEESaIvEEENS0_16thread_info_base21executor_function_tagEE10deallocateEPSV_m
FN:57,_ZN4asio6detail19recycling_allocatorINS0_17executor_functionINS0_7binder2INS0_17read_dynbuf_v1_opINS_19basic_stream_socketINS_2ip3tcpENS_8executorEEENS_19basic_streambuf_refISaIcEEENS0_18transfer_exactly_tEZN9SimpleWeb16SocketClientBaseIS9_E12read_messageERKSt10shared_ptrINSG_10ConnectionEEmEUlRKSt10error_codemE_EESM_mEESaIvEEENS0_16thread_info_base21executor_function_tagEE10deallocateEPST_m
FN:57,_ZN4asio6detail19recycling_allocatorINS0_17executor_functionINS0_7binder1IZN9SimpleWeb16SocketClientBaseINS_19basic_stream_socketINS_2ip3tcpENS_8executorEEEE10Connection11set_timeoutElEUlRKSt10error_codeE_SD_EESaIvEEENS0_16thread_info_base21executor_function_tagEE10deallocateEPSJ_m
FN:57,_ZN4asio6detail19recycling_allocatorINS0_17executor_functionINS0_7binder2INS0_29read_until_delim_string_op_v1INS_19basic_stream_socketINS_2ip3tcpENS_8executorEEENS_19basic_streambuf_refISaIcEEEZZN9SimpleWeb16SocketClientBaseIS9_E7upgradeERKSt10shared_ptrINSF_10ConnectionEEENKUlRKSt10error_codemE_clESN_mEUlSN_mE_EESL_mEESaIvEEENS0_16thread_info_base21executor_function_tagEE10deallocateEPST_m
FN:57,_ZN4asio6detail19recycling_allocatorINS0_17executor_functionINS0_7binder2IZN9SimpleWeb12SocketClientINS_19basic_stream_socketINS_2ip3tcpENS_8executorEEEE7connectEvEUlRKSt10error_codeNS7_22basic_resolver_resultsIS8_EEE_SC_SG_EESaIvEEENS0_16thread_info_base21executor_function_tagEE10deallocateEPSK_m
FN:57,_ZN4asio6detail19recycling_allocatorINS0_17executor_functionINS0_7binder2INS0_8write_opINS_19basic_stream_socketINS_2ip3tcpENS_8executorEEENS_15const_buffers_1EPKNS_12const_bufferENS0_14transfer_all_tENS0_18write_dynbuf_v1_opIS9_NS_19basic_streambuf_refISaIcEEESE_ZN9SimpleWeb16SocketClientBaseIS9_E7upgradeERKSt10shared_ptrINSL_10ConnectionEEEUlRKSt10error_codemE_EEEESR_mEESaIvEEENS0_16thread_info_base21executor_function_tagEE10deallocateEPSZ_m
FN:57,_ZN4asio6detail19recycling_allocatorINS0_17executor_functionINS0_7binder2INS0_17read_dynbuf_v1_opINS_19basic_stream_socketINS_2ip3tcpENS_8executorEEENS_19basic_streambuf_refISaIcEEENS0_18transfer_exactly_tEZZN9SimpleWeb16SocketClientBaseIS9_E12read_messageERKSt10shared_ptrINSG_10ConnectionEEmENKUlRKSt10error_codemE_clESO_mEUlSO_mE0_EESM_mEESaIvEEENS0_16thread_info_base21executor_function_tagEE10deallocateEPSU_m
FN:57,_ZN4asio6detail19recycling_allocatorINS0_17executor_functionINS0_15work_dispatcherINS0_7binder1INS0_16range_connect_opINS_2ip3tcpENS_8executorENS6_22basic_resolver_resultsIS7_EENS0_25default_connect_conditionEZZN9SimpleWeb12SocketClientINS_19basic_stream_socketIS7_S8_EEE7connectEvENKUlRKSt10error_codeSA_E_clESJ_SA_EUlSJ_NS6_14basic_endpointIS7_EEE_EESH_EEEESaIvEEENS0_16thread_info_base21executor_function_tagEE10deallocateEPSS_m
FN:57,_ZN4asio6detail19recycling_allocatorINS0_11executor_opINS_8executor8functionESaIvENS0_19scheduler_operationEEENS0_16thread_info_base11default_tagEE10deallocateEPS7_m
FN:57,_ZN4asio6detail19recycling_allocatorINS0_17executor_functionINS0_7binder2INS0_17read_dynbuf_v1_opINS_19basic_stream_socketINS_2ip3tcpENS_8executorEEENS_19basic_streambuf_refISaIcEEENS0_18transfer_exactly_tEZZN9SimpleWeb16SocketClientBaseIS9_E12read_messageERKSt10shared_ptrINSG_10ConnectionEEmENKUlRKSt10error_codemE_clESO_mEUlSO_mE_EESM_mEESaIvEEENS0_16thread_info_base21executor_function_tagEE10deallocateEPSU_m
FN:57,_ZN4asio6detail19recycling_allocatorINS0_17executor_functionINS0_7binder2INS0_17read_dynbuf_v1_opINS_19basic_stream_socketINS_2ip3tcpENS_8executorEEENS_19basic_streambuf_refISaIcEEENS0_18transfer_exactly_tEZN9SimpleWeb16SocketClientBaseIS9_E20read_message_contentERKSt10shared_ptrINSG_10ConnectionEEmEUlRKSt10error_codemE_EESM_mEESaIvEEENS0_16thread_info_base21executor_function_tagEE10deallocateEPST_m
FN:57,_ZN4asio6detail19recycling_allocatorINS0_17executor_functionINS0_7binder1INS0_16range_connect_opINS_2ip3tcpENS_8executorENS5_22basic_resolver_resultsIS6_EENS0_25default_connect_conditionEZZN9SimpleWeb12SocketClientINS_19basic_stream_socketIS6_S7_EEE7connectEvENKUlRKSt10error_codeS9_E_clESI_S9_EUlSI_NS5_14basic_endpointIS6_EEE_EESG_EESaIvEEENS0_16thread_info_base21executor_function_tagEE10deallocateEPSQ_m
FN:77,_ZN4asio6detail19recycling_allocatorIvNS0_16thread_info_base21executor_function_tagEEC2Ev
FN:77,_ZN4asio6detail19recycling_allocatorIvNS0_16thread_info_base11default_tagEEC2Ev
FN:98,_ZN4asio6detail23get_recycling_allocatorISaIvENS0_16thread_info_base11default_tagEE3getERKS2_
FN:98,_ZN4asio6detail23get_recycling_allocatorISaIvENS0_16thread_info_base21executor_function_tagEE3getERKS2_
FNDA:0,_ZN4asio6detail19recycling_allocatorINS0_11executor_opINS_8executor8functionESaIvENS0_19scheduler_operationEEENS0_16thread_info_base11default_tagEEC2IvEERKNS1_IT_S9_EE
FNDA:0,_ZN4asio6detail19recycling_allocatorINS0_17executor_functionINS0_7binder2INS0_8write_opINS_19basic_stream_socketINS_2ip3tcpENS_8executorEEENS_15const_buffers_1EPKNS_12const_bufferENS0_14transfer_all_tENS0_18write_dynbuf_v1_opIS9_NS_19basic_streambuf_refISaIcEEESE_ZN9SimpleWeb16SocketClientBaseIS9_E10Connection15send_from_queueEvEUlRKSt10error_codemE_EEEESN_mEESaIvEEENS0_16thread_info_base21executor_function_tagEEC2IvEERKNS1_IT_SX_EE
FNDA:0,_ZN4asio6detail19recycling_allocatorINS0_17executor_functionINS0_7binder2INS0_8write_opINS_19basic_stream_socketINS_2ip3tcpENS_8executorEEENS_15const_buffers_1EPKNS_12const_bufferENS0_14transfer_all_tENS0_18write_dynbuf_v1_opIS9_NS_19basic_streambuf_refISaIcEEESE_ZN9SimpleWeb16SocketClientBaseIS9_E7upgradeERKSt10shared_ptrINSL_10ConnectionEEEUlRKSt10error_codemE_EEEESR_mEESaIvEEENS0_16thread_info_base21executor_function_tagEEC2IvEERKNS1_IT_S11_EE
FNDA:0,_ZN4asio6detail19recycling_allocatorINS0_17executor_functionINS0_7binder2INS0_17read_dynbuf_v1_opINS_19basic_stream_socketINS_2ip3tcpENS_8executorEEENS_19basic_streambuf_refISaIcEEENS0_18transfer_exactly_tEZN9SimpleWeb16SocketClientBaseIS9_E20read_message_contentERKSt10shared_ptrINSG_10ConnectionEEmEUlRKSt10error_codemE_EESM_mEESaIvEEENS0_16thread_info_base21executor_function_tagEEC2IvEERKNS1_IT_SV_EE
FNDA:0,_ZN4asio6detail19recycling_allocatorINS0_17executor_functionINS0_7binder2INS0_17read_dynbuf_v1_opINS_19basic_stream_socketINS_2ip3tcpENS_8executorEEENS_19basic_streambuf_refISaIcEEENS0_18transfer_exactly_tEZN9SimpleWeb16SocketClientBaseIS9_E12read_messageERKSt10shared_ptrINSG_10ConnectionEEmEUlRKSt10error_codemE_EESM_mEESaIvEEENS0_16thread_info_base21executor_function_tagEEC2IvEERKNS1_IT_SV_EE
FNDA:0,_ZN4asio6detail19recycling_allocatorINS0_17executor_functionINS0_7binder2INS0_17read_dynbuf_v1_opINS_19basic_stream_socketINS_2ip3tcpENS_8executorEEENS_19basic_streambuf_refISaIcEEENS0_18transfer_exactly_tEZZN9SimpleWeb16SocketClientBaseIS9_E12read_messageERKSt10shared_ptrINSG_10ConnectionEEmENKUlRKSt10error_codemE_clESO_mEUlSO_mE0_EESM_mEESaIvEEENS0_16thread_info_base21executor_function_tagEEC2IvEERKNS1_IT_SW_EE
FNDA:0,_ZN4asio6detail19recycling_allocatorINS0_17executor_functionINS0_7binder2INS0_17read_dynbuf_v1_opINS_19basic_stream_socketINS_2ip3tcpENS_8executorEEENS_19basic_streambuf_refISaIcEEENS0_18transfer_exactly_tEZZN9SimpleWeb16SocketClientBaseIS9_E12read_messageERKSt10shared_ptrINSG_10ConnectionEEmENKUlRKSt10error_codemE_clESO_mEUlSO_mE_EESM_mEESaIvEEENS0_16thread_info_base21executor_function_tagEEC2IvEERKNS1_IT_SW_EE
FNDA:0,_ZN4asio6detail19recycling_allocatorINS0_17executor_functionINS0_7binder2INS0_29read_until_delim_string_op_v1INS_19basic_stream_socketINS_2ip3tcpENS_8executorEEENS_19basic_streambuf_refISaIcEEEZZN9SimpleWeb16SocketClientBaseIS9_E7upgradeERKSt10shared_ptrINSF_10ConnectionEEENKUlRKSt10error_codemE_clESN_mEUlSN_mE_EESL_mEESaIvEEENS0_16thread_info_base21executor_function_tagEEC2IvEERKNS1_IT_SV_EE
FNDA:0,_ZN4asio6detail19recycling_allocatorINS0_17executor_functionINS0_7binder1INS0_16range_connect_opINS_2ip3tcpENS_8executorENS5_22basic_resolver_resultsIS6_EENS0_25default_connect_conditionEZZN9SimpleWeb12SocketClientINS_19basic_stream_socketIS6_S7_EEE7connectEvENKUlRKSt10error_codeS9_E_clESI_S9_EUlSI_NS5_14basic_endpointIS6_EEE_EESG_EESaIvEEENS0_16thread_info_base21executor_function_tagEEC2IvEERKNS1_IT_SS_EE
FNDA:0,_ZN4asio6detail19recycling_allocatorINS0_17executor_functionINS0_7binder2IZN9SimpleWeb12SocketClientINS_19basic_stream_socketINS_2ip3tcpENS_8executorEEEE7connectEvEUlRKSt10error_codeNS7_22basic_resolver_resultsIS8_EEE_SC_SG_EESaIvEEENS0_16thread_info_base21executor_function_tagEEC2IvEERKNS1_IT_SM_EE
FNDA:0,_ZN4asio6detail19recycling_allocatorINS0_17executor_functionINS0_15work_dispatcherINS0_7binder1INS0_16range_connect_opINS_2ip3tcpENS_8executorENS6_22basic_resolver_resultsIS7_EENS0_25default_connect_conditionEZZN9SimpleWeb12SocketClientINS_19basic_stream_socketIS7_S8_EEE7connectEvENKUlRKSt10error_codeSA_E_clESJ_SA_EUlSJ_NS6_14basic_endpointIS7_EEE_EESH_EEEESaIvEEENS0_16thread_info_base21executor_function_tagEEC2IvEERKNS1_IT_SU_EE
FNDA:0,_ZN4asio6detail19recycling_allocatorINS0_17executor_functionINS0_7binder1IZN9SimpleWeb16SocketClientBaseINS_19basic_stream_socketINS_2ip3tcpENS_8executorEEEE10Connection11set_timeoutElEUlRKSt10error_codeE_SD_EESaIvEEENS0_16thread_info_base21executor_function_tagEEC2IvEERKNS1_IT_SL_EE
FNDA:0,_ZN4asio6detail19recycling_allocatorINS0_11executor_opINS_8executor8functionESaIvENS0_19scheduler_operationEEENS0_16thread_info_base11default_tagEE8allocateEm
FNDA:0,_ZN4asio6detail19recycling_allocatorINS0_17executor_functionINS0_7binder2INS0_8write_opINS_19basic_stream_socketINS_2ip3tcpENS_8executorEEENS_15const_buffers_1EPKNS_12const_bufferENS0_14transfer_all_tENS0_18write_dynbuf_v1_opIS9_NS_19basic_streambuf_refISaIcEEESE_ZN9SimpleWeb16SocketClientBaseIS9_E10Connection15send_from_queueEvEUlRKSt10error_codemE_EEEESN_mEESaIvEEENS0_16thread_info_base21executor_function_tagEE8allocateEm
FNDA:0,_ZN4asio6detail19recycling_allocatorINS0_17executor_functionINS0_7binder2INS0_8write_opINS_19basic_stream_socketINS_2ip3tcpENS_8executorEEENS_15const_buffers_1EPKNS_12const_bufferENS0_14transfer_all_tENS0_18write_dynbuf_v1_opIS9_NS_19basic_streambuf_refISaIcEEESE_ZN9SimpleWeb16SocketClientBaseIS9_E7upgradeERKSt10shared_ptrINSL_10ConnectionEEEUlRKSt10error_codemE_EEEESR_mEESaIvEEENS0_16thread_info_base21executor_function_tagEE8allocateEm
FNDA:0,_ZN4asio6detail19recycling_allocatorINS0_17executor_functionINS0_7binder2INS0_17read_dynbuf_v1_opINS_19basic_stream_socketINS_2ip3tcpENS_8executorEEENS_19basic_streambuf_refISaIcEEENS0_18transfer_exactly_tEZN9SimpleWeb16SocketClientBaseIS9_E20read_message_contentERKSt10shared_ptrINSG_10ConnectionEEmEUlRKSt10error_codemE_EESM_mEESaIvEEENS0_16thread_info_base21executor_function_tagEE8allocateEm
FNDA:0,_ZN4asio6detail19recycling_allocatorINS0_17executor_functionINS0_7binder2INS0_17read_dynbuf_v1_opINS_19basic_stream_socketINS_2ip3tcpENS_8executorEEENS_19basic_streambuf_refISaIcEEENS0_18transfer_exactly_tEZN9SimpleWeb16SocketClientBaseIS9_E12read_messageERKSt10shared_ptrINSG_10ConnectionEEmEUlRKSt10error_codemE_EESM_mEESaIvEEENS0_16thread_info_base21executor_function_tagEE8allocateEm
FNDA:0,_ZN4asio6detail19recycling_allocatorINS0_17executor_functionINS0_7binder2INS0_17read_dynbuf_v1_opINS_19basic_stream_socketINS_2ip3tcpENS_8executorEEENS_19basic_streambuf_refISaIcEEENS0_18transfer_exactly_tEZZN9SimpleWeb16SocketClientBaseIS9_E12read_messageERKSt10shared_ptrINSG_10ConnectionEEmENKUlRKSt10error_codemE_clESO_mEUlSO_mE0_EESM_mEESaIvEEENS0_16thread_info_base21executor_function_tagEE8allocateEm
FNDA:0,_ZN4asio6detail19recycling_allocatorINS0_17executor_functionINS0_7binder2INS0_17read_dynbuf_v1_opINS_19basic_stream_socketINS_2ip3tcpENS_8executorEEENS_19basic_streambuf_refISaIcEEENS0_18transfer_exactly_tEZZN9SimpleWeb16SocketClientBaseIS9_E12read_messageERKSt10shared_ptrINSG_10ConnectionEEmENKUlRKSt10error_codemE_clESO_mEUlSO_mE_EESM_mEESaIvEEENS0_16thread_info_base21executor_function_tagEE8allocateEm
FNDA:0,_ZN4asio6detail19recycling_allocatorINS0_17executor_functionINS0_7binder2INS0_29read_until_delim_string_op_v1INS_19basic_stream_socketINS_2ip3tcpENS_8executorEEENS_19basic_streambuf_refISaIcEEEZZN9SimpleWeb16SocketClientBaseIS9_E7upgradeERKSt10shared_ptrINSF_10ConnectionEEENKUlRKSt10error_codemE_clESN_mEUlSN_mE_EESL_mEESaIvEEENS0_16thread_info_base21executor_function_tagEE8allocateEm
FNDA:0,_ZN4asio6detail19recycling_allocatorINS0_17executor_functionINS0_7binder1INS0_16range_connect_opINS_2ip3tcpENS_8executorENS5_22basic_resolver_resultsIS6_EENS0_25default_connect_conditionEZZN9SimpleWeb12SocketClientINS_19basic_stream_socketIS6_S7_EEE7connectEvENKUlRKSt10error_codeS9_E_clESI_S9_EUlSI_NS5_14basic_endpointIS6_EEE_EESG_EESaIvEEENS0_16thread_info_base21executor_function_tagEE8allocateEm
FNDA:0,_ZN4asio6detail19recycling_allocatorINS0_17executor_functionINS0_7binder2IZN9SimpleWeb12SocketClientINS_19basic_stream_socketINS_2ip3tcpENS_8executorEEEE7connectEvEUlRKSt10error_codeNS7_22basic_resolver_resultsIS8_EEE_SC_SG_EESaIvEEENS0_16thread_info_base21executor_function_tagEE8allocateEm
FNDA:0,_ZN4asio6detail19recycling_allocatorINS0_17executor_functionINS0_15work_dispatcherINS0_7binder1INS0_16range_connect_opINS_2ip3tcpENS_8executorENS6_22basic_resolver_resultsIS7_EENS0_25default_connect_conditionEZZN9SimpleWeb12SocketClientINS_19basic_stream_socketIS7_S8_EEE7connectEvENKUlRKSt10error_codeSA_E_clESJ_SA_EUlSJ_NS6_14basic_endpointIS7_EEE_EESH_EEEESaIvEEENS0_16thread_info_base21executor_function_tagEE8allocateEm
FNDA:0,_ZN4asio6detail19recycling_allocatorINS0_17executor_functionINS0_7binder1IZN9SimpleWeb16SocketClientBaseINS_19basic_stream_socketINS_2ip3tcpENS_8executorEEEE10Connection11set_timeoutElEUlRKSt10error_codeE_SD_EESaIvEEENS0_16thread_info_base21executor_function_tagEE8allocateEm
FNDA:0,_ZN4asio6detail19recycling_allocatorINS0_11executor_opINS_8executor8functionESaIvENS0_19scheduler_operationEEENS0_16thread_info_base11default_tagEE10deallocateEPS7_m
FNDA:0,_ZN4asio6detail19recycling_allocatorINS0_17executor_functionINS0_7binder2INS0_8write_opINS_19basic_stream_socketINS_2ip3tcpENS_8executorEEENS_15const_buffers_1EPKNS_12const_bufferENS0_14transfer_all_tENS0_18write_dynbuf_v1_opIS9_NS_19basic_streambuf_refISaIcEEESE_ZN9SimpleWeb16SocketClientBaseIS9_E10Connection15send_from_queueEvEUlRKSt10error_codemE_EEEESN_mEESaIvEEENS0_16thread_info_base21executor_function_tagEE10deallocateEPSV_m
FNDA:0,_ZN4asio6detail19recycling_allocatorINS0_17executor_functionINS0_7binder2INS0_8write_opINS_19basic_stream_socketINS_2ip3tcpENS_8executorEEENS_15const_buffers_1EPKNS_12const_bufferENS0_14transfer_all_tENS0_18write_dynbuf_v1_opIS9_NS_19basic_streambuf_refISaIcEEESE_ZN9SimpleWeb16SocketClientBaseIS9_E7upgradeERKSt10shared_ptrINSL_10ConnectionEEEUlRKSt10error_codemE_EEEESR_mEESaIvEEENS0_16thread_info_base21executor_function_tagEE10deallocateEPSZ_m
FNDA:0,_ZN4asio6detail19recycling_allocatorINS0_17executor_functionINS0_7binder2INS0_17read_dynbuf_v1_opINS_19basic_stream_socketINS_2ip3tcpENS_8executorEEENS_19basic_streambuf_refISaIcEEENS0_18transfer_exactly_tEZN9SimpleWeb16SocketClientBaseIS9_E20read_message_contentERKSt10shared_ptrINSG_10ConnectionEEmEUlRKSt10error_codemE_EESM_mEESaIvEEENS0_16thread_info_base21executor_function_tagEE10deallocateEPST_m
FNDA:0,_ZN4asio6detail19recycling_allocatorINS0_17executor_functionINS0_7binder2INS0_17read_dynbuf_v1_opINS_19basic_stream_socketINS_2ip3tcpENS_8executorEEENS_19basic_streambuf_refISaIcEEENS0_18transfer_exactly_tEZN9SimpleWeb16SocketClientBaseIS9_E12read_messageERKSt10shared_ptrINSG_10ConnectionEEmEUlRKSt10error_codemE_EESM_mEESaIvEEENS0_16thread_info_base21executor_function_tagEE10deallocateEPST_m
FNDA:0,_ZN4asio6detail19recycling_allocatorINS0_17executor_functionINS0_7binder2INS0_17read_dynbuf_v1_opINS_19basic_stream_socketINS_2ip3tcpENS_8executorEEENS_19basic_streambuf_refISaIcEEENS0_18transfer_exactly_tEZZN9SimpleWeb16SocketClientBaseIS9_E12read_messageERKSt10shared_ptrINSG_10ConnectionEEmENKUlRKSt10error_codemE_clESO_mEUlSO_mE0_EESM_mEESaIvEEENS0_16thread_info_base21executor_function_tagEE10deallocateEPSU_m
FNDA:0,_ZN4asio6detail19recycling_allocatorINS0_17executor_functionINS0_7binder2INS0_17read_dynbuf_v1_opINS_19basic_stream_socketINS_2ip3tcpENS_8executorEEENS_19basic_streambuf_refISaIcEEENS0_18transfer_exactly_tEZZN9SimpleWeb16SocketClientBaseIS9_E12read_messageERKSt10shared_ptrINSG_10ConnectionEEmENKUlRKSt10error_codemE_clESO_mEUlSO_mE_EESM_mEESaIvEEENS0_16thread_info_base21executor_function_tagEE10deallocateEPSU_m
FNDA:0,_ZN4asio6detail19recycling_allocatorINS0_17executor_functionINS0_7binder2INS0_29read_until_delim_string_op_v1INS_19basic_stream_socketINS_2ip3tcpENS_8executorEEENS_19basic_streambuf_refISaIcEEEZZN9SimpleWeb16SocketClientBaseIS9_E7upgradeERKSt10shared_ptrINSF_10ConnectionEEENKUlRKSt10error_codemE_clESN_mEUlSN_mE_EESL_mEESaIvEEENS0_16thread_info_base21executor_function_tagEE10deallocateEPST_m
FNDA:0,_ZN4asio6detail19recycling_allocatorINS0_17executor_functionINS0_7binder1INS0_16range_connect_opINS_2ip3tcpENS_8executorENS5_22basic_resolver_resultsIS6_EENS0_25default_connect_conditionEZZN9SimpleWeb12SocketClientINS_19basic_stream_socketIS6_S7_EEE7connectEvENKUlRKSt10error_codeS9_E_clESI_S9_EUlSI_NS5_14basic_endpointIS6_EEE_EESG_EESaIvEEENS0_16thread_info_base21executor_function_tagEE10deallocateEPSQ_m
FNDA:0,_ZN4asio6detail19recycling_allocatorINS0_17executor_functionINS0_7binder2IZN9SimpleWeb12SocketClientINS_19basic_stream_socketINS_2ip3tcpENS_8executorEEEE7connectEvEUlRKSt10error_codeNS7_22basic_resolver_resultsIS8_EEE_SC_SG_EESaIvEEENS0_16thread_info_base21executor_function_tagEE10deallocateEPSK_m
FNDA:0,_ZN4asio6detail19recycling_allocatorINS0_17executor_functionINS0_15work_dispatcherINS0_7binder1INS0_16range_connect_opINS_2ip3tcpENS_8executorENS6_22basic_resolver_resultsIS7_EENS0_25default_connect_conditionEZZN9SimpleWeb12SocketClientINS_19basic_stream_socketIS7_S8_EEE7connectEvENKUlRKSt10error_codeSA_E_clESJ_SA_EUlSJ_NS6_14basic_endpointIS7_EEE_EESH_EEEESaIvEEENS0_16thread_info_base21executor_function_tagEE10deallocateEPSS_m
FNDA:0,_ZN4asio6detail19recycling_allocatorINS0_17executor_functionINS0_7binder1IZN9SimpleWeb16SocketClientBaseINS_19basic_stream_socketINS_2ip3tcpENS_8executorEEEE10Connection11set_timeoutElEUlRKSt10error_codeE_SD_EESaIvEEENS0_16thread_info_base21executor_function_tagEE10deallocateEPSJ_m
FNDA:0,_ZN4asio6detail19recycling_allocatorIvNS0_16thread_info_base11default_tagEEC2Ev
FNDA:0,_ZN4asio6detail19recycling_allocatorIvNS0_16thread_info_base21executor_function_tagEEC2Ev
FNDA:0,_ZN4asio6detail23get_recycling_allocatorISaIvENS0_16thread_info_base11default_tagEE3getERKS2_
FNDA:0,_ZN4asio6detail23get_recycling_allocatorISaIvENS0_16thread_info_base21executor_function_tagEE3getERKS2_
FNF:40
FNH:0
DA:45,0
DA:47,0
DA:49,0
DA:52,0
DA:54,0
DA:57,0
DA:60,0
DA:62,0
DA:77,0
DA:79,0
DA:98,0
LF:11
LH:0
end_of_record
SF:/home/tistrauss/.conan/data/asio/1.13.0/_/_/package/5ab84d6acfe1f23c4fae0ab88f26e3a396351ac9/include/asio/detail/resolve_op.hpp
FN:27,_ZN4asio6detail10resolve_opD2Ev
FN:34,_ZN4asio6detail10resolve_opC2EPFvPvPNS0_19scheduler_operationERKSt10error_codemE
FNDA:0,_ZN4asio6detail10resolve_opD2Ev
FNDA:0,_ZN4asio6detail10resolve_opC2EPFvPvPNS0_19scheduler_operationERKSt10error_codemE
FNF:2
FNH:0
DA:27,0
DA:34,0
DA:35,0
DA:37,0
LF:4
LH:0
end_of_record
SF:/home/tistrauss/.conan/data/asio/1.13.0/_/_/package/5ab84d6acfe1f23c4fae0ab88f26e3a396351ac9/include/asio/detail/resolve_query_op.hpp
FN:45,_ZN4asio6detail16resolve_query_opINS_2ip3tcpEZN9SimpleWeb12SocketClientINS_19basic_stream_socketIS3_NS_8executorEEEE7connectEvEUlRKSt10error_codeNS2_22basic_resolver_resultsIS3_EEE_NS0_18io_object_executorIS7_EEE3ptr8allocateERSF_
FN:45,_ZN4asio6detail16resolve_query_opINS_2ip3tcpEZN9SimpleWeb12SocketClientINS_19basic_stream_socketIS3_NS_8executorEEEE7connectEvEUlRKSt10error_codeNS2_22basic_resolver_resultsIS3_EEE_NS0_18io_object_executorIS7_EEE3ptrD2Ev
FN:45,_ZN4asio6detail16resolve_query_opINS_2ip3tcpEZN9SimpleWeb12SocketClientINS_19basic_stream_socketIS3_NS_8executorEEEE7connectEvEUlRKSt10error_codeNS2_22basic_resolver_resultsIS3_EEE_NS0_18io_object_executorIS7_EEE3ptr5resetEv
FN:56,_ZN4asio6detail16resolve_query_opINS_2ip3tcpEZN9SimpleWeb12SocketClientINS_19basic_stream_socketIS3_NS_8executorEEEE7connectEvEUlRKSt10error_codeNS2_22basic_resolver_resultsIS3_EEE_NS0_18io_object_executorIS7_EEEC2ESt8weak_ptrIvERKNS2_20basic_resolver_queryIS3_EERNS0_9schedulerERSF_RKSH_
FN:70,_ZN4asio6detail16resolve_query_opINS_2ip3tcpEZN9SimpleWeb12SocketClientINS_19basic_stream_socketIS3_NS_8executorEEEE7connectEvEUlRKSt10error_codeNS2_22basic_resolver_resultsIS3_EEE_NS0_18io_object_executorIS7_EEED2Ev
FN:76,_ZN4asio6detail16resolve_query_opINS_2ip3tcpEZN9SimpleWeb12SocketClientINS_19basic_stream_socketIS3_NS_8executorEEEE7connectEvEUlRKSt10error_codeNS2_22basic_resolver_resultsIS3_EEE_NS0_18io_object_executorIS7_EEE11do_completeEPvPNS0_19scheduler_operationESC_m
FNDA:0,_ZN4asio6detail16resolve_query_opINS_2ip3tcpEZN9SimpleWeb12SocketClientINS_19basic_stream_socketIS3_NS_8executorEEEE7connectEvEUlRKSt10error_codeNS2_22basic_resolver_resultsIS3_EEE_NS0_18io_object_executorIS7_EEE3ptr5resetEv
FNDA:0,_ZN4asio6detail16resolve_query_opINS_2ip3tcpEZN9SimpleWeb12SocketClientINS_19basic_stream_socketIS3_NS_8executorEEEE7connectEvEUlRKSt10error_codeNS2_22basic_resolver_resultsIS3_EEE_NS0_18io_object_executorIS7_EEE3ptrD2Ev
FNDA:0,_ZN4asio6detail16resolve_query_opINS_2ip3tcpEZN9SimpleWeb12SocketClientINS_19basic_stream_socketIS3_NS_8executorEEEE7connectEvEUlRKSt10error_codeNS2_22basic_resolver_resultsIS3_EEE_NS0_18io_object_executorIS7_EEE3ptr8allocateERSF_
FNDA:0,_ZN4asio6detail16resolve_query_opINS_2ip3tcpEZN9SimpleWeb12SocketClientINS_19basic_stream_socketIS3_NS_8executorEEEE7connectEvEUlRKSt10error_codeNS2_22basic_resolver_resultsIS3_EEE_NS0_18io_object_executorIS7_EEEC2ESt8weak_ptrIvERKNS2_20basic_resolver_queryIS3_EERNS0_9schedulerERSF_RKSH_
FNDA:0,_ZN4asio6detail16resolve_query_opINS_2ip3tcpEZN9SimpleWeb12SocketClientINS_19basic_stream_socketIS3_NS_8executorEEEE7connectEvEUlRKSt10error_codeNS2_22basic_resolver_resultsIS3_EEE_NS0_18io_object_executorIS7_EEED2Ev
FNDA:0,_ZN4asio6detail16resolve_query_opINS_2ip3tcpEZN9SimpleWeb12SocketClientINS_19basic_stream_socketIS3_NS_8executorEEEE7connectEvEUlRKSt10error_codeNS2_22basic_resolver_resultsIS3_EEE_NS0_18io_object_executorIS7_EEE11do_completeEPvPNS0_19scheduler_operationESC_m
FNF:6
FNH:0
DA:45,0
DA:56,0
DA:65,0
DA:67,0
DA:68,0
DA:70,0
DA:72,0
DA:73,0
DA:74,0
DA:76,0
DA:81,0
DA:82,0
DA:84,0
DA:90,0
DA:95,0
DA:96,0
DA:104,0
DA:115,0
DA:116,0
DA:117,0
DA:119,0
DA:122,0
DA:124,0
DA:126,0
DA:128,0
DA:132,0
LF:26
LH:0
end_of_record
SF:/home/tistrauss/.conan/data/asio/1.13.0/_/_/package/5ab84d6acfe1f23c4fae0ab88f26e3a396351ac9/include/asio/detail/resolver_service.hpp
FN:36,_ZN4asio6detail16resolver_serviceINS_2ip3tcpEED2Ev
FN:36,_ZN4asio6detail16resolver_serviceINS_2ip3tcpEED0Ev
FN:55,_ZN4asio6detail16resolver_serviceINS_2ip3tcpEEC2ERNS_17execution_contextE
FN:62,_ZN4asio6detail16resolver_serviceINS_2ip3tcpEE8shutdownEv
FN:68,_ZN4asio6detail16resolver_serviceINS_2ip3tcpEE11notify_forkENS_17execution_context10fork_eventE
FN:89,_ZN4asio6detail16resolver_serviceINS_2ip3tcpEE13async_resolveIZN9SimpleWeb12SocketClientINS_19basic_stream_socketIS3_NS_8executorEEEE7connectEvEUlRKSt10error_codeNS2_22basic_resolver_resultsIS3_EEE_NS0_18io_object_executorIS9_EEEEvRSt10shared_ptrIvERKNS2_20basic_resolver_queryIS3_EERT_RKT0_
FNDA:0,_ZN4asio6detail16resolver_serviceINS_2ip3tcpEED0Ev
FNDA:0,_ZN4asio6detail16resolver_serviceINS_2ip3tcpEED2Ev
FNDA:0,_ZN4asio6detail16resolver_serviceINS_2ip3tcpEEC2ERNS_17execution_contextE
FNDA:0,_ZN4asio6detail16resolver_serviceINS_2ip3tcpEE8shutdownEv
FNDA:0,_ZN4asio6detail16resolver_serviceINS_2ip3tcpEE11notify_forkENS_17execution_context10fork_eventE
FNDA:0,_ZN4asio6detail16resolver_serviceINS_2ip3tcpEE13async_resolveIZN9SimpleWeb12SocketClientINS_19basic_stream_socketIS3_NS_8executorEEEE7connectEvEUlRKSt10error_codeNS2_22basic_resolver_resultsIS3_EEE_NS0_18io_object_executorIS9_EEEEvRSt10shared_ptrIvERKNS2_20basic_resolver_queryIS3_EERT_RKT0_
FNF:6
FNH:0
DA:36,0
DA:55,0
DA:57,0
DA:59,0
DA:62,0
DA:64,0
DA:65,0
DA:68,0
DA:70,0
DA:71,0
DA:89,0
DA:94,0
DA:95,0
DA:96,0
DA:101,0
DA:102,0
DA:103,0
LF:17
LH:0
end_of_record
SF:/home/tistrauss/.conan/data/asio/1.13.0/_/_/package/5ab84d6acfe1f23c4fae0ab88f26e3a396351ac9/include/asio/detail/scheduler.hpp
FN:85,_ZN4asio6detail9scheduler12work_startedEv
FN:95,_ZN4asio6detail9scheduler13work_finishedEv
FN:102,_ZN4asio6detail9scheduler12can_dispatchEv
FN:129,_ZNK4asio6detail9scheduler16concurrency_hintEv
FN:188,_ZN4asio6detail9scheduler14task_operationD2Ev
FN:190,_ZN4asio6detail9scheduler14task_operationC2Ev
FNDA:0,_ZN4asio6detail9scheduler12work_startedEv
FNDA:0,_ZN4asio6detail9scheduler13work_finishedEv
FNDA:0,_ZN4asio6detail9scheduler12can_dispatchEv
FNDA:0,_ZNK4asio6detail9scheduler16concurrency_hintEv
FNDA:0,_ZN4asio6detail9scheduler14task_operationD2Ev
FNDA:0,_ZN4asio6detail9scheduler14task_operationC2Ev
FNF:6
FNH:0
DA:85,0
DA:87,0
DA:88,0
DA:95,0
DA:97,0
DA:98,0
DA:99,0
DA:102,0
DA:104,0
DA:129,0
DA:131,0
DA:188,0
DA:190,0
LF:13
LH:0
end_of_record
SF:/home/tistrauss/.conan/data/asio/1.13.0/_/_/package/5ab84d6acfe1f23c4fae0ab88f26e3a396351ac9/include/asio/detail/scheduler_operation.hpp
FN:36,_ZN4asio6detail19scheduler_operation8completeEPvRKSt10error_codem
FN:42,_ZN4asio6detail19scheduler_operation7destroyEv
FN:52,_ZN4asio6detail19scheduler_operationC2EPFvPvPS1_RKSt10error_codemE
FN:60,_ZN4asio6detail19scheduler_operationD2Ev
FNDA:0,_ZN4asio6detail19scheduler_operation8completeEPvRKSt10error_codem
FNDA:0,_ZN4asio6detail19scheduler_operation7destroyEv
FNDA:0,_ZN4asio6detail19scheduler_operationC2EPFvPvPS1_RKSt10error_codemE
FNDA:0,_ZN4asio6detail19scheduler_operationD2Ev
FNF:4
FNH:0
DA:36,0
DA:39,0
DA:40,0
DA:42,0
DA:44,0
DA:45,0
DA:52,0
DA:53,0
DA:55,0
DA:57,0
DA:60,0
DA:61,0
DA:62,0
LF:13
LH:0
end_of_record
SF:/home/tistrauss/.conan/data/asio/1.13.0/_/_/package/5ab84d6acfe1f23c4fae0ab88f26e3a396351ac9/include/asio/detail/scheduler_thread_info.hpp
FN:29,_ZN4asio6detail21scheduler_thread_infoD2Ev
FN:29,_ZN4asio6detail21scheduler_thread_infoC2Ev
FNDA:0,_ZN4asio6detail21scheduler_thread_infoD2Ev
FNDA:0,_ZN4asio6detail21scheduler_thread_infoC2Ev
FNF:2
FNH:0
DA:29,0
LF:1
LH:0
end_of_record
SF:/home/tistrauss/.conan/data/asio/1.13.0/_/_/package/5ab84d6acfe1f23c4fae0ab88f26e3a396351ac9/include/asio/detail/scoped_lock.hpp
FN:42,_ZN4asio6detail11scoped_lockINS0_11posix_mutexEEC2ERS2_
FN:50,_ZN4asio6detail11scoped_lockINS0_11posix_mutexEED2Ev
FN:57,_ZN4asio6detail11scoped_lockINS0_11posix_mutexEE4lockEv
FN:67,_ZN4asio6detail11scoped_lockINS0_11posix_mutexEE6unlockEv
FNDA:0,_ZN4asio6detail11scoped_lockINS0_11posix_mutexEEC2ERS2_
FNDA:0,_ZN4asio6detail11scoped_lockINS0_11posix_mutexEED2Ev
FNDA:0,_ZN4asio6detail11scoped_lockINS0_11posix_mutexEE4lockEv
FNDA:0,_ZN4asio6detail11scoped_lockINS0_11posix_mutexEE6unlockEv
FNF:4
FNH:0
DA:42,0
DA:43,0
DA:45,0
DA:46,0
DA:47,0
DA:50,0
DA:52,0
DA:53,0
DA:54,0
DA:57,0
DA:59,0
DA:61,0
DA:62,0
DA:64,0
DA:67,0
DA:69,0
DA:71,0
DA:72,0
DA:74,0
LF:19
LH:0
end_of_record
SF:/home/tistrauss/.conan/data/asio/1.13.0/_/_/package/5ab84d6acfe1f23c4fae0ab88f26e3a396351ac9/include/asio/detail/scoped_ptr.hpp
FN:30,_ZN4asio6detail10scoped_ptrINS0_9schedulerEEC2EPS2_
FN:30,_ZN4asio6detail10scoped_ptrINS0_12posix_threadEEC2EPS2_
FN:36,_ZN4asio6detail10scoped_ptrINS0_9schedulerEED2Ev
FN:36,_ZN4asio6detail10scoped_ptrINS0_12posix_threadEED2Ev
FN:42,_ZN4asio6detail10scoped_ptrINS0_9schedulerEE3getEv
FN:42,_ZN4asio6detail10scoped_ptrINS0_12posix_threadEE3getEv
FN:48,_ZN4asio6detail10scoped_ptrINS0_12posix_threadEEptEv
FN:48,_ZN4asio6detail10scoped_ptrINS0_9schedulerEEptEv
FN:54,_ZN4asio6detail10scoped_ptrINS0_9schedulerEEdeEv
FN:60,_ZN4asio6detail10scoped_ptrINS0_12posix_threadEE5resetEPS2_
FN:60,_ZN4asio6detail10scoped_ptrINS0_9schedulerEE5resetEPS2_
FN:67,_ZN4asio6detail10scoped_ptrINS0_9schedulerEE7releaseEv
FNDA:0,_ZN4asio6detail10scoped_ptrINS0_12posix_threadEEC2EPS2_
FNDA:0,_ZN4asio6detail10scoped_ptrINS0_9schedulerEEC2EPS2_
FNDA:0,_ZN4asio6detail10scoped_ptrINS0_12posix_threadEED2Ev
FNDA:0,_ZN4asio6detail10scoped_ptrINS0_9schedulerEED2Ev
FNDA:0,_ZN4asio6detail10scoped_ptrINS0_12posix_threadEE3getEv
FNDA:0,_ZN4asio6detail10scoped_ptrINS0_9schedulerEE3getEv
FNDA:0,_ZN4asio6detail10scoped_ptrINS0_12posix_threadEEptEv
FNDA:0,_ZN4asio6detail10scoped_ptrINS0_9schedulerEEptEv
FNDA:0,_ZN4asio6detail10scoped_ptrINS0_9schedulerEEdeEv
FNDA:0,_ZN4asio6detail10scoped_ptrINS0_9schedulerEE5resetEPS2_
FNDA:0,_ZN4asio6detail10scoped_ptrINS0_12posix_threadEE5resetEPS2_
FNDA:0,_ZN4asio6detail10scoped_ptrINS0_9schedulerEE7releaseEv
FNF:12
FNH:0
DA:30,0
DA:31,0
DA:33,0
DA:36,0
DA:38,0
DA:39,0
DA:42,0
DA:44,0
DA:48,0
DA:50,0
DA:54,0
DA:56,0
DA:60,0
DA:62,0
DA:63,0
DA:64,0
DA:67,0
DA:69,0
DA:70,0
DA:71,0
LF:20
LH:0
end_of_record
SF:/home/tistrauss/.conan/data/asio/1.13.0/_/_/package/5ab84d6acfe1f23c4fae0ab88f26e3a396351ac9/include/asio/detail/service_registry.hpp
FN:124,_ZN4asio6detail16service_registry16auto_service_ptrD2Ev
FNDA:0,_ZN4asio6detail16service_registry16auto_service_ptrD2Ev
FNF:1
FNH:0
DA:124,0
LF:1
LH:0
end_of_record
SF:/home/tistrauss/.conan/data/asio/1.13.0/_/_/package/5ab84d6acfe1f23c4fae0ab88f26e3a396351ac9/include/asio/detail/socket_holder.hpp
FN:39,_ZN4asio6detail13socket_holderC2Ei
FN:45,_ZN4asio6detail13socket_holderD2Ev
FN:56,_ZNK4asio6detail13socket_holder3getEv
FN:81,_ZN4asio6detail13socket_holder7releaseEv
FNDA:0,_ZN4asio6detail13socket_holderC2Ei
FNDA:0,_ZN4asio6detail13socket_holderD2Ev
FNDA:0,_ZNK4asio6detail13socket_holder3getEv
FNDA:0,_ZN4asio6detail13socket_holder7releaseEv
FNF:4
FNH:0
DA:39,0
DA:40,0
DA:42,0
DA:45,0
DA:46,0
DA:47,0
DA:49,0
DA:50,0
DA:51,0
DA:53,0
DA:56,0
DA:58,0
DA:81,0
DA:83,0
DA:84,0
DA:85,0
LF:16
LH:0
end_of_record
SF:/home/tistrauss/.conan/data/asio/1.13.0/_/_/package/5ab84d6acfe1f23c4fae0ab88f26e3a396351ac9/include/asio/detail/socket_ops.hpp
FN:60,_ZN4asio6detail10socket_ops12noop_deleterclEPv
FNDA:0,_ZN4asio6detail10socket_ops12noop_deleterclEPv
FNF:1
FNH:0
DA:60,0
LF:1
LH:0
end_of_record
SF:/home/tistrauss/.conan/data/asio/1.13.0/_/_/package/5ab84d6acfe1f23c4fae0ab88f26e3a396351ac9/include/asio/detail/socket_option.hpp
FN:42,_ZN4asio6detail13socket_option7booleanILi6ELi1EEC2Eb
FN:74,_ZNK4asio6detail13socket_option7booleanILi6ELi1EE5levelINS_2ip3tcpEEEiRKT_
FN:81,_ZNK4asio6detail13socket_option7booleanILi6ELi1EE4nameINS_2ip3tcpEEEiRKT_
FN:95,_ZNK4asio6detail13socket_option7booleanILi6ELi1EE4dataINS_2ip3tcpEEEPKiRKT_
FN:102,_ZNK4asio6detail13socket_option7booleanILi6ELi1EE4sizeINS_2ip3tcpEEEmRKT_
FNDA:0,_ZN4asio6detail13socket_option7booleanILi6ELi1EEC2Eb
FNDA:0,_ZNK4asio6detail13socket_option7booleanILi6ELi1EE5levelINS_2ip3tcpEEEiRKT_
FNDA:0,_ZNK4asio6detail13socket_option7booleanILi6ELi1EE4nameINS_2ip3tcpEEEiRKT_
FNDA:0,_ZNK4asio6detail13socket_option7booleanILi6ELi1EE4dataINS_2ip3tcpEEEPKiRKT_
FNDA:0,_ZNK4asio6detail13socket_option7booleanILi6ELi1EE4sizeINS_2ip3tcpEEEmRKT_
FNF:5
FNH:0
DA:42,0
DA:43,0
DA:45,0
DA:74,0
DA:76,0
DA:81,0
DA:83,0
DA:95,0
DA:97,0
DA:102,0
DA:104,0
LF:11
LH:0
end_of_record
SF:/home/tistrauss/.conan/data/asio/1.13.0/_/_/package/5ab84d6acfe1f23c4fae0ab88f26e3a396351ac9/include/asio/detail/std_fenced_block.hpp
FN:38,_ZN4asio6detail16std_fenced_blockC2ENS1_6half_tE
FN:43,_ZN4asio6detail16std_fenced_blockC2ENS1_6full_tE
FN:49,_ZN4asio6detail16std_fenced_blockD2Ev
FNDA:0,_ZN4asio6detail16std_fenced_blockC2ENS1_6half_tE
FNDA:0,_ZN4asio6detail16std_fenced_blockC2ENS1_6full_tE
FNDA:0,_ZN4asio6detail16std_fenced_blockD2Ev
FNF:3
FNH:0
DA:38,0
DA:39,0
DA:40,0
DA:43,0
DA:44,0
DA:46,0
DA:49,0
DA:50,0
DA:52,0
LF:9
LH:0
end_of_record
SF:/home/tistrauss/.conan/data/asio/1.13.0/_/_/package/5ab84d6acfe1f23c4fae0ab88f26e3a396351ac9/include/asio/detail/thread_group.hpp
FN:35,_ZN4asio6detail12thread_groupD2Ev
FN:56,_ZN4asio6detail12thread_group4joinEv
FN:75,_ZN4asio6detail12thread_group4itemD2Ev
FNDA:0,_ZN4asio6detail12thread_groupD2Ev
FNDA:0,_ZN4asio6detail12thread_group4joinEv
FNDA:0,_ZN4asio6detail12thread_group4itemD2Ev
FNF:3
FNH:0
DA:35,0
DA:36,0
DA:37,0
DA:38,0
DA:56,0
DA:58,0
DA:60,0
DA:61,0
DA:62,0
DA:63,0
DA:65,0
DA:75,0
LF:12
LH:0
end_of_record
SF:/home/tistrauss/.conan/data/asio/1.13.0/_/_/package/5ab84d6acfe1f23c4fae0ab88f26e3a396351ac9/include/asio/detail/thread_info_base.hpp
FN:46,_ZN4asio6detail16thread_info_baseC2Ev
FN:52,_ZN4asio6detail16thread_info_baseD2Ev
FN:59,_ZN4asio6detail16thread_info_base8allocateEPS1_m
FN:64,_ZN4asio6detail16thread_info_base10deallocateEPS1_Pvm
FN:71,_ZN4asio6detail16thread_info_base8allocateINS1_11default_tagEEEPvT_PS1_m
FN:71,_ZN4asio6detail16thread_info_base8allocateINS1_21executor_function_tagEEEPvT_PS1_m
FN:98,_ZN4asio6detail16thread_info_base10deallocateINS1_21executor_function_tagEEEvT_PS1_Pvm
FN:98,_ZN4asio6detail16thread_info_base10deallocateINS1_11default_tagEEEvT_PS1_Pvm
FNDA:0,_ZN4asio6detail16thread_info_baseC2Ev
FNDA:0,_ZN4asio6detail16thread_info_baseD2Ev
FNDA:0,_ZN4asio6detail16thread_info_base8allocateEPS1_m
FNDA:0,_ZN4asio6detail16thread_info_base10deallocateEPS1_Pvm
FNDA:0,_ZN4asio6detail16thread_info_base8allocateINS1_21executor_function_tagEEEPvT_PS1_m
FNDA:0,_ZN4asio6detail16thread_info_base8allocateINS1_11default_tagEEEPvT_PS1_m
FNDA:0,_ZN4asio6detail16thread_info_base10deallocateINS1_21executor_function_tagEEEvT_PS1_Pvm
FNDA:0,_ZN4asio6detail16thread_info_base10deallocateINS1_11default_tagEEEvT_PS1_Pvm
FNF:8
FNH:0
DA:46,0
DA:47,0
DA:48,0
DA:49,0
DA:50,0
DA:52,0
DA:53,0
DA:54,0
DA:55,0
DA:56,0
DA:57,0
DA:59,0
DA:61,0
DA:64,0
DA:67,0
DA:68,0
DA:71,0
DA:74,0
DA:76,0
DA:78,0
DA:79,0
DA:81,0
DA:82,0
DA:84,0
DA:85,0
DA:88,0
DA:91,0
DA:92,0
DA:93,0
DA:94,0
DA:98,0
DA:101,0
DA:103,0
DA:105,0
DA:106,0
DA:107,0
DA:108,0
DA:112,0
LF:38
LH:0
end_of_record
SF:/home/tistrauss/.conan/data/asio/1.13.0/_/_/package/5ab84d6acfe1f23c4fae0ab88f26e3a396351ac9/include/asio/detail/throw_error.hpp
FN:31,_ZN4asio6detail11throw_errorERKSt10error_code
FN:37,_ZN4asio6detail11throw_errorERKSt10error_codePKc
FNDA:0,_ZN4asio6detail11throw_errorERKSt10error_code
FNDA:0,_ZN4asio6detail11throw_errorERKSt10error_codePKc
FNF:2
FNH:0
DA:31,0
DA:33,0
DA:34,0
DA:35,0
DA:37,0
DA:40,0
DA:41,0
DA:42,0
LF:8
LH:0
end_of_record
SF:/home/tistrauss/.conan/data/asio/1.13.0/_/_/package/5ab84d6acfe1f23c4fae0ab88f26e3a396351ac9/include/asio/detail/throw_exception.hpp
FN:40,_ZN4asio6detail15throw_exceptionINS_21invalid_service_ownerEEEvRKT_
FN:40,_ZN4asio6detail15throw_exceptionINS_12bad_executorEEEvRKT_
FN:40,_ZN4asio6detail15throw_exceptionISt12system_errorEEvRKT_
FN:40,_ZN4asio6detail15throw_exceptionINS_22service_already_existsEEEvRKT_
FN:40,_ZN4asio6detail15throw_exceptionISt12length_errorEEvRKT_
FNDA:0,_ZN4asio6detail15throw_exceptionISt12length_errorEEvRKT_
FNDA:0,_ZN4asio6detail15throw_exceptionINS_12bad_executorEEEvRKT_
FNDA:0,_ZN4asio6detail15throw_exceptionINS_22service_already_existsEEEvRKT_
FNDA:0,_ZN4asio6detail15throw_exceptionINS_21invalid_service_ownerEEEvRKT_
FNDA:0,_ZN4asio6detail15throw_exceptionISt12system_errorEEvRKT_
FNF:5
FNH:0
DA:40,0
DA:42,0
LF:2
LH:0
end_of_record
SF:/home/tistrauss/.conan/data/asio/1.13.0/_/_/package/5ab84d6acfe1f23c4fae0ab88f26e3a396351ac9/include/asio/detail/timer_queue.hpp
FN:35,_ZN4asio6detail11timer_queueINS0_18chrono_time_traitsINSt6chrono3_V212steady_clockENS_11wait_traitsIS5_EEEEED2Ev
FN:35,_ZN4asio6detail11timer_queueINS0_18chrono_time_traitsINSt6chrono3_V212steady_clockENS_11wait_traitsIS5_EEEEED0Ev
FN:46,_ZN4asio6detail11timer_queueINS0_18chrono_time_traitsINSt6chrono3_V212steady_clockENS_11wait_traitsIS5_EEEEE14per_timer_dataD2Ev
FN:49,_ZN4asio6detail11timer_queueINS0_18chrono_time_traitsINSt6chrono3_V212steady_clockENS_11wait_traitsIS5_EEEEE14per_timer_dataC2Ev
FN:70,_ZN4asio6detail11timer_queueINS0_18chrono_time_traitsINSt6chrono3_V212steady_clockENS_11wait_traitsIS5_EEEEEC2Ev
FN:79,_ZN4asio6detail11timer_queueINS0_18chrono_time_traitsINSt6chrono3_V212steady_clockENS_11wait_traitsIS5_EEEEE13enqueue_timerERKNS3_10time_pointIS5_NS3_8durationIlSt5ratioILl1ELl1000000000EEEEEERNS9_14per_timer_dataEPNS0_7wait_opE
FN:115,_ZNK4asio6detail11timer_queueINS0_18chrono_time_traitsINSt6chrono3_V212steady_clockENS_11wait_traitsIS5_EEEEE5emptyEv
FN:121,_ZNK4asio6detail11timer_queueINS0_18chrono_time_traitsINSt6chrono3_V212steady_clockENS_11wait_traitsIS5_EEEEE18wait_duration_msecEl
FN:133,_ZNK4asio6detail11timer_queueINS0_18chrono_time_traitsINSt6chrono3_V212steady_clockENS_11wait_traitsIS5_EEEEE18wait_duration_usecEl
FN:145,_ZN4asio6detail11timer_queueINS0_18chrono_time_traitsINSt6chrono3_V212steady_clockENS_11wait_traitsIS5_EEEEE16get_ready_timersERNS0_8op_queueINS0_19scheduler_operationEEE
FN:160,_ZN4asio6detail11timer_queueINS0_18chrono_time_traitsINSt6chrono3_V212steady_clockENS_11wait_traitsIS5_EEEEE14get_all_timersERNS0_8op_queueINS0_19scheduler_operationEEE
FN:175,_ZN4asio6detail11timer_queueINS0_18chrono_time_traitsINSt6chrono3_V212steady_clockENS_11wait_traitsIS5_EEEEE12cancel_timerERNS9_14per_timer_dataERNS0_8op_queueINS0_19scheduler_operationEEEm
FN:220,_ZN4asio6detail11timer_queueINS0_18chrono_time_traitsINSt6chrono3_V212steady_clockENS_11wait_traitsIS5_EEEEE7up_heapEm
FN:233,_ZN4asio6detail11timer_queueINS0_18chrono_time_traitsINSt6chrono3_V212steady_clockENS_11wait_traitsIS5_EEEEE9down_heapEm
FN:251,_ZN4asio6detail11timer_queueINS0_18chrono_time_traitsINSt6chrono3_V212steady_clockENS_11wait_traitsIS5_EEEEE9swap_heapEmm
FN:261,_ZN4asio6detail11timer_queueINS0_18chrono_time_traitsINSt6chrono3_V212steady_clockENS_11wait_traitsIS5_EEEEE12remove_timerERNS9_14per_timer_dataE
FN:298,_ZN4asio6detail11timer_queueINS0_18chrono_time_traitsINSt6chrono3_V212steady_clockENS_11wait_traitsIS5_EEEEE20is_positive_infinityINS3_10time_pointIS5_NS3_8durationIlSt5ratioILl1ELl1000000000EEEEEEEEbRKT_
FN:313,_ZNK4asio6detail11timer_queueINS0_18chrono_time_traitsINSt6chrono3_V212steady_clockENS_11wait_traitsIS5_EEEEE7to_msecINS8_19posix_time_durationEEElRKT_l
FN:327,_ZNK4asio6detail11timer_queueINS0_18chrono_time_traitsINSt6chrono3_V212steady_clockENS_11wait_traitsIS5_EEEEE7to_usecINS8_19posix_time_durationEEElRKT_l
FNDA:0,_ZN4asio6detail11timer_queueINS0_18chrono_time_traitsINSt6chrono3_V212steady_clockENS_11wait_traitsIS5_EEEEED0Ev
FNDA:0,_ZN4asio6detail11timer_queueINS0_18chrono_time_traitsINSt6chrono3_V212steady_clockENS_11wait_traitsIS5_EEEEED2Ev
FNDA:0,_ZN4asio6detail11timer_queueINS0_18chrono_time_traitsINSt6chrono3_V212steady_clockENS_11wait_traitsIS5_EEEEE14per_timer_dataD2Ev
FNDA:0,_ZN4asio6detail11timer_queueINS0_18chrono_time_traitsINSt6chrono3_V212steady_clockENS_11wait_traitsIS5_EEEEE14per_timer_dataC2Ev
FNDA:0,_ZN4asio6detail11timer_queueINS0_18chrono_time_traitsINSt6chrono3_V212steady_clockENS_11wait_traitsIS5_EEEEEC2Ev
FNDA:0,_ZN4asio6detail11timer_queueINS0_18chrono_time_traitsINSt6chrono3_V212steady_clockENS_11wait_traitsIS5_EEEEE13enqueue_timerERKNS3_10time_pointIS5_NS3_8durationIlSt5ratioILl1ELl1000000000EEEEEERNS9_14per_timer_dataEPNS0_7wait_opE
FNDA:0,_ZNK4asio6detail11timer_queueINS0_18chrono_time_traitsINSt6chrono3_V212steady_clockENS_11wait_traitsIS5_EEEEE5emptyEv
FNDA:0,_ZNK4asio6detail11timer_queueINS0_18chrono_time_traitsINSt6chrono3_V212steady_clockENS_11wait_traitsIS5_EEEEE18wait_duration_msecEl
FNDA:0,_ZNK4asio6detail11timer_queueINS0_18chrono_time_traitsINSt6chrono3_V212steady_clockENS_11wait_traitsIS5_EEEEE18wait_duration_usecEl
FNDA:0,_ZN4asio6detail11timer_queueINS0_18chrono_time_traitsINSt6chrono3_V212steady_clockENS_11wait_traitsIS5_EEEEE16get_ready_timersERNS0_8op_queueINS0_19scheduler_operationEEE
FNDA:0,_ZN4asio6detail11timer_queueINS0_18chrono_time_traitsINSt6chrono3_V212steady_clockENS_11wait_traitsIS5_EEEEE14get_all_timersERNS0_8op_queueINS0_19scheduler_operationEEE
FNDA:0,_ZN4asio6detail11timer_queueINS0_18chrono_time_traitsINSt6chrono3_V212steady_clockENS_11wait_traitsIS5_EEEEE12cancel_timerERNS9_14per_timer_dataERNS0_8op_queueINS0_19scheduler_operationEEEm
FNDA:0,_ZN4asio6detail11timer_queueINS0_18chrono_time_traitsINSt6chrono3_V212steady_clockENS_11wait_traitsIS5_EEEEE7up_heapEm
FNDA:0,_ZN4asio6detail11timer_queueINS0_18chrono_time_traitsINSt6chrono3_V212steady_clockENS_11wait_traitsIS5_EEEEE9down_heapEm
FNDA:0,_ZN4asio6detail11timer_queueINS0_18chrono_time_traitsINSt6chrono3_V212steady_clockENS_11wait_traitsIS5_EEEEE9swap_heapEmm
FNDA:0,_ZN4asio6detail11timer_queueINS0_18chrono_time_traitsINSt6chrono3_V212steady_clockENS_11wait_traitsIS5_EEEEE12remove_timerERNS9_14per_timer_dataE
FNDA:0,_ZN4asio6detail11timer_queueINS0_18chrono_time_traitsINSt6chrono3_V212steady_clockENS_11wait_traitsIS5_EEEEE20is_positive_infinityINS3_10time_pointIS5_NS3_8durationIlSt5ratioILl1ELl1000000000EEEEEEEEbRKT_
FNDA:0,_ZNK4asio6detail11timer_queueINS0_18chrono_time_traitsINSt6chrono3_V212steady_clockENS_11wait_traitsIS5_EEEEE7to_msecINS8_19posix_time_durationEEElRKT_l
FNDA:0,_ZNK4asio6detail11timer_queueINS0_18chrono_time_traitsINSt6chrono3_V212steady_clockENS_11wait_traitsIS5_EEEEE7to_usecINS8_19posix_time_durationEEElRKT_l
FNF:19
FNH:0
DA:35,0
DA:46,0
DA:49,0
DA:50,0
DA:51,0
DA:53,0
DA:70,0
DA:72,0
DA:74,0
DA:79,0
DA:82,0
DA:84,0
DA:87,0
DA:93,0
DA:94,0
DA:95,0
DA:96,0
DA:100,0
DA:101,0
DA:102,0
DA:103,0
DA:104,0
DA:108,0
DA:111,0
DA:115,0
DA:117,0
DA:121,0
DA:123,0
DA:124,0
DA:127,0
DA:128,0
DA:129,0
DA:133,0
DA:135,0
DA:136,0
DA:139,0
DA:140,0
DA:141,0
DA:145,0
DA:147,0
DA:149,0
DA:150,0
DA:152,0
DA:153,0
DA:154,0
DA:157,0
DA:160,0
DA:162,0
DA:164,0
DA:165,0
DA:166,0
DA:167,0
DA:168,0
DA:171,0
DA:172,0
DA:175,0
DA:178,0
DA:179,0
DA:181,0
DA:182,0
DA:184,0
DA:185,0
DA:186,0
DA:187,0
DA:189,0
DA:190,0
DA:192,0
DA:220,0
DA:222,0
DA:224,0
DA:225,0
DA:226,0
DA:227,0
DA:228,0
DA:230,0
DA:233,0
DA:235,0
DA:236,0
DA:238,0
DA:239,0
DA:240,0
DA:241,0
DA:242,0
DA:243,0
DA:244,0
DA:245,0
DA:246,0
DA:248,0
DA:251,0
DA:253,0
DA:254,0
DA:255,0
DA:256,0
DA:257,0
DA:258,0
DA:261,0
DA:264,0
DA:265,0
DA:267,0
DA:269,0
DA:270,0
DA:274,0
DA:275,0
DA:276,0
DA:277,0
DA:278,0
DA:279,0
DA:281,0
DA:286,0
DA:287,0
DA:288,0
DA:289,0
DA:290,0
DA:291,0
DA:292,0
DA:293,0
DA:294,0
DA:298,0
DA:300,0
DA:313,0
DA:315,0
DA:316,0
DA:317,0
DA:318,0
DA:319,0
DA:320,0
DA:321,0
DA:322,0
DA:327,0
DA:329,0
DA:330,0
DA:331,0
DA:332,0
DA:333,0
DA:334,0
DA:335,0
DA:336,0
LF:137
LH:0
end_of_record
SF:/home/tistrauss/.conan/data/asio/1.13.0/_/_/package/5ab84d6acfe1f23c4fae0ab88f26e3a396351ac9/include/asio/detail/timer_queue_base.hpp
FN:33,_ZN4asio6detail16timer_queue_baseC2Ev
FN:36,_ZN4asio6detail16timer_queue_baseD0Ev
FN:36,_ZN4asio6detail16timer_queue_baseD2Ev
FNDA:0,_ZN4asio6detail16timer_queue_baseC2Ev
FNDA:0,_ZN4asio6detail16timer_queue_baseD0Ev
FNDA:0,_ZN4asio6detail16timer_queue_baseD2Ev
FNF:3
FNH:0
DA:33,0
DA:36,0
LF:2
LH:0
end_of_record
SF:/home/tistrauss/.conan/data/asio/1.13.0/_/_/package/5ab84d6acfe1f23c4fae0ab88f26e3a396351ac9/include/asio/detail/tss_ptr.hpp
FN:38,_ZN4asio6detail7tss_ptrINS0_10call_stackINS0_23strand_executor_service11strand_implEhE7contextEED2Ev
FN:38,_ZN4asio6detail7tss_ptrINS0_10call_stackINS0_14strand_service11strand_implEhE7contextEEC2Ev
FN:38,_ZN4asio6detail7tss_ptrINS0_10call_stackINS0_23strand_executor_service11strand_implEhE7contextEEC2Ev
FN:38,_ZN4asio6detail7tss_ptrINS0_10call_stackINS0_14thread_contextENS0_16thread_info_baseEE7contextEEC2Ev
FN:38,_ZN4asio6detail7tss_ptrINS0_10call_stackINS0_14strand_service11strand_implEhE7contextEED2Ev
FN:38,_ZN4asio6detail7tss_ptrINS0_10call_stackINS0_14thread_contextENS0_16thread_info_baseEE7contextEED2Ev
FN:50,_ZN4asio6detail7tss_ptrINS0_10call_stackINS0_14thread_contextENS0_16thread_info_baseEE7contextEEaSEPS6_
FNDA:0,_ZN4asio6detail7tss_ptrINS0_10call_stackINS0_23strand_executor_service11strand_implEhE7contextEED2Ev
FNDA:0,_ZN4asio6detail7tss_ptrINS0_10call_stackINS0_14strand_service11strand_implEhE7contextEED2Ev
FNDA:0,_ZN4asio6detail7tss_ptrINS0_10call_stackINS0_14thread_contextENS0_16thread_info_baseEE7contextEED2Ev
FNDA:0,_ZN4asio6detail7tss_ptrINS0_10call_stackINS0_23strand_executor_service11strand_implEhE7contextEEC2Ev
FNDA:0,_ZN4asio6detail7tss_ptrINS0_10call_stackINS0_14strand_service11strand_implEhE7contextEEC2Ev
FNDA:0,_ZN4asio6detail7tss_ptrINS0_10call_stackINS0_14thread_contextENS0_16thread_info_baseEE7contextEEC2Ev
FNDA:0,_ZN4asio6detail7tss_ptrINS0_10call_stackINS0_14thread_contextENS0_16thread_info_baseEE7contextEEaSEPS6_
FNF:7
FNH:0
DA:38,0
DA:50,0
DA:55,0
DA:61,0
LF:4
LH:0
end_of_record
SF:/home/tistrauss/.conan/data/asio/1.13.0/_/_/package/5ab84d6acfe1f23c4fae0ab88f26e3a396351ac9/include/asio/detail/wait_handler.hpp
FN:32,_ZN4asio6detail12wait_handlerIZN9SimpleWeb16SocketClientBaseINS_19basic_stream_socketINS_2ip3tcpENS_8executorEEEE10Connection11set_timeoutElEUlRKSt10error_codeE_NS0_18io_object_executorIS7_EEED2Ev
FN:35,_ZN4asio6detail12wait_handlerIZN9SimpleWeb16SocketClientBaseINS_19basic_stream_socketINS_2ip3tcpENS_8executorEEEE10Connection11set_timeoutElEUlRKSt10error_codeE_NS0_18io_object_executorIS7_EEE3ptr5resetEv
FN:35,_ZN4asio6detail12wait_handlerIZN9SimpleWeb16SocketClientBaseINS_19basic_stream_socketINS_2ip3tcpENS_8executorEEEE10Connection11set_timeoutElEUlRKSt10error_codeE_NS0_18io_object_executorIS7_EEE3ptr8allocateERSE_
FN:35,_ZN4asio6detail12wait_handlerIZN9SimpleWeb16SocketClientBaseINS_19basic_stream_socketINS_2ip3tcpENS_8executorEEEE10Connection11set_timeoutElEUlRKSt10error_codeE_NS0_18io_object_executorIS7_EEE3ptrD2Ev
FN:37,_ZN4asio6detail12wait_handlerIZN9SimpleWeb16SocketClientBaseINS_19basic_stream_socketINS_2ip3tcpENS_8executorEEEE10Connection11set_timeoutElEUlRKSt10error_codeE_NS0_18io_object_executorIS7_EEEC2ERSE_RKSG_
FN:45,_ZN4asio6detail12wait_handlerIZN9SimpleWeb16SocketClientBaseINS_19basic_stream_socketINS_2ip3tcpENS_8executorEEEE10Connection11set_timeoutElEUlRKSt10error_codeE_NS0_18io_object_executorIS7_EEE11do_completeEPvPNS0_19scheduler_operationESD_m
FNDA:0,_ZN4asio6detail12wait_handlerIZN9SimpleWeb16SocketClientBaseINS_19basic_stream_socketINS_2ip3tcpENS_8executorEEEE10Connection11set_timeoutElEUlRKSt10error_codeE_NS0_18io_object_executorIS7_EEED2Ev
FNDA:0,_ZN4asio6detail12wait_handlerIZN9SimpleWeb16SocketClientBaseINS_19basic_stream_socketINS_2ip3tcpENS_8executorEEEE10Connection11set_timeoutElEUlRKSt10error_codeE_NS0_18io_object_executorIS7_EEE3ptr5resetEv
FNDA:0,_ZN4asio6detail12wait_handlerIZN9SimpleWeb16SocketClientBaseINS_19basic_stream_socketINS_2ip3tcpENS_8executorEEEE10Connection11set_timeoutElEUlRKSt10error_codeE_NS0_18io_object_executorIS7_EEE3ptrD2Ev
FNDA:0,_ZN4asio6detail12wait_handlerIZN9SimpleWeb16SocketClientBaseINS_19basic_stream_socketINS_2ip3tcpENS_8executorEEEE10Connection11set_timeoutElEUlRKSt10error_codeE_NS0_18io_object_executorIS7_EEE3ptr8allocateERSE_
FNDA:0,_ZN4asio6detail12wait_handlerIZN9SimpleWeb16SocketClientBaseINS_19basic_stream_socketINS_2ip3tcpENS_8executorEEEE10Connection11set_timeoutElEUlRKSt10error_codeE_NS0_18io_object_executorIS7_EEEC2ERSE_RKSG_
FNDA:0,_ZN4asio6detail12wait_handlerIZN9SimpleWeb16SocketClientBaseINS_19basic_stream_socketINS_2ip3tcpENS_8executorEEEE10Connection11set_timeoutElEUlRKSt10error_codeE_NS0_18io_object_executorIS7_EEE11do_completeEPvPNS0_19scheduler_operationESD_m
FNF:6
FNH:0
DA:32,0
DA:35,0
DA:37,0
DA:40,0
DA:42,0
DA:43,0
DA:45,0
DA:50,0
DA:51,0
DA:52,0
DA:63,0
DA:64,0
DA:65,0
DA:68,0
DA:70,0
DA:72,0
DA:75,0
LF:17
LH:0
end_of_record
SF:/home/tistrauss/.conan/data/asio/1.13.0/_/_/package/5ab84d6acfe1f23c4fae0ab88f26e3a396351ac9/include/asio/detail/wait_op.hpp
FN:26,_ZN4asio6detail7wait_opD2Ev
FN:34,_ZN4asio6detail7wait_opC2EPFvPvPNS0_19scheduler_operationERKSt10error_codemE
FNDA:0,_ZN4asio6detail7wait_opD2Ev
FNDA:0,_ZN4asio6detail7wait_opC2EPFvPvPNS0_19scheduler_operationERKSt10error_codemE
FNF:2
FNH:0
DA:26,0
DA:34,0
DA:35,0
DA:37,0
LF:4
LH:0
end_of_record
SF:/home/tistrauss/.conan/data/asio/1.13.0/_/_/package/5ab84d6acfe1f23c4fae0ab88f26e3a396351ac9/include/asio/detail/work_dispatcher.hpp
FN:29,_ZN4asio6detail15work_dispatcherINS0_7binder1INS0_16range_connect_opINS_2ip3tcpENS_8executorENS4_22basic_resolver_resultsIS5_EENS0_25default_connect_conditionEZZN9SimpleWeb12SocketClientINS_19basic_stream_socketIS5_S6_EEE7connectEvENKUlRKSt10error_codeS8_E_clESH_S8_EUlSH_NS4_14basic_endpointIS5_EEE_EESF_EEED2Ev
FN:33,_ZN4asio6detail15work_dispatcherINS0_7binder1INS0_16range_connect_opINS_2ip3tcpENS_8executorENS4_22basic_resolver_resultsIS5_EENS0_25default_connect_conditionEZZN9SimpleWeb12SocketClientINS_19basic_stream_socketIS5_S6_EEE7connectEvENKUlRKSt10error_codeS8_E_clESH_S8_EUlSH_NS4_14basic_endpointIS5_EEE_EESF_EEEC2ISN_EEOT_
FN:46,_ZN4asio6detail15work_dispatcherINS0_7binder1INS0_16range_connect_opINS_2ip3tcpENS_8executorENS4_22basic_resolver_resultsIS5_EENS0_25default_connect_conditionEZZN9SimpleWeb12SocketClientINS_19basic_stream_socketIS5_S6_EEE7connectEvENKUlRKSt10error_codeS8_E_clESH_S8_EUlSH_NS4_14basic_endpointIS5_EEE_EESF_EEEC2EOSO_
FN:54,_ZN4asio6detail15work_dispatcherINS0_7binder1INS0_16range_connect_opINS_2ip3tcpENS_8executorENS4_22basic_resolver_resultsIS5_EENS0_25default_connect_conditionEZZN9SimpleWeb12SocketClientINS_19basic_stream_socketIS5_S6_EEE7connectEvENKUlRKSt10error_codeS8_E_clESH_S8_EUlSH_NS4_14basic_endpointIS5_EEE_EESF_EEEclEv
FNDA:0,_ZN4asio6detail15work_dispatcherINS0_7binder1INS0_16range_connect_opINS_2ip3tcpENS_8executorENS4_22basic_resolver_resultsIS5_EENS0_25default_connect_conditionEZZN9SimpleWeb12SocketClientINS_19basic_stream_socketIS5_S6_EEE7connectEvENKUlRKSt10error_codeS8_E_clESH_S8_EUlSH_NS4_14basic_endpointIS5_EEE_EESF_EEED2Ev
FNDA:0,_ZN4asio6detail15work_dispatcherINS0_7binder1INS0_16range_connect_opINS_2ip3tcpENS_8executorENS4_22basic_resolver_resultsIS5_EENS0_25default_connect_conditionEZZN9SimpleWeb12SocketClientINS_19basic_stream_socketIS5_S6_EEE7connectEvENKUlRKSt10error_codeS8_E_clESH_S8_EUlSH_NS4_14basic_endpointIS5_EEE_EESF_EEEC2ISN_EEOT_
FNDA:0,_ZN4asio6detail15work_dispatcherINS0_7binder1INS0_16range_connect_opINS_2ip3tcpENS_8executorENS4_22basic_resolver_resultsIS5_EENS0_25default_connect_conditionEZZN9SimpleWeb12SocketClientINS_19basic_stream_socketIS5_S6_EEE7connectEvENKUlRKSt10error_codeS8_E_clESH_S8_EUlSH_NS4_14basic_endpointIS5_EEE_EESF_EEEC2EOSO_
FNDA:0,_ZN4asio6detail15work_dispatcherINS0_7binder1INS0_16range_connect_opINS_2ip3tcpENS_8executorENS4_22basic_resolver_resultsIS5_EENS0_25default_connect_conditionEZZN9SimpleWeb12SocketClientINS_19basic_stream_socketIS5_S6_EEE7connectEvENKUlRKSt10error_codeS8_E_clESH_S8_EUlSH_NS4_14basic_endpointIS5_EEE_EESF_EEEclEv
FNF:4
FNH:0
DA:29,0
DA:33,0
DA:34,0
DA:35,0
DA:37,0
DA:46,0
DA:49,0
DA:51,0
DA:54,0
DA:57,0
DA:58,0
DA:60,0
DA:61,0
LF:13
LH:0
end_of_record
SF:/home/tistrauss/.conan/data/asio/1.13.0/_/_/package/5ab84d6acfe1f23c4fae0ab88f26e3a396351ac9/include/asio/error.hpp
FN:226,_ZN4asio5error19get_system_categoryEv
FN:301,_ZN4asio5error15make_error_codeENS0_12basic_errorsE
FN:307,_ZN4asio5error15make_error_codeENS0_12netdb_errorsE
FN:313,_ZN4asio5error15make_error_codeENS0_15addrinfo_errorsE
FN:319,_ZN4asio5error15make_error_codeENS0_11misc_errorsE
FNDA:0,_ZN4asio5error19get_system_categoryEv
FNDA:0,_ZN4asio5error15make_error_codeENS0_12basic_errorsE
FNDA:0,_ZN4asio5error15make_error_codeENS0_12netdb_errorsE
FNDA:0,_ZN4asio5error15make_error_codeENS0_15addrinfo_errorsE
FNDA:0,_ZN4asio5error15make_error_codeENS0_11misc_errorsE
FNF:5
FNH:0
DA:226,0
DA:228,0
DA:257,3
DA:258,3
DA:260,3
DA:261,3
DA:263,3
DA:264,3
DA:266,3
DA:267,3
DA:301,0
DA:303,0
DA:304,0
DA:307,0
DA:309,0
DA:310,0
DA:313,0
DA:315,0
DA:316,0
DA:319,0
DA:321,0
DA:322,0
LF:22
LH:8
end_of_record
SF:/home/tistrauss/.conan/data/asio/1.13.0/_/_/package/5ab84d6acfe1f23c4fae0ab88f26e3a396351ac9/include/asio/execution_context.hpp
FN:306,_ZN4asio17execution_context2idD2Ev
FN:311,_ZN4asio17execution_context2idC2Ev
FN:348,_ZN4asio17execution_context7service3keyC2Ev
FN:359,_ZN4asio22service_already_existsC2ERKS0_
FN:359,_ZN4asio22service_already_existsD2Ev
FN:359,_ZN4asio22service_already_existsD0Ev
FN:368,_ZN4asio21invalid_service_ownerD2Ev
FN:368,_ZN4asio21invalid_service_ownerD0Ev
FN:368,_ZN4asio21invalid_service_ownerC2ERKS0_
FN:379,_ZN4asio6detail10service_idINS0_9schedulerEEC2Ev
FN:379,_ZN4asio6detail10service_idINS0_14strand_serviceEEC2Ev
FN:379,_ZN4asio6detail10service_idINS0_22deadline_timer_serviceINS0_18chrono_time_traitsINSt6chrono3_V212steady_clockENS_11wait_traitsIS6_EEEEEEEC2Ev
FN:379,_ZN4asio6detail10service_idINS0_22deadline_timer_serviceINS0_18chrono_time_traitsINSt6chrono3_V212steady_clockENS_11wait_traitsIS6_EEEEEEED2Ev
FN:379,_ZN4asio6detail10service_idINS0_14strand_serviceEED2Ev
FN:379,_ZN4asio6detail10service_idINS0_16resolver_serviceINS_2ip3tcpEEEEC2Ev
FN:379,_ZN4asio6detail10service_idINS0_9schedulerEED2Ev
FN:379,_ZN4asio6detail10service_idINS0_23reactive_socket_serviceINS_2ip3tcpEEEED2Ev
FN:379,_ZN4asio6detail10service_idINS0_16resolver_serviceINS_2ip3tcpEEEED2Ev
FN:379,_ZN4asio6detail10service_idINS0_13epoll_reactorEEC2Ev
FN:379,_ZN4asio6detail10service_idINS0_13epoll_reactorEED2Ev
FN:379,_ZN4asio6detail10service_idINS0_23reactive_socket_serviceINS_2ip3tcpEEEEC2Ev
FN:386,_ZN4asio6detail30execution_context_service_baseINS0_23reactive_socket_serviceINS_2ip3tcpEEEED2Ev
FN:386,_ZN4asio6detail30execution_context_service_baseINS0_23reactive_socket_serviceINS_2ip3tcpEEEED0Ev
FN:386,_ZN4asio6detail30execution_context_service_baseINS0_22deadline_timer_serviceINS0_18chrono_time_traitsINSt6chrono3_V212steady_clockENS_11wait_traitsIS6_EEEEEEED0Ev
FN:386,_ZN4asio6detail30execution_context_service_baseINS0_16resolver_serviceINS_2ip3tcpEEEED0Ev
FN:386,_ZN4asio6detail30execution_context_service_baseINS0_9schedulerEED2Ev
