TN:
SF:/home/tistrauss/Documents/ownProjects/DCDB/src/p2p/P2PNode.cpp
FN:10,_ZN3P2P7P2PNodeC2Ei
FN:14,_ZN3P2P7P2PNode5startEv
FN:32,_ZN3P2P7P2PNode4stopEv
FN:36,_ZN3P2P7P2PNode9connectToENSt7__cxx1112basic_stringIcSt11char_traitsIcESaIcEEE
FN:57,_GLOBAL__sub_I__ZN3P2P7P2PNodeC2Ei
FN:57,_Z41__static_initialization_and_destruction_0ii
FNDA:0,_ZN3P2P7P2PNode9connectToENSt7__cxx1112basic_stringIcSt11char_traitsIcESaIcEEE
FNDA:0,_ZN3P2P7P2PNode5startEv
FNDA:0,_ZN3P2P7P2PNodeC2Ei
FNDA:0,_ZN3P2P7P2PNode4stopEv
FNDA:0,_GLOBAL__sub_I__ZN3P2P7P2PNodeC2Ei
FNDA:0,_Z41__static_initialization_and_destruction_0ii
FNF:6
FNH:0
DA:10,0
DA:11,0
DA:12,0
DA:14,0
DA:16,0
DA:17,0
DA:18,0
DA:19,0
DA:20,0
DA:21,0
DA:26,0
DA:29,0
DA:32,0
DA:33,0
DA:34,0
DA:36,0
DA:37,0
DA:38,0
DA:39,0
DA:40,0
DA:44,0
DA:46,0
DA:48,0
DA:49,0
DA:52,0
DA:54,0
DA:56,0
DA:57,0
LF:28
LH:0
end_of_record
TN:
SF:/home/tistrauss/Documents/ownProjects/DCDB/src/p2p/websocket/client.cpp
FN:10,_ZN3P2P11P2PWSClientC2ENSt7__cxx1112basic_stringIcSt11char_traitsIcESaIcEEE
FN:12,_ZZN3P2P11P2PWSClientC4ENSt7__cxx1112basic_stringIcSt11char_traitsIcESaIcEEEENKUlSt10shared_ptrIN9SimpleWeb16SocketClientBaseIN4asio19basic_stream_socketINSA_2ip3tcpENSA_8executorEEEE10ConnectionEES7_INSG_9InMessageEEE_clESI_SK_
FN:19,_ZZN3P2P11P2PWSClientC4ENSt7__cxx1112basic_stringIcSt11char_traitsIcESaIcEEEENKUlSt10shared_ptrIN9SimpleWeb16SocketClientBaseIN4asio19basic_stream_socketINSA_2ip3tcpENSA_8executorEEEE10ConnectionEEE0_clESI_
FN:25,_ZZN3P2P11P2PWSClientC4ENSt7__cxx1112basic_stringIcSt11char_traitsIcESaIcEEEENKUlSt10shared_ptrIN9SimpleWeb16SocketClientBaseIN4asio19basic_stream_socketINSA_2ip3tcpENSA_8executorEEEE10ConnectionEEiRKS6_E1_clESI_iSK_
FN:31,_ZZN3P2P11P2PWSClientC4ENSt7__cxx1112basic_stringIcSt11char_traitsIcESaIcEEEENKUlSt10shared_ptrIN9SimpleWeb16SocketClientBaseIN4asio19basic_stream_socketINSA_2ip3tcpENSA_8executorEEEE10ConnectionEERKSt10error_codeE2_clESI_SL_
FN:38,_ZN3P2P11P2PWSClientD2Ev
FN:42,_ZN3P2P11P2PWSClient5startEv
FN:46,_ZN3P2P11P2PWSClient12_startClientEv
FN:47,_ZZN3P2P11P2PWSClient12_startClientEvENKUlvE_clEv
FN:56,_ZN3P2P11P2PWSClient9isStartedEv
FN:60,_ZN3P2P11P2PWSClient4sendENSt7__cxx1112basic_stringIcSt11char_traitsIcESaIcEEE
FN:66,_ZN3P2P11P2PWSClient4stopEv
FN:80,_Z41__static_initialization_and_destruction_0ii
FN:80,_GLOBAL__sub_I__ZN3P2P11P2PWSClientC2ENSt7__cxx1112basic_stringIcSt11char_traitsIcESaIcEEE
FNDA:0,_ZN3P2P11P2PWSClient12_startClientEv
FNDA:3,_ZN3P2P11P2PWSClientD2Ev
FNDA:3,_ZN3P2P11P2PWSClient4stopEv
FNDA:0,_ZZN3P2P11P2PWSClientC4ENSt7__cxx1112basic_stringIcSt11char_traitsIcESaIcEEEENKUlSt10shared_ptrIN9SimpleWeb16SocketClientBaseIN4asio19basic_stream_socketINSA_2ip3tcpENSA_8executorEEEE10ConnectionEES7_INSG_9InMessageEEE_clESI_SK_
FNDA:3,_Z41__static_initialization_and_destruction_0ii
FNDA:3,_GLOBAL__sub_I__ZN3P2P11P2PWSClientC2ENSt7__cxx1112basic_stringIcSt11char_traitsIcESaIcEEE
FNDA:3,_ZN3P2P11P2PWSClientC2ENSt7__cxx1112basic_stringIcSt11char_traitsIcESaIcEEE
FNDA:3,_ZN3P2P11P2PWSClient9isStartedEv
FNDA:0,_ZN3P2P11P2PWSClient4sendENSt7__cxx1112basic_stringIcSt11char_traitsIcESaIcEEE
FNDA:0,_ZZN3P2P11P2PWSClientC4ENSt7__cxx1112basic_stringIcSt11char_traitsIcESaIcEEEENKUlSt10shared_ptrIN9SimpleWeb16SocketClientBaseIN4asio19basic_stream_socketINSA_2ip3tcpENSA_8executorEEEE10ConnectionEEiRKS6_E1_clESI_iSK_
FNDA:0,_ZZN3P2P11P2PWSClientC4ENSt7__cxx1112basic_stringIcSt11char_traitsIcESaIcEEEENKUlSt10shared_ptrIN9SimpleWeb16SocketClientBaseIN4asio19basic_stream_socketINSA_2ip3tcpENSA_8executorEEEE10ConnectionEERKSt10error_codeE2_clESI_SL_
FNDA:0,_ZZN3P2P11P2PWSClient12_startClientEvENKUlvE_clEv
FNDA:0,_ZZN3P2P11P2PWSClientC4ENSt7__cxx1112basic_stringIcSt11char_traitsIcESaIcEEEENKUlSt10shared_ptrIN9SimpleWeb16SocketClientBaseIN4asio19basic_stream_socketINSA_2ip3tcpENSA_8executorEEEE10ConnectionEEE0_clESI_
FNDA:0,_ZN3P2P11P2PWSClient5startEv
FNF:14
FNH:6
DA:10,3
DA:11,3
DA:12,6
DA:13,0
DA:15,0
DA:16,0
DA:17,6
DA:19,6
DA:20,0
DA:22,0
DA:23,9
DA:25,6
DA:26,0
DA:27,0
DA:28,9
DA:31,6
DA:32,0
DA:33,0
DA:34,9
DA:36,3
DA:38,6
DA:39,3
DA:40,3
DA:42,0
DA:43,0
DA:46,0
DA:47,0
DA:49,0
DA:50,0
DA:51,0
DA:53,0
DA:54,0
DA:56,3
DA:57,3
DA:60,0
DA:61,0
DA:62,0
DA:64,0
DA:66,3
DA:67,3
DA:68,0
DA:70,0
DA:71,0
DA:72,0
DA:73,0
DA:76,0
DA:78,0
DA:80,12
LF:48
LH:19
end_of_record
TN:
SF:/home/tistrauss/Documents/ownProjects/DCDB/src/p2p/websocket/server.cpp
FN:14,_ZN3P2P11P2PWSServerC2Ei
FN:19,_ZN3P2P11P2PWSServerD2Ev
FN:23,_ZN3P2P11P2PWSServer4stopEv
FN:32,_ZN3P2P11P2PWSServer12privateStartEv
FN:39,_ZN3P2P11P2PWSServer3runEv
FN:42,_ZZN3P2P11P2PWSServer3runEvENKUlSt10shared_ptrIN9SimpleWeb16SocketServerBaseIN4asio19basic_stream_socketINS4_2ip3tcpENS4_8executorEEEE10ConnectionEES1_INSA_9InMessageEEE_clESC_SE_
FN:60,_ZZN3P2P11P2PWSServer3runEvENKUlSt10shared_ptrIN9SimpleWeb16SocketServerBaseIN4asio19basic_stream_socketINS4_2ip3tcpENS4_8executorEEEE10ConnectionEEE0_clESC_
FN:65,_ZZN3P2P11P2PWSServer3runEvENKUlSt10shared_ptrIN9SimpleWeb16SocketServerBaseIN4asio19basic_stream_socketINS4_2ip3tcpENS4_8executorEEEE10ConnectionEEiRKNSt7__cxx1112basic_stringIcSt11char_traitsIcESaIcEEEE1_clESC_iSK_
FN:71,_ZZN3P2P11P2PWSServer3runEvENKUlSt10shared_ptrIN9SimpleWeb16SocketServerBaseIN4asio19basic_stream_socketINS4_2ip3tcpENS4_8executorEEEE10ConnectionEERSt18unordered_multimapINSt7__cxx1112basic_stringIcSt11char_traitsIcESaIcEEESJ_NS2_19CaseInsensitiveHashENS2_20CaseInsensitiveEqualESaISt4pairIKSJ_SJ_EEEE2_clESC_SR_
FN:76,_ZZN3P2P11P2PWSServer3runEvENKUlSt10shared_ptrIN9SimpleWeb16SocketServerBaseIN4asio19basic_stream_socketINS4_2ip3tcpENS4_8executorEEEE10ConnectionEERKSt10error_codeE3_clESC_SF_
FN:81,_ZZN3P2P11P2PWSServer3runEvENKUlvE4_clEv
FN:94,_ZN3P2P11P2PWSServer5startEv
FN:98,_ZN3P2P11P2PWSServer7runningEv
FN:100,_Z41__static_initialization_and_destruction_0ii
FN:100,_GLOBAL__sub_I__ZN3P2P11P2PWSServerC2Ei
FNDA:0,_ZN3P2P11P2PWSServer3runEv
FNDA:0,_ZZN3P2P11P2PWSServer3runEvENKUlSt10shared_ptrIN9SimpleWeb16SocketServerBaseIN4asio19basic_stream_socketINS4_2ip3tcpENS4_8executorEEEE10ConnectionEEE0_clESC_
FNDA:0,_ZZN3P2P11P2PWSServer3runEvENKUlSt10shared_ptrIN9SimpleWeb16SocketServerBaseIN4asio19basic_stream_socketINS4_2ip3tcpENS4_8executorEEEE10ConnectionEEiRKNSt7__cxx1112basic_stringIcSt11char_traitsIcESaIcEEEE1_clESC_iSK_
FNDA:0,_ZN3P2P11P2PWSServer5startEv
FNDA:0,_ZN3P2P11P2PWSServer7runningEv
FNDA:0,_ZN3P2P11P2PWSServer4stopEv
FNDA:0,_GLOBAL__sub_I__ZN3P2P11P2PWSServerC2Ei
FNDA:0,_ZN3P2P11P2PWSServerD2Ev
FNDA:0,_ZZN3P2P11P2PWSServer3runEvENKUlSt10shared_ptrIN9SimpleWeb16SocketServerBaseIN4asio19basic_stream_socketINS4_2ip3tcpENS4_8executorEEEE10ConnectionEERKSt10error_codeE3_clESC_SF_
FNDA:0,_ZZN3P2P11P2PWSServer3runEvENKUlSt10shared_ptrIN9SimpleWeb16SocketServerBaseIN4asio19basic_stream_socketINS4_2ip3tcpENS4_8executorEEEE10ConnectionEES1_INSA_9InMessageEEE_clESC_SE_
FNDA:0,_ZZN3P2P11P2PWSServer3runEvENKUlSt10shared_ptrIN9SimpleWeb16SocketServerBaseIN4asio19basic_stream_socketINS4_2ip3tcpENS4_8executorEEEE10ConnectionEERSt18unordered_multimapINSt7__cxx1112basic_stringIcSt11char_traitsIcESaIcEEESJ_NS2_19CaseInsensitiveHashENS2_20CaseInsensitiveEqualESaISt4pairIKSJ_SJ_EEEE2_clESC_SR_
FNDA:0,_ZN3P2P11P2PWSServer12privateStartEv
FNDA:0,_ZZN3P2P11P2PWSServer3runEvENKUlvE4_clEv
FNDA:0,_ZN3P2P11P2PWSServerC2Ei
FNDA:0,_Z41__static_initialization_and_destruction_0ii
FNF:15
FNH:0
DA:14,0
DA:15,0
DA:16,0
DA:17,0
DA:19,0
DA:20,0
DA:21,0
DA:23,0
DA:24,0
DA:25,0
DA:26,0
DA:28,0
DA:30,0
DA:32,0
DA:33,0
DA:34,0
DA:35,0
DA:37,0
DA:39,0
DA:40,0
DA:42,0
DA:43,0
DA:45,0
DA:47,0
DA:49,0
DA:51,0
DA:52,0
DA:53,0
DA:54,0
DA:57,0
DA:58,0
DA:60,0
DA:61,0
DA:62,0
DA:65,0
DA:66,0
DA:67,0
DA:70,0
DA:71,0
DA:73,0
DA:76,0
DA:77,0
DA:78,0
DA:79,0
DA:81,0
DA:82,0
DA:84,0
DA:85,0
DA:86,0
DA:87,0
DA:89,0
DA:91,0
DA:92,0
DA:94,0
DA:95,0
DA:96,0
DA:98,0
DA:99,0
DA:100,0
LF:59
LH:0
end_of_record
